
Byggern2.elf:     file format elf32-avr

Sections:
Idx Name          Size      VMA       LMA       File off  Algn
  0 .data         000000de  00800100  00002a42  00002ad6  2**0
                  CONTENTS, ALLOC, LOAD, DATA
  1 .text         00002a42  00000000  00000000  00000094  2**1
                  CONTENTS, ALLOC, LOAD, READONLY, CODE
  2 .bss          0000001c  008001de  008001de  00002bb4  2**0
                  ALLOC
  3 .comment      0000005c  00000000  00000000  00002bb4  2**0
                  CONTENTS, READONLY
  4 .note.gnu.avr.deviceinfo 0000003c  00000000  00000000  00002c10  2**2
                  CONTENTS, READONLY
  5 .debug_aranges 00000318  00000000  00000000  00002c4c  2**0
                  CONTENTS, READONLY, DEBUGGING
  6 .debug_info   000043db  00000000  00000000  00002f64  2**0
                  CONTENTS, READONLY, DEBUGGING
  7 .debug_abbrev 0000176f  00000000  00000000  0000733f  2**0
                  CONTENTS, READONLY, DEBUGGING
  8 .debug_line   00001bab  00000000  00000000  00008aae  2**0
                  CONTENTS, READONLY, DEBUGGING
  9 .debug_frame  00000888  00000000  00000000  0000a65c  2**2
                  CONTENTS, READONLY, DEBUGGING
 10 .debug_str    00000dad  00000000  00000000  0000aee4  2**0
                  CONTENTS, READONLY, DEBUGGING
 11 .debug_loc    000022fc  00000000  00000000  0000bc91  2**0
                  CONTENTS, READONLY, DEBUGGING
 12 .debug_ranges 000002b8  00000000  00000000  0000df8d  2**0
                  CONTENTS, READONLY, DEBUGGING

Disassembly of section .text:

00000000 <__vectors>:
       0:	0c 94 f3 05 	jmp	0xbe6	; 0xbe6 <__ctors_end>
       4:	0c 94 10 06 	jmp	0xc20	; 0xc20 <__bad_interrupt>
       8:	0c 94 10 06 	jmp	0xc20	; 0xc20 <__bad_interrupt>
       c:	0c 94 10 06 	jmp	0xc20	; 0xc20 <__bad_interrupt>
      10:	0c 94 10 06 	jmp	0xc20	; 0xc20 <__bad_interrupt>
      14:	0c 94 10 06 	jmp	0xc20	; 0xc20 <__bad_interrupt>
      18:	0c 94 10 06 	jmp	0xc20	; 0xc20 <__bad_interrupt>
      1c:	0c 94 10 06 	jmp	0xc20	; 0xc20 <__bad_interrupt>
      20:	0c 94 10 06 	jmp	0xc20	; 0xc20 <__bad_interrupt>
      24:	0c 94 10 06 	jmp	0xc20	; 0xc20 <__bad_interrupt>
      28:	0c 94 10 06 	jmp	0xc20	; 0xc20 <__bad_interrupt>
      2c:	0c 94 10 06 	jmp	0xc20	; 0xc20 <__bad_interrupt>
      30:	0c 94 10 06 	jmp	0xc20	; 0xc20 <__bad_interrupt>
      34:	0c 94 10 06 	jmp	0xc20	; 0xc20 <__bad_interrupt>
      38:	0c 94 10 06 	jmp	0xc20	; 0xc20 <__bad_interrupt>
      3c:	0c 94 10 06 	jmp	0xc20	; 0xc20 <__bad_interrupt>
      40:	0c 94 6c 0e 	jmp	0x1cd8	; 0x1cd8 <__vector_16>
      44:	0c 94 10 06 	jmp	0xc20	; 0xc20 <__bad_interrupt>
      48:	0c 94 10 06 	jmp	0xc20	; 0xc20 <__bad_interrupt>
      4c:	0c 94 10 06 	jmp	0xc20	; 0xc20 <__bad_interrupt>
      50:	0c 94 10 06 	jmp	0xc20	; 0xc20 <__bad_interrupt>
      54:	0c 94 10 06 	jmp	0xc20	; 0xc20 <__bad_interrupt>
      58:	0c 94 10 06 	jmp	0xc20	; 0xc20 <__bad_interrupt>
      5c:	0c 94 10 06 	jmp	0xc20	; 0xc20 <__bad_interrupt>
      60:	0c 94 10 06 	jmp	0xc20	; 0xc20 <__bad_interrupt>
      64:	0c 94 10 06 	jmp	0xc20	; 0xc20 <__bad_interrupt>
      68:	0c 94 10 06 	jmp	0xc20	; 0xc20 <__bad_interrupt>
      6c:	0c 94 10 06 	jmp	0xc20	; 0xc20 <__bad_interrupt>

00000070 <__trampolines_end>:
      70:	36 02       	muls	r19, r22
      72:	35 02       	muls	r19, r21
      74:	2d 02       	muls	r18, r29
      76:	25 02       	muls	r18, r21
      78:	1a 02       	muls	r17, r26
      7a:	10 02       	muls	r17, r16
      7c:	0f 02       	muls	r16, r31
      7e:	0e 02       	muls	r16, r30
      80:	0d 02       	muls	r16, r29
      82:	0c 02       	muls	r16, r28
      84:	02 02       	muls	r16, r18
      86:	f8 01       	movw	r30, r16
      88:	eb 01       	movw	r28, r22
      8a:	df 01       	movw	r26, r30
      8c:	de 01       	movw	r26, r28
      8e:	dd 01       	movw	r26, r26
      90:	dc 01       	movw	r26, r24
      92:	db 01       	movw	r26, r22
      94:	d0 01       	movw	r26, r0
      96:	c4 01       	movw	r24, r8
      98:	b8 01       	movw	r22, r16
      9a:	ab 01       	movw	r20, r22
      9c:	aa 01       	movw	r20, r20
      9e:	a9 01       	movw	r20, r18
      a0:	a8 01       	movw	r20, r16
      a2:	9b 01       	movw	r18, r22
      a4:	96 01       	movw	r18, r12
      a6:	95 01       	movw	r18, r10
      a8:	94 01       	movw	r18, r8
      aa:	93 01       	movw	r18, r6
      ac:	92 01       	movw	r18, r4
      ae:	91 01       	movw	r18, r2
      b0:	86 01       	movw	r16, r12
      b2:	85 01       	movw	r16, r10
      b4:	7c 01       	movw	r14, r24
      b6:	75 01       	movw	r14, r10
      b8:	74 01       	movw	r14, r8
      ba:	73 01       	movw	r14, r6
      bc:	72 01       	movw	r14, r4
      be:	71 01       	movw	r14, r2
      c0:	70 01       	movw	r14, r0
      c2:	6f 01       	movw	r12, r30
      c4:	64 01       	movw	r12, r8
      c6:	5b 01       	movw	r10, r22
      c8:	5a 01       	movw	r10, r20
      ca:	59 01       	movw	r10, r18
      cc:	58 01       	movw	r10, r16
      ce:	57 01       	movw	r10, r14
      d0:	56 01       	movw	r10, r12
      d2:	55 01       	movw	r10, r10
      d4:	4c 01       	movw	r8, r24
      d6:	45 01       	movw	r8, r10
      d8:	44 01       	movw	r8, r8
      da:	43 01       	movw	r8, r6
      dc:	42 01       	movw	r8, r4
      de:	41 01       	movw	r8, r2
      e0:	40 01       	movw	r8, r0
      e2:	3f 01       	movw	r6, r30
      e4:	38 01       	movw	r6, r16
      e6:	31 01       	movw	r6, r2
      e8:	30 01       	movw	r6, r0
      ea:	2f 01       	movw	r4, r30
      ec:	2e 01       	movw	r4, r28
      ee:	2d 01       	movw	r4, r26
      f0:	2c 01       	movw	r4, r24
      f2:	2b 01       	movw	r4, r22
      f4:	1f 01       	movw	r2, r30
      f6:	1e 01       	movw	r2, r28
      f8:	11 01       	movw	r2, r2
      fa:	02 01       	movw	r0, r4
      fc:	01 01       	movw	r0, r2
      fe:	00 01       	movw	r0, r0

00000100 <calibrate_8>:
	...

00000101 <calibrate_7>:
	...

00000102 <calibrate_6>:
     102:	54 48 45 20 43 4f 4e 54 52 4f 4c 4c 45 52 00        THE CONTROLLER.

00000111 <calibrate_5>:
     111:	44 4f 20 4e 4f 54 20 54 4f 55 43 48 00              DO NOT TOUCH.

0000011e <calibrate_4>:
	...

0000011f <calibrate_3>:
     11f:	43 41 4c 49 42 52 41 54 49 4e 47 00                 CALIBRATING.

0000012b <calibrate_2>:
	...

0000012c <calibrate_1>:
	...

0000012d <slider_8>:
	...

0000012e <slider_7>:
	...

0000012f <slider_6>:
	...

00000130 <slider_5>:
	...

00000131 <slider_4>:
     131:	43 48 4f 53 45 4e 00                                CHOSEN.

00000138 <slider_3>:
     138:	53 4c 49 44 45 52 00                                SLIDER.

0000013f <slider_2>:
	...

00000140 <slider_1>:
	...

00000141 <joystick_8>:
	...

00000142 <joystick_7>:
	...

00000143 <joystick_6>:
	...

00000144 <joystick_5>:
	...

00000145 <joystick_4>:
     145:	43 48 4f 53 45 4e 00                                CHOSEN.

0000014c <joystick_3>:
     14c:	4a 4f 59 53 54 49 43 4b 00                          JOYSTICK.

00000155 <joystick_2>:
	...

00000156 <joystick_1>:
	...

00000157 <controllerP_8>:
	...

00000158 <controllerP_7>:
	...

00000159 <controllerP_6>:
	...

0000015a <controllerP_5>:
	...

0000015b <controllerP_4>:
     15b:	3e 53 4c 49 44 45 52 3c 00                          >SLIDER<.

00000164 <controllerP_3>:
     164:	3e 4a 4f 59 53 54 49 43 4b 3c 00                    >JOYSTICK<.

0000016f <controllerP_2>:
	...

00000170 <controllerP_1>:
	...

00000171 <controller_8>:
	...

00000172 <controller_7>:
	...

00000173 <controller_6>:
	...

00000174 <controller_5>:
	...

00000175 <controller_4>:
     175:	53 4c 49 44 45 52 00                                SLIDER.

0000017c <controller_3>:
     17c:	4a 4f 59 53 54 49 43 4b 00                          JOYSTICK.

00000185 <controller_2>:
	...

00000186 <controller_1>:
     186:	43 4f 4e 54 52 4f 4c 4c 45 52 00                    CONTROLLER.

00000191 <p2_8>:
	...

00000192 <p2_7>:
	...

00000193 <p2_6>:
	...

00000194 <p2_5>:
	...

00000195 <p2_4>:
	...

00000196 <p2_3>:
     196:	48 45 52 45 00                                      HERE.

0000019b <p2_2>:
     19b:	49 4e 53 54 52 55 43 54 49 4f 4e 53 00              INSTRUCTIONS.

000001a8 <p2_1>:
	...

000001a9 <p1_8>:
	...

000001aa <p1_7>:
	...

000001ab <p1_6>:
     1ab:	42 55 54 54 4f 4e 20 53 54 41 52 54 00              BUTTON START.

000001b8 <p1_5>:
     1b8:	50 52 45 53 53 20 52 49 47 48 54 00                 PRESS RIGHT.

000001c4 <p1_4>:
     1c4:	4f 4e 20 53 4f 4c 4f 4e 4f 49 44 00                 ON SOLONOID.

000001d0 <p1_3>:
     1d0:	50 4c 41 43 45 20 42 41 4c 4c 00                    PLACE BALL.

000001db <p1_2>:
	...

000001dc <p1_1>:
	...

000001dd <mainP_8>:
	...

000001de <mainP_7>:
	...

000001df <mainP_6>:
     1df:	3e 43 41 4c 49 42 52 41 54 45 3c 00                 >CALIBRATE<.

000001eb <mainP_5>:
     1eb:	3e 43 4f 4e 54 52 4f 4c 4c 45 52 3c 00              >CONTROLLER<.

000001f8 <mainP_4>:
     1f8:	3e 32 50 4c 41 59 45 52 3c 00                       >2PLAYER<.

00000202 <mainP_3>:
     202:	3e 31 50 4c 41 59 45 52 3c 00                       >1PLAYER<.

0000020c <mainP_2>:
	...

0000020d <mainP_1>:
	...

0000020e <main_8>:
	...

0000020f <main_7>:
	...

00000210 <main_6>:
     210:	43 41 4c 49 42 52 41 54 45 00                       CALIBRATE.

0000021a <main_5>:
     21a:	43 4f 4e 54 52 4f 4c 4c 45 52 00                    CONTROLLER.

00000225 <main_4>:
     225:	32 50 4c 41 59 45 52 00                             2PLAYER.

0000022d <main_3>:
     22d:	31 50 4c 41 59 45 52 00                             1PLAYER.

00000235 <main_2>:
	...

00000236 <main_1>:
     236:	50 49 4e 47 50 4f 4e 47 00                          PINGPONG.

0000023f <font_animation>:
	...
     247:	00 06 5f 5f 06 00 00 00 00 07 07 00 07 07 00 00     ..__............
     257:	14 7f 7f 14 7f 7f 14 00 24 2e 6b 6b 3a 12 00 00     ........$.kk:...
     267:	46 66 30 18 0c 66 62 00 30 7a 4f 5d 37 7a 48 00     Ff0..fb.0zO]7zH.
     277:	04 07 03 00 00 00 00 00 00 1c 3e 63 41 00 00 00     ..........>cA...
     287:	00 41 63 3e 1c 00 00 00 08 2a 3e 1c 1c 3e 2a 08     .Ac>.....*>..>*.
     297:	08 08 3e 3e 08 08 00 00 00 a0 e0 60 00 00 00 00     ..>>.......`....
     2a7:	08 08 08 08 08 08 00 00 00 00 60 60 00 00 00 00     ..........``....
     2b7:	60 30 18 0c 06 03 01 00 3e 7f 59 4d 7f 3e 00 00     `0......>.YM.>..
     2c7:	42 42 7f 7f 40 40 00 00 62 73 59 49 6f 66 00 00     BB..@@..bsYIof..
     2d7:	22 63 49 49 7f 36 00 00 18 1c 16 13 7f 7f 10 00     "cII.6..........
     2e7:	27 67 45 45 7d 39 00 00 3c 7e 4b 49 79 30 00 00     'gEE}9..<~KIy0..
     2f7:	03 63 71 19 0f 07 00 00 36 7f 49 49 7f 36 00 00     .cq.....6.II.6..
     307:	06 4f 49 69 3f 1e 00 00 00 00 6c 6c 00 00 00 00     .OIi?.....ll....
     317:	00 a0 ec 6c 00 00 00 00 18 24 42 99 24 42 81 00     ...l.....$B.$B..
     327:	14 14 14 14 14 14 00 00 81 42 24 99 42 24 18 00     .........B$.B$..
     337:	02 03 51 59 0f 06 00 00 3e 7f 41 5d 5d 1f 1e 00     ..QY....>.A]]...
     347:	ff 3e 00 00 00 00 00 00 ff 08 3e 00 00 00 00 00     .>........>.....
     357:	ff 08 08 3e 00 00 00 00 ff 08 08 08 3e 00 00 00     ...>........>...
     367:	ff 08 08 08 08 3e 00 00 ff 08 08 08 08 08 3e 00     .....>........>.
     377:	ff 08 08 08 08 08 08 3e 00 00 00 00 00 00 00 00     .......>........
	...
     43b:	00 00 00 80 00 00 00 00 00 00 00 00 00 00 00 00     ................
	...
     473:	03 00 00 00 00 00 00 00 f8 00 00 00 00 00 00 00     ................
     483:	04 00 00 00 00 44 00 00 40 00 00 00 00 c4 00 fd     .....D..@.......
     493:	7d 00 00 00 41 7f 7f 10 38 6c 44 00 00 41 7f 7f     }...A...8lD..A..
     4a3:	40 00 00 00 7c 7c 0c 18 0c 7c 78 00 7c 7c 04 04     @...||...|x.||..
     4b3:	7c 78 00 00 38 7c 44 44 7c 38 00 00 84 fc f8 a4     |x..8|DD|8......
     4c3:	24 3c 18 00 18 3c 24 a4 f8 fc 84 00 44 7c 78 44     $<...<$.....D|xD
     4d3:	1c 18 00 00 48 5c 54 54 74 24 00 00 00 04 3e 7f     ....H\TTt$....>.
     4e3:	44 24 00 00 3c 7c 40 40 3c 7c 40 00 1c 3c 60 60     D$..<|@@<|@..<``
     4f3:	3c 1c 00 00 3c 7c 60 30 60 7c 3c 00 44 6c 38 10     <...<|`0`|<.Dl8.
     503:	38 6c 44 00 9c bc a0 a0 fc 7c 00 00 4c 64 74 5c     8lD......|..Ldt\
     513:	4c 64 00 00 08 08 3e 77 41 41 00 00 00 00 00 77     Ld....>wAA.....w
     523:	77 00 00 00 41 41 77 3e 08 08 00 00 02 03 01 03     w...AAw>........
     533:	02 03 01 00                                         ....

00000537 <font4>:
     537:	00 00 00 00 00 5c 00 00 0c 00 0c 00 7c 28 7c 28     .....\......|(|(
     547:	58 dc 68 00 24 10 48 00 28 54 28 40 00 0c 00 00     X.h.$.H.(T(@....
     557:	00 78 84 00 84 78 00 00 54 38 54 00 10 7c 10 00     .x...x..T8T..|..
     567:	80 40 00 00 10 10 10 00 00 40 00 00 60 10 0c 00     .@.......@..`...
     577:	38 54 38 00 48 7c 40 00 48 64 58 00 44 54 2c 00     8T8.H|@.HdX.DT,.
     587:	1c 10 7c 00 5c 54 24 00 38 54 24 00 64 14 0c 00     ..|.\T$.8T$.d...
     597:	68 54 2c 00 48 54 38 00 00 48 00 00 80 48 00 00     hT,.HT8..H...H..
     5a7:	10 28 44 00 28 28 28 00 44 28 10 00 04 54 08 00     .(D.(((.D(...T..
     5b7:	38 44 5c 00 78 14 78 00 7c 54 28 00 38 44 28 00     8D\.x.x.|T(.8D(.
     5c7:	7c 44 38 00 7c 54 44 00 7c 14 04 00 38 44 74 00     |D8.|TD.|...8Dt.
     5d7:	7c 10 7c 00 44 7c 44 00 20 40 3c 00 7c 10 6c 00     |.|.D|D. @<.|.l.
     5e7:	7c 40 40 00 7c 18 7c 00 78 10 3c 00 38 44 38 00     |@@.|.|.x.<.8D8.
     5f7:	7c 14 08 00 38 44 b8 00 7c 14 68 00 48 54 24 00     |...8D..|.h.HT$.
     607:	04 7c 04 00 7c 40 7c 00 3c 60 3c 00 7c 30 7c 00     .|..|@|.<`<.|0|.
     617:	6c 10 6c 00 0c 70 0c 00 64 54 4c 00 00 7c 44 00     l.l..p..dTL..|D.
     627:	0c 10 60 00 44 7c 00 00 08 04 08 00 80 80 80 00     ..`.D|..........
     637:	00 04 08 00 30 48 78 00 7c 48 30 00 30 48 48 00     ....0Hx.|H0.0HH.
     647:	30 48 7c 00 30 68 50 00 10 78 14 00 90 a8 78 00     0H|.0hP..x....x.
     657:	7c 08 70 00 50 74 40 00 80 80 74 00 7c 10 68 00     |.p.Pt@...t.|.h.
     667:	44 7c 40 00 78 10 78 00 78 08 70 00 30 48 30 00     D|@.x.x.x.p.0H0.
     677:	f8 28 10 00 30 48 f8 00 78 10 08 00 50 58 28 00     .(..0H..x...PX(.
     687:	08 3c 48 00 38 40 78 00 38 40 38 00 78 20 78 00     .<H.8@x.8@8.x x.
     697:	48 30 48 00 98 a0 78 00 48 68 58 00 10 78 84 00     H0H...x.HhX..x..
     6a7:	00 7c 00 00 84 78 10 00 08 04 08 04                 .|...x......

000006b3 <font6>:
	...
     6bb:	5f 00 00 00 00 07 00 07 00 00 14 7f 14 7f 14 00     _...............
     6cb:	24 2a 7f 2a 12 00 23 13 08 64 62 00 36 49 55 22     $*.*..#..db.6IU"
     6db:	50 00 00 05 03 00 00 00 00 1c 22 41 00 00 00 41     P........."A...A
     6eb:	22 1c 00 00 08 2a 1c 2a 08 00 08 08 3e 08 08 00     "....*.*....>...
     6fb:	00 50 30 00 00 00 08 08 08 08 08 00 00 60 60 00     .P0..........``.
     70b:	00 00 20 10 08 04 02 00 3e 51 49 45 3e 00 00 42     .. .....>QIE>..B
     71b:	7f 40 00 00 42 61 51 49 46 00 21 41 45 4b 31 00     .@..BaQIF.!AEK1.
     72b:	18 14 12 7f 10 00 27 45 45 45 39 00 3c 4a 49 49     ......'EEE9.<JII
     73b:	30 00 01 71 09 05 03 00 36 49 49 49 36 00 06 49     0..q....6III6..I
     74b:	49 29 1e 00 00 36 36 00 00 00 00 56 36 00 00 00     I)...66....V6...
     75b:	08 1c 2a 08 08 00 14 14 14 14 14 00 08 08 2a 1c     ..*...........*.
     76b:	08 00 02 01 51 09 06 00 32 49 79 41 3e 00 7e 11     ....Q...2IyA>.~.
     77b:	11 11 7e 00 7f 49 49 49 36 00 3e 41 41 41 22 00     ..~..III6.>AAA".
     78b:	7f 41 41 22 1c 00 7f 49 49 49 41 00 7f 09 09 01     .AA"...IIIA.....
     79b:	01 00 3e 41 41 51 32 00 7f 08 08 08 7f 00 00 41     ..>AAQ2........A
     7ab:	7f 41 00 00 20 40 41 3f 01 00 7f 08 14 22 41 00     .A.. @A?....."A.
     7bb:	7f 40 40 40 40 00 7f 02 04 02 7f 00 7f 04 08 10     .@@@@...........
     7cb:	7f 00 3e 41 41 41 3e 00 7f 09 09 09 06 00 3e 41     ..>AAA>.......>A
     7db:	51 21 5e 00 7f 09 19 29 46 00 46 49 49 49 31 00     Q!^....)F.FIII1.
     7eb:	01 01 7f 01 01 00 3f 40 40 40 3f 00 1f 20 40 20     ......?@@@?.. @ 
     7fb:	1f 00 7f 20 18 20 7f 00 63 14 08 14 63 00 03 04     ... . ..c...c...
     80b:	78 04 03 00 61 51 49 45 43 00 00 00 7f 41 41 00     x...aQIEC....AA.
     81b:	02 04 08 10 20 00 41 41 7f 00 00 00 04 02 01 02     .... .AA........
     82b:	04 00 40 40 40 40 40 00 00 01 02 04 00 00 20 54     ..@@@@@....... T
     83b:	54 54 78 00 7f 48 44 44 38 00 38 44 44 44 20 00     TTx..HDD8.8DDD .
     84b:	38 44 44 48 7f 00 38 54 54 54 18 00 08 7e 09 01     8DDH..8TTT...~..
     85b:	02 00 08 14 54 54 3c 00 7f 08 04 04 78 00 00 44     ....TT<.....x..D
     86b:	7d 40 00 00 20 40 44 3d 00 00 00 7f 10 28 44 00     }@.. @D=.....(D.
     87b:	00 41 7f 40 00 00 7c 04 18 04 78 00 7c 08 04 04     .A.@..|...x.|...
     88b:	78 00 38 44 44 44 38 00 7c 14 14 14 08 00 08 14     x.8DDD8.|.......
     89b:	14 18 7c 00 7c 08 04 04 08 00 48 54 54 54 20 00     ..|.|.....HTTT .
     8ab:	04 3f 44 40 20 00 3c 40 40 20 7c 00 1c 20 40 20     .?D@ .<@@ |.. @ 
     8bb:	1c 00 3c 40 30 40 3c 00 44 28 10 28 44 00 0c 50     ..<@0@<.D(.(D..P
     8cb:	50 50 3c 00 44 64 54 4c 44 00 00 08 36 41 00 00     PP<.DdTLD...6A..
     8db:	00 00 7f 00 00 00 00 41 36 08 00 00 02 01 03 02     .......A6.......
     8eb:	01 00                                               ..

000008ed <font8>:
	...
     8f5:	00 06 5f 5f 06 00 00 00 00 07 07 00 07 07 00 00     ..__............
     905:	14 7f 7f 14 7f 7f 14 00 24 2e 6b 6b 3a 12 00 00     ........$.kk:...
     915:	46 66 30 18 0c 66 62 00 30 7a 4f 5d 37 7a 48 00     Ff0..fb.0zO]7zH.
     925:	04 07 03 00 00 00 00 00 00 1c 3e 63 41 00 00 00     ..........>cA...
     935:	00 41 63 3e 1c 00 00 00 08 2a 3e 1c 1c 3e 2a 08     .Ac>.....*>..>*.
     945:	08 08 3e 3e 08 08 00 00 00 a0 e0 60 00 00 00 00     ..>>.......`....
     955:	08 08 08 08 08 08 00 00 00 00 60 60 00 00 00 00     ..........``....
     965:	60 30 18 0c 06 03 01 00 3e 7f 59 4d 7f 3e 00 00     `0......>.YM.>..
     975:	42 42 7f 7f 40 40 00 00 62 73 59 49 6f 66 00 00     BB..@@..bsYIof..
     985:	22 63 49 49 7f 36 00 00 18 1c 16 13 7f 7f 10 00     "cII.6..........
     995:	27 67 45 45 7d 39 00 00 3c 7e 4b 49 79 30 00 00     'gEE}9..<~KIy0..
     9a5:	03 63 71 19 0f 07 00 00 36 7f 49 49 7f 36 00 00     .cq.....6.II.6..
     9b5:	06 4f 49 69 3f 1e 00 00 00 00 6c 6c 00 00 00 00     .OIi?.....ll....
     9c5:	00 a0 ec 6c 00 00 00 00 18 24 42 99 24 42 81 00     ...l.....$B.$B..
     9d5:	14 14 14 14 14 14 00 00 81 42 24 99 42 24 18 00     .........B$.B$..
     9e5:	02 03 51 59 0f 06 00 00 3e 7f 41 5d 5d 1f 1e 00     ..QY....>.A]]...
     9f5:	7c 7e 13 13 7e 7c 00 00 41 7f 7f 49 49 7f 36 00     |~..~|..A..II.6.
     a05:	1c 3e 63 41 41 63 22 00 41 7f 7f 41 63 7f 1c 00     .>cAAc".A..Ac...
     a15:	41 7f 7f 49 5d 41 63 00 41 7f 7f 49 1d 01 03 00     A..I]Ac.A..I....
     a25:	1c 3e 63 41 51 73 72 00 7f 7f 08 08 7f 7f 00 00     .>cAQsr.........
     a35:	00 41 7f 7f 41 00 00 00 30 70 40 41 7f 3f 01 00     .A..A...0p@A.?..
     a45:	41 7f 7f 08 1c 77 63 00 41 7f 7f 41 40 60 70 00     A....wc.A..A@`p.
     a55:	7f 7f 06 0c 06 7f 7f 00 7f 7f 06 0c 18 7f 7f 00     ................
     a65:	1c 3e 63 41 63 3e 1c 00 41 7f 7f 49 09 0f 06 00     .>cAc>..A..I....
     a75:	1e 3f 21 71 7f 5e 00 00 41 7f 7f 19 39 6f 46 00     .?!q.^..A...9oF.
     a85:	26 67 4d 59 7b 32 00 00 03 41 7f 7f 41 03 00 00     &gMY{2...A..A...
     a95:	7f 7f 40 40 7f 7f 00 00 1f 3f 60 60 3f 1f 00 00     ..@@.....?``?...
     aa5:	7f 7f 30 18 30 7f 7f 00 63 77 1c 08 1c 77 63 00     ..0.0...cw...wc.
     ab5:	07 4f 78 78 4f 07 00 00 67 73 59 4d 47 63 71 00     .OxxO...gsYMGcq.
     ac5:	00 7f 7f 41 41 00 00 00 01 03 06 0c 18 30 60 00     ...AA........0`.
     ad5:	00 41 41 7f 7f 00 00 00 08 0c 06 03 06 0c 08 00     .AA.............
     ae5:	80 80 80 80 80 80 80 80 00 00 03 07 04 00 00 00     ................
     af5:	20 74 54 54 3c 78 40 00 41 3f 7f 44 44 7c 38 00      tTT<x@.A?.DD|8.
     b05:	38 7c 44 44 6c 28 00 00 30 78 48 49 3f 7f 40 00     8|DDl(..0xHI?.@.
     b15:	38 7c 54 54 5c 18 00 00 48 7e 7f 49 03 02 00 00     8|TT\...H~.I....
     b25:	98 bc a4 a4 f8 7c 04 00 41 7f 7f 08 04 7c 78 00     .....|..A....|x.
     b35:	00 44 7d 7d 40 00 00 00 40 c4 84 fd 7d 00 00 00     .D}}@...@...}...
     b45:	41 7f 7f 10 38 6c 44 00 00 41 7f 7f 40 00 00 00     A...8lD..A..@...
     b55:	7c 7c 0c 18 0c 7c 78 00 7c 7c 04 04 7c 78 00 00     ||...|x.||..|x..
     b65:	38 7c 44 44 7c 38 00 00 84 fc f8 a4 24 3c 18 00     8|DD|8......$<..
     b75:	18 3c 24 a4 f8 fc 84 00 44 7c 78 44 1c 18 00 00     .<$.....D|xD....
     b85:	48 5c 54 54 74 24 00 00 00 04 3e 7f 44 24 00 00     H\TTt$....>.D$..
     b95:	3c 7c 40 40 3c 7c 40 00 1c 3c 60 60 3c 1c 00 00     <|@@<|@..<``<...
     ba5:	3c 7c 60 30 60 7c 3c 00 44 6c 38 10 38 6c 44 00     <|`0`|<.Dl8.8lD.
     bb5:	9c bc a0 a0 fc 7c 00 00 4c 64 74 5c 4c 64 00 00     .....|..Ldt\Ld..
     bc5:	08 08 3e 77 41 41 00 00 00 00 00 77 77 00 00 00     ..>wAA.....ww...
     bd5:	41 41 77 3e 08 08 00 00 02 03 01 03 02 03 01 00     AAw>............
	...

00000be6 <__ctors_end>:
     be6:	11 24       	eor	r1, r1
     be8:	1f be       	out	0x3f, r1	; 63
     bea:	cf ef       	ldi	r28, 0xFF	; 255
     bec:	d4 e0       	ldi	r29, 0x04	; 4
     bee:	de bf       	out	0x3e, r29	; 62
     bf0:	cd bf       	out	0x3d, r28	; 61

00000bf2 <__do_copy_data>:
     bf2:	11 e0       	ldi	r17, 0x01	; 1
     bf4:	a0 e0       	ldi	r26, 0x00	; 0
     bf6:	b1 e0       	ldi	r27, 0x01	; 1
     bf8:	e2 e4       	ldi	r30, 0x42	; 66
     bfa:	fa e2       	ldi	r31, 0x2A	; 42
     bfc:	02 c0       	rjmp	.+4      	; 0xc02 <__do_copy_data+0x10>
     bfe:	05 90       	lpm	r0, Z+
     c00:	0d 92       	st	X+, r0
     c02:	ae 3d       	cpi	r26, 0xDE	; 222
     c04:	b1 07       	cpc	r27, r17
     c06:	d9 f7       	brne	.-10     	; 0xbfe <__do_copy_data+0xc>

00000c08 <__do_clear_bss>:
     c08:	21 e0       	ldi	r18, 0x01	; 1
     c0a:	ae ed       	ldi	r26, 0xDE	; 222
     c0c:	b1 e0       	ldi	r27, 0x01	; 1
     c0e:	01 c0       	rjmp	.+2      	; 0xc12 <.do_clear_bss_start>

00000c10 <.do_clear_bss_loop>:
     c10:	1d 92       	st	X+, r1

00000c12 <.do_clear_bss_start>:
     c12:	aa 3f       	cpi	r26, 0xFA	; 250
     c14:	b2 07       	cpc	r27, r18
     c16:	e1 f7       	brne	.-8      	; 0xc10 <.do_clear_bss_loop>
     c18:	0e 94 48 0f 	call	0x1e90	; 0x1e90 <main>
     c1c:	0c 94 1f 15 	jmp	0x2a3e	; 0x2a3e <_exit>

00000c20 <__bad_interrupt>:
     c20:	0c 94 00 00 	jmp	0	; 0x0 <__vectors>

00000c24 <clock_init>:
#define CONVERSION_DELAY 50


void clock_init(void){
	//Set pin pd4 as output
	DDRD |= (1 << DDD4);
     c24:	8c 9a       	sbi	0x11, 4	; 17
	
	// 1.3 MHz?
	cli(); //clears the global interrupt flag in SREG to prevent any form of interrupt occuring.
     c26:	f8 94       	cli
	TCCR3A |= (1 << COM3A0);
     c28:	eb e8       	ldi	r30, 0x8B	; 139
     c2a:	f0 e0       	ldi	r31, 0x00	; 0
     c2c:	80 81       	ld	r24, Z
     c2e:	80 64       	ori	r24, 0x40	; 64
     c30:	80 83       	st	Z, r24
	TCCR3B |= (1 << CS30);
     c32:	ea e8       	ldi	r30, 0x8A	; 138
     c34:	f0 e0       	ldi	r31, 0x00	; 0
     c36:	80 81       	ld	r24, Z
     c38:	81 60       	ori	r24, 0x01	; 1
     c3a:	80 83       	st	Z, r24
	TCCR3B |= (1 << WGM32);
     c3c:	80 81       	ld	r24, Z
     c3e:	88 60       	ori	r24, 0x08	; 8
     c40:	80 83       	st	Z, r24
	OCR3A = 1;
     c42:	81 e0       	ldi	r24, 0x01	; 1
     c44:	90 e0       	ldi	r25, 0x00	; 0
     c46:	90 93 87 00 	sts	0x0087, r25	; 0x800087 <__TEXT_REGION_LENGTH__+0x7e0087>
     c4a:	80 93 86 00 	sts	0x0086, r24	; 0x800086 <__TEXT_REGION_LENGTH__+0x7e0086>
	sei(); // Enables interrupts by setting the global interrupt mask.
     c4e:	78 94       	sei
     c50:	08 95       	ret

00000c52 <adc_init>:
};

void adc_init (void){
	//Configuration data to be written to ADC

	clock_init();
     c52:	0e 94 12 06 	call	0xc24	; 0xc24 <clock_init>
     c56:	08 95       	ret

00000c58 <adc_read>:
		

	
}

int adc_read(int channel){
     c58:	cf 93       	push	r28
     c5a:	c8 2f       	mov	r28, r24
	//D7 = 1, only the channel specified by An is converted. A single !RD pulse reads the result of that conversion

	uint8_t confData = 0b10000000 | channel;
	uint16_t adcMemArea = 0x400;

	xmem_init();
     c5c:	0e 94 ea 0e 	call	0x1dd4	; 0x1dd4 <xmem_init>
	xmem_write(confData, adcMemArea);
     c60:	60 e0       	ldi	r22, 0x00	; 0
     c62:	74 e0       	ldi	r23, 0x04	; 4
     c64:	8c 2f       	mov	r24, r28
     c66:	80 68       	ori	r24, 0x80	; 128
     c68:	0e 94 f1 0e 	call	0x1de2	; 0x1de2 <xmem_write>
	#else
		//round up by default
		__ticks_dc = (uint32_t)(ceil(fabs(__tmp)));
	#endif

	__builtin_avr_delay_cycles(__ticks_dc);
     c6c:	80 e1       	ldi	r24, 0x10	; 16
     c6e:	8a 95       	dec	r24
     c70:	f1 f7       	brne	.-4      	; 0xc6e <adc_read+0x16>
     c72:	00 c0       	rjmp	.+0      	; 0xc74 <adc_read+0x1c>
	_delay_us(CONVERSION_DELAY);
	uint8_t result = xmem_read(adcMemArea);
     c74:	80 e0       	ldi	r24, 0x00	; 0
     c76:	94 e0       	ldi	r25, 0x04	; 4
     c78:	0e 94 f5 0e 	call	0x1dea	; 0x1dea <xmem_read>
     c7c:	90 e1       	ldi	r25, 0x10	; 16
     c7e:	9a 95       	dec	r25
     c80:	f1 f7       	brne	.-4      	; 0xc7e <adc_read+0x26>
     c82:	00 c0       	rjmp	.+0      	; 0xc84 <adc_read+0x2c>

	_delay_us(CONVERSION_DELAY);

	return result;
}
     c84:	90 e0       	ldi	r25, 0x00	; 0
     c86:	cf 91       	pop	r28
     c88:	08 95       	ret

00000c8a <can_init>:

static uint8_t buffer_number=0;


void can_init(){
    mcp_init();
     c8a:	0e 94 2a 0f 	call	0x1e54	; 0x1e54 <mcp_init>
	
	    //configure bit timing for the CAN bus interface?? CNF1, CNF2 and CNF3
	    //cnflags write cnf3, cnf2, cnf1. cnf3 first,
	    //
	mcp_write(MCP_CNF3, 0b00000001); //PS2 = 2Tq
     c8e:	61 e0       	ldi	r22, 0x01	; 1
     c90:	88 e2       	ldi	r24, 0x28	; 40
     c92:	0e 94 07 0f 	call	0x1e0e	; 0x1e0e <mcp_write>
	mcp_write(MCP_CNF2, 0b10110101); //Propagation segment length = prseg+1=6*Tq, PS1 = phseg+1=7*tq, length of PS" determined by PHSEG22: PHSEG20 bits of cn3
     c96:	65 eb       	ldi	r22, 0xB5	; 181
     c98:	89 e2       	ldi	r24, 0x29	; 41
     c9a:	0e 94 07 0f 	call	0x1e0e	; 0x1e0e <mcp_write>
	mcp_write(MCP_CNF1, 0b01000011); //brp=3, sjw=2*Tq
     c9e:	63 e4       	ldi	r22, 0x43	; 67
     ca0:	8a e2       	ldi	r24, 0x2A	; 42
     ca2:	0e 94 07 0f 	call	0x1e0e	; 0x1e0e <mcp_write>
	    


    //mcp_write(MCP_CANCTRL, MODE_LOOPBACK); //velge loopback mode //denne må vels 
	mcp_write(MCP_CANCTRL, MODE_NORMAL); // velge normal mode
     ca6:	60 e0       	ldi	r22, 0x00	; 0
     ca8:	8f e0       	ldi	r24, 0x0F	; 15
     caa:	0e 94 07 0f 	call	0x1e0e	; 0x1e0e <mcp_write>
   
    //enable interrupt for can on atmega
    cli();
     cae:	f8 94       	cli
	MCUCR |= (1 << ISC01);//table 44. falling edge generates interrupt request on INT0
     cb0:	85 b7       	in	r24, 0x35	; 53
     cb2:	82 60       	ori	r24, 0x02	; 2
     cb4:	85 bf       	out	0x35, r24	; 53
	MCUCR &= ~(1 << ISC00);//table 44. falling edge generates interrupt request on INT0
     cb6:	85 b7       	in	r24, 0x35	; 53
     cb8:	8e 7f       	andi	r24, 0xFE	; 254
     cba:	85 bf       	out	0x35, r24	; 53
	GICR |= (1 << INT0);//enable interupt on INT0/PD2
     cbc:	8b b7       	in	r24, 0x3b	; 59
     cbe:	80 64       	ori	r24, 0x40	; 64
     cc0:	8b bf       	out	0x3b, r24	; 59
// 	GICR &= ~(1<<INT2);
// 	EMCUCR &= ~(1<<ISC2);
// 	GIFR |= (1<<INTF2);
// 	GICR |= (1<<INT2); 
	
	sei();
     cc2:	78 94       	sei




    //enable recive intterupts for mcp2515. page 51 in mcp2515
    mcp_write(MCP_CANINTE, MCP_RX_INT);
     cc4:	63 e0       	ldi	r22, 0x03	; 3
     cc6:	8b e2       	ldi	r24, 0x2B	; 43
     cc8:	0e 94 07 0f 	call	0x1e0e	; 0x1e0e <mcp_write>
     ccc:	08 95       	ret

00000cce <can_send_message>:





void can_send_message(can_message *msg){
     cce:	ff 92       	push	r15
     cd0:	0f 93       	push	r16
     cd2:	1f 93       	push	r17
     cd4:	cf 93       	push	r28
     cd6:	df 93       	push	r29
     cd8:	ec 01       	movw	r28, r24
    //data length:TXBnDLC 
    //data: TXBnDm

    //setup//

    uint8_t id_high=(msg->id)/8; //ikke de tre siste bittene
     cda:	08 81       	ld	r16, Y
     cdc:	19 81       	ldd	r17, Y+1	; 0x01
    uint8_t id_low=((msg->id)%8)*32; //de tre siste bittene shiftet 5 plasser til venstre
    mcp_write(TXBnSIDH + 16 * buffer_number, id_high); //0x31  see register 3-3
     cde:	b8 01       	movw	r22, r16
     ce0:	76 95       	lsr	r23
     ce2:	67 95       	ror	r22
     ce4:	76 95       	lsr	r23
     ce6:	67 95       	ror	r22
     ce8:	76 95       	lsr	r23
     cea:	67 95       	ror	r22
     cec:	81 e3       	ldi	r24, 0x31	; 49
     cee:	0e 94 07 0f 	call	0x1e0e	; 0x1e0e <mcp_write>
	mcp_write(TXBnSIDL + 16 * buffer_number, id_low);  //0x32
     cf2:	60 2f       	mov	r22, r16
     cf4:	62 95       	swap	r22
     cf6:	66 0f       	add	r22, r22
     cf8:	60 7e       	andi	r22, 0xE0	; 224
     cfa:	82 e3       	ldi	r24, 0x32	; 50
     cfc:	0e 94 07 0f 	call	0x1e0e	; 0x1e0e <mcp_write>

    uint8_t length=(msg->length); // tallet kan ikke være større enn 0xb00001111 //den er slik man gjør det med &?
     d00:	fa 80       	ldd	r15, Y+2	; 0x02
    mcp_write(TXBnDLC + 16 *buffer_number, (length & 0b1111)); //see register 3-7
     d02:	6f 2d       	mov	r22, r15
     d04:	6f 70       	andi	r22, 0x0F	; 15
     d06:	85 e3       	ldi	r24, 0x35	; 53
     d08:	0e 94 07 0f 	call	0x1e0e	; 0x1e0e <mcp_write>


    for(uint8_t m=0; m<length;m++){
     d0c:	ff 20       	and	r15, r15
     d0e:	79 f0       	breq	.+30     	; 0xd2e <can_send_message+0x60>
     d10:	8e 01       	movw	r16, r28
     d12:	0d 5f       	subi	r16, 0xFD	; 253
     d14:	1f 4f       	sbci	r17, 0xFF	; 255
     d16:	d6 e3       	ldi	r29, 0x36	; 54
     d18:	df 0d       	add	r29, r15
     d1a:	c6 e3       	ldi	r28, 0x36	; 54
        mcp_write(TXBnDm+m+16*buffer_number,msg->data[m]); //see register 3-8
     d1c:	f8 01       	movw	r30, r16
     d1e:	61 91       	ld	r22, Z+
     d20:	8f 01       	movw	r16, r30
     d22:	8c 2f       	mov	r24, r28
     d24:	0e 94 07 0f 	call	0x1e0e	; 0x1e0e <mcp_write>
     d28:	cf 5f       	subi	r28, 0xFF	; 255

    uint8_t length=(msg->length); // tallet kan ikke være større enn 0xb00001111 //den er slik man gjør det med &?
    mcp_write(TXBnDLC + 16 *buffer_number, (length & 0b1111)); //see register 3-7


    for(uint8_t m=0; m<length;m++){
     d2a:	cd 13       	cpse	r28, r29
     d2c:	f7 cf       	rjmp	.-18     	; 0xd1c <can_send_message+0x4e>
        mcp_write(TXBnDm+m+16*buffer_number,msg->data[m]); //see register 3-8
    }

    //send message//
    mcp_req_to_send(MCP_RTS_TX0 + buffer_number);
     d2e:	81 e8       	ldi	r24, 0x81	; 129
     d30:	0e 94 19 0f 	call	0x1e32	; 0x1e32 <mcp_req_to_send>
}
     d34:	df 91       	pop	r29
     d36:	cf 91       	pop	r28
     d38:	1f 91       	pop	r17
     d3a:	0f 91       	pop	r16
     d3c:	ff 90       	pop	r15
     d3e:	08 95       	ret

00000d40 <joystick_calibrate>:


volatile uint8_t x_offset;
volatile uint8_t y_offset;

void joystick_calibrate(){
     d40:	cf 92       	push	r12
     d42:	df 92       	push	r13
     d44:	ef 92       	push	r14
     d46:	ff 92       	push	r15
     d48:	0f 93       	push	r16
     d4a:	1f 93       	push	r17
     d4c:	cf 93       	push	r28
     d4e:	df 93       	push	r29
     d50:	cd b7       	in	r28, 0x3d	; 61
     d52:	de b7       	in	r29, 0x3e	; 62
     d54:	c0 59       	subi	r28, 0x90	; 144
     d56:	d1 40       	sbci	r29, 0x01	; 1
     d58:	0f b6       	in	r0, 0x3f	; 63
     d5a:	f8 94       	cli
     d5c:	de bf       	out	0x3e, r29	; 62
     d5e:	0f be       	out	0x3f, r0	; 63
     d60:	cd bf       	out	0x3d, r28	; 61
     d62:	8e 01       	movw	r16, r28
     d64:	07 53       	subi	r16, 0x37	; 55
     d66:	1f 4f       	sbci	r17, 0xFF	; 255
     d68:	ce 01       	movw	r24, r28
     d6a:	01 96       	adiw	r24, 0x01	; 1
     d6c:	7c 01       	movw	r14, r24
     d6e:	6e 01       	movw	r12, r28
     d70:	9f e6       	ldi	r25, 0x6F	; 111
     d72:	c9 1a       	sub	r12, r25
     d74:	9e ef       	ldi	r25, 0xFE	; 254
     d76:	d9 0a       	sbc	r13, r25
	int n=100,arrx[n],arry[n];
	for(int i = 0;i < n;i++) {
		arrx[i]=adc_read(1);
     d78:	81 e0       	ldi	r24, 0x01	; 1
     d7a:	90 e0       	ldi	r25, 0x00	; 0
     d7c:	0e 94 2c 06 	call	0xc58	; 0xc58 <adc_read>
     d80:	f8 01       	movw	r30, r16
     d82:	81 93       	st	Z+, r24
     d84:	91 93       	st	Z+, r25
     d86:	8f 01       	movw	r16, r30
		arry[i]=adc_read(0);
     d88:	80 e0       	ldi	r24, 0x00	; 0
     d8a:	90 e0       	ldi	r25, 0x00	; 0
     d8c:	0e 94 2c 06 	call	0xc58	; 0xc58 <adc_read>
     d90:	f7 01       	movw	r30, r14
     d92:	81 93       	st	Z+, r24
     d94:	91 93       	st	Z+, r25
     d96:	7f 01       	movw	r14, r30
volatile uint8_t x_offset;
volatile uint8_t y_offset;

void joystick_calibrate(){
	int n=100,arrx[n],arry[n];
	for(int i = 0;i < n;i++) {
     d98:	0c 15       	cp	r16, r12
     d9a:	1d 05       	cpc	r17, r13
     d9c:	69 f7       	brne	.-38     	; 0xd78 <joystick_calibrate+0x38>
		arrx[i]=adc_read(1);
		arry[i]=adc_read(0);
	}
	
	x_offset = util_median(arrx,n);
     d9e:	64 e6       	ldi	r22, 0x64	; 100
     da0:	70 e0       	ldi	r23, 0x00	; 0
     da2:	ce 01       	movw	r24, r28
     da4:	87 53       	subi	r24, 0x37	; 55
     da6:	9f 4f       	sbci	r25, 0xFF	; 255
     da8:	0e 94 91 0f 	call	0x1f22	; 0x1f22 <util_median>
     dac:	80 93 e9 01 	sts	0x01E9, r24	; 0x8001e9 <x_offset>
	y_offset = util_median(arry,n);
     db0:	64 e6       	ldi	r22, 0x64	; 100
     db2:	70 e0       	ldi	r23, 0x00	; 0
     db4:	ce 01       	movw	r24, r28
     db6:	01 96       	adiw	r24, 0x01	; 1
     db8:	0e 94 91 0f 	call	0x1f22	; 0x1f22 <util_median>
     dbc:	80 93 e8 01 	sts	0x01E8, r24	; 0x8001e8 <y_offset>
}
     dc0:	c0 57       	subi	r28, 0x70	; 112
     dc2:	de 4f       	sbci	r29, 0xFE	; 254
     dc4:	0f b6       	in	r0, 0x3f	; 63
     dc6:	f8 94       	cli
     dc8:	de bf       	out	0x3e, r29	; 62
     dca:	0f be       	out	0x3f, r0	; 63
     dcc:	cd bf       	out	0x3d, r28	; 61
     dce:	df 91       	pop	r29
     dd0:	cf 91       	pop	r28
     dd2:	1f 91       	pop	r17
     dd4:	0f 91       	pop	r16
     dd6:	ff 90       	pop	r15
     dd8:	ef 90       	pop	r14
     dda:	df 90       	pop	r13
     ddc:	cf 90       	pop	r12
     dde:	08 95       	ret

00000de0 <joystick_getPosition>:

joystick_position joystick_getPosition(void){
     de0:	1f 93       	push	r17
     de2:	cf 93       	push	r28
     de4:	df 93       	push	r29
	joystick_position position;
	uint8_t x = adc_read(1);
     de6:	81 e0       	ldi	r24, 0x01	; 1
     de8:	90 e0       	ldi	r25, 0x00	; 0
     dea:	0e 94 2c 06 	call	0xc58	; 0xc58 <adc_read>
     dee:	ec 01       	movw	r28, r24
	uint8_t y = adc_read(0);
     df0:	80 e0       	ldi	r24, 0x00	; 0
     df2:	90 e0       	ldi	r25, 0x00	; 0
     df4:	0e 94 2c 06 	call	0xc58	; 0xc58 <adc_read>
     df8:	9c 01       	movw	r18, r24
     dfa:	48 2f       	mov	r20, r24

	if(x > x_offset){
     dfc:	80 91 e9 01 	lds	r24, 0x01E9	; 0x8001e9 <x_offset>
     e00:	8c 17       	cp	r24, r28
     e02:	a8 f4       	brcc	.+42     	; 0xe2e <joystick_getPosition+0x4e>
			position.x_pos = (int8_t)100*(x-x_offset)/(0xFF - x_offset);
     e04:	80 91 e9 01 	lds	r24, 0x01E9	; 0x8001e9 <x_offset>
     e08:	50 91 e9 01 	lds	r21, 0x01E9	; 0x8001e9 <x_offset>
     e0c:	dd 27       	eor	r29, r29
     e0e:	c8 1b       	sub	r28, r24
     e10:	d1 09       	sbc	r29, r1
     e12:	64 e6       	ldi	r22, 0x64	; 100
     e14:	6c 9f       	mul	r22, r28
     e16:	c0 01       	movw	r24, r0
     e18:	6d 9f       	mul	r22, r29
     e1a:	90 0d       	add	r25, r0
     e1c:	11 24       	eor	r1, r1
     e1e:	6f ef       	ldi	r22, 0xFF	; 255
     e20:	70 e0       	ldi	r23, 0x00	; 0
     e22:	65 1b       	sub	r22, r21
     e24:	71 09       	sbc	r23, r1
     e26:	0e 94 a9 0f 	call	0x1f52	; 0x1f52 <__divmodhi4>
     e2a:	fb 01       	movw	r30, r22
     e2c:	18 c0       	rjmp	.+48     	; 0xe5e <joystick_getPosition+0x7e>
	}
	else if (x < x_offset){
     e2e:	80 91 e9 01 	lds	r24, 0x01E9	; 0x8001e9 <x_offset>
     e32:	c8 17       	cp	r28, r24
     e34:	90 f4       	brcc	.+36     	; 0xe5a <joystick_getPosition+0x7a>
		position.x_pos = 100*(x-x_offset)/(x_offset - 0);
     e36:	80 91 e9 01 	lds	r24, 0x01E9	; 0x8001e9 <x_offset>
     e3a:	60 91 e9 01 	lds	r22, 0x01E9	; 0x8001e9 <x_offset>
     e3e:	dd 27       	eor	r29, r29
     e40:	c8 1b       	sub	r28, r24
     e42:	d1 09       	sbc	r29, r1
     e44:	54 e6       	ldi	r21, 0x64	; 100
     e46:	5c 9f       	mul	r21, r28
     e48:	c0 01       	movw	r24, r0
     e4a:	5d 9f       	mul	r21, r29
     e4c:	90 0d       	add	r25, r0
     e4e:	11 24       	eor	r1, r1
     e50:	70 e0       	ldi	r23, 0x00	; 0
     e52:	0e 94 a9 0f 	call	0x1f52	; 0x1f52 <__divmodhi4>
     e56:	fb 01       	movw	r30, r22
     e58:	02 c0       	rjmp	.+4      	; 0xe5e <joystick_getPosition+0x7e>
	}
	else {
		position.x_pos = 0;
     e5a:	e0 e0       	ldi	r30, 0x00	; 0
     e5c:	f0 e0       	ldi	r31, 0x00	; 0
	}

	if(y > y_offset){
     e5e:	80 91 e8 01 	lds	r24, 0x01E8	; 0x8001e8 <y_offset>
     e62:	84 17       	cp	r24, r20
     e64:	a8 f4       	brcc	.+42     	; 0xe90 <joystick_getPosition+0xb0>
		position.y_pos = 100*(y-y_offset)/(0xFF - y_offset);
     e66:	80 91 e8 01 	lds	r24, 0x01E8	; 0x8001e8 <y_offset>
     e6a:	40 91 e8 01 	lds	r20, 0x01E8	; 0x8001e8 <y_offset>
     e6e:	33 27       	eor	r19, r19
     e70:	28 1b       	sub	r18, r24
     e72:	31 09       	sbc	r19, r1
     e74:	54 e6       	ldi	r21, 0x64	; 100
     e76:	52 9f       	mul	r21, r18
     e78:	c0 01       	movw	r24, r0
     e7a:	53 9f       	mul	r21, r19
     e7c:	90 0d       	add	r25, r0
     e7e:	11 24       	eor	r1, r1
     e80:	6f ef       	ldi	r22, 0xFF	; 255
     e82:	70 e0       	ldi	r23, 0x00	; 0
     e84:	64 1b       	sub	r22, r20
     e86:	71 09       	sbc	r23, r1
     e88:	0e 94 a9 0f 	call	0x1f52	; 0x1f52 <__divmodhi4>
     e8c:	9b 01       	movw	r18, r22
     e8e:	18 c0       	rjmp	.+48     	; 0xec0 <joystick_getPosition+0xe0>
	}
	else if (y < y_offset){
     e90:	80 91 e8 01 	lds	r24, 0x01E8	; 0x8001e8 <y_offset>
     e94:	48 17       	cp	r20, r24
     e96:	90 f4       	brcc	.+36     	; 0xebc <joystick_getPosition+0xdc>
		position.y_pos = 100*(y-y_offset)/(y_offset - 0);
     e98:	80 91 e8 01 	lds	r24, 0x01E8	; 0x8001e8 <y_offset>
     e9c:	60 91 e8 01 	lds	r22, 0x01E8	; 0x8001e8 <y_offset>
     ea0:	33 27       	eor	r19, r19
     ea2:	28 1b       	sub	r18, r24
     ea4:	31 09       	sbc	r19, r1
     ea6:	44 e6       	ldi	r20, 0x64	; 100
     ea8:	42 9f       	mul	r20, r18
     eaa:	c0 01       	movw	r24, r0
     eac:	43 9f       	mul	r20, r19
     eae:	90 0d       	add	r25, r0
     eb0:	11 24       	eor	r1, r1
     eb2:	70 e0       	ldi	r23, 0x00	; 0
     eb4:	0e 94 a9 0f 	call	0x1f52	; 0x1f52 <__divmodhi4>
     eb8:	9b 01       	movw	r18, r22
     eba:	02 c0       	rjmp	.+4      	; 0xec0 <joystick_getPosition+0xe0>
	}
	else {
		position.y_pos = 0;
     ebc:	20 e0       	ldi	r18, 0x00	; 0
     ebe:	30 e0       	ldi	r19, 0x00	; 0
	}
	
	return position;
     ec0:	bf 01       	movw	r22, r30
     ec2:	c9 01       	movw	r24, r18
}
     ec4:	df 91       	pop	r29
     ec6:	cf 91       	pop	r28
     ec8:	1f 91       	pop	r17
     eca:	08 95       	ret

00000ecc <joystick_getDirection>:

joystick_direction joystick_getDirection(void){
	//enums LEFT = 0, RIGHT = 1, DOWN = 2, UP = 3, NEUTRAL = 4
	joystick_position position;

	position = joystick_getPosition();
     ecc:	0e 94 f0 06 	call	0xde0	; 0xde0 <joystick_getPosition>
	
	if(position.x_pos < -50){
     ed0:	6e 3c       	cpi	r22, 0xCE	; 206
     ed2:	ef ef       	ldi	r30, 0xFF	; 255
     ed4:	7e 07       	cpc	r23, r30
     ed6:	84 f0       	brlt	.+32     	; 0xef8 <joystick_getDirection+0x2c>
		return LEFT;
	}
	else if(position.x_pos > 50){
     ed8:	63 33       	cpi	r22, 0x33	; 51
     eda:	71 05       	cpc	r23, r1
     edc:	7c f4       	brge	.+30     	; 0xefc <joystick_getDirection+0x30>
		return RIGHT;	
	}

	if(position.y_pos < -50){
     ede:	8e 3c       	cpi	r24, 0xCE	; 206
     ee0:	2f ef       	ldi	r18, 0xFF	; 255
     ee2:	92 07       	cpc	r25, r18
     ee4:	6c f0       	brlt	.+26     	; 0xf00 <joystick_getDirection+0x34>
		return DOWN;
	}
	else if(position.y_pos > 50){
     ee6:	c3 97       	sbiw	r24, 0x33	; 51
     ee8:	6c f4       	brge	.+26     	; 0xf04 <joystick_getDirection+0x38>
		return UP;
	}
	
	if(position.x_pos <= 50 && position.x_pos >= -50 && position.y_pos <= 50 && position.y_pos >= -50){
     eea:	6e 5c       	subi	r22, 0xCE	; 206
     eec:	7f 4f       	sbci	r23, 0xFF	; 255
     eee:	65 36       	cpi	r22, 0x65	; 101
     ef0:	71 05       	cpc	r23, r1
     ef2:	50 f0       	brcs	.+20     	; 0xf08 <joystick_getDirection+0x3c>
		return NEUTRAL;
	}
	return 0;
     ef4:	80 e0       	ldi	r24, 0x00	; 0
     ef6:	08 95       	ret
	joystick_position position;

	position = joystick_getPosition();
	
	if(position.x_pos < -50){
		return LEFT;
     ef8:	80 e0       	ldi	r24, 0x00	; 0
     efa:	08 95       	ret
	}
	else if(position.x_pos > 50){
		return RIGHT;	
     efc:	81 e0       	ldi	r24, 0x01	; 1
     efe:	08 95       	ret
	}

	if(position.y_pos < -50){
		return DOWN;
     f00:	82 e0       	ldi	r24, 0x02	; 2
     f02:	08 95       	ret
	}
	else if(position.y_pos > 50){
		return UP;
     f04:	83 e0       	ldi	r24, 0x03	; 3
     f06:	08 95       	ret
	}
	
	if(position.x_pos <= 50 && position.x_pos >= -50 && position.y_pos <= 50 && position.y_pos >= -50){
		return NEUTRAL;
     f08:	84 e0       	ldi	r24, 0x04	; 4
	}
	return 0;
}
     f0a:	08 95       	ret

00000f0c <joystick_sendPositionButtonCan>:

void joystick_sendPositionButtonCan(joystick_position pos){
     f0c:	cf 93       	push	r28
     f0e:	df 93       	push	r29
     f10:	cd b7       	in	r28, 0x3d	; 61
     f12:	de b7       	in	r29, 0x3e	; 62
     f14:	2b 97       	sbiw	r28, 0x0b	; 11
     f16:	0f b6       	in	r0, 0x3f	; 63
     f18:	f8 94       	cli
     f1a:	de bf       	out	0x3e, r29	; 62
     f1c:	0f be       	out	0x3f, r0	; 63
     f1e:	cd bf       	out	0x3d, r28	; 61
	can_message msg;
	msg.id=1;
     f20:	21 e0       	ldi	r18, 0x01	; 1
     f22:	30 e0       	ldi	r19, 0x00	; 0
     f24:	3a 83       	std	Y+2, r19	; 0x02
     f26:	29 83       	std	Y+1, r18	; 0x01
	msg.length=3;
     f28:	93 e0       	ldi	r25, 0x03	; 3
     f2a:	9b 83       	std	Y+3, r25	; 0x03
	//joy_pos
	msg.data[0] = (char)pos.x_pos;
     f2c:	6c 83       	std	Y+4, r22	; 0x04
	msg.data[1] = (char)pos.y_pos;
     f2e:	8d 83       	std	Y+5, r24	; 0x05
	
	//button
	msg.data[2]=(char)(PINB & (1<<0));//leser fra logisk verdi fra PB1
     f30:	86 b3       	in	r24, 0x16	; 22
     f32:	81 70       	andi	r24, 0x01	; 1
     f34:	8e 83       	std	Y+6, r24	; 0x06
	printf("Button value: %d \n\r", msg.data[2]);
     f36:	1f 92       	push	r1
     f38:	8f 93       	push	r24
     f3a:	8c e0       	ldi	r24, 0x0C	; 12
     f3c:	91 e0       	ldi	r25, 0x01	; 1
     f3e:	9f 93       	push	r25
     f40:	8f 93       	push	r24
     f42:	0e 94 1e 12 	call	0x243c	; 0x243c <printf>
	
	
	can_send_message(&msg);
     f46:	ce 01       	movw	r24, r28
     f48:	01 96       	adiw	r24, 0x01	; 1
     f4a:	0e 94 67 06 	call	0xcce	; 0xcce <can_send_message>
	//enums LEFT = 0, RIGHT = 1, DOWN = 2, UP = 3, NEUTRAL = 4

     f4e:	0f 90       	pop	r0
     f50:	0f 90       	pop	r0
     f52:	0f 90       	pop	r0
     f54:	0f 90       	pop	r0
     f56:	2b 96       	adiw	r28, 0x0b	; 11
     f58:	0f b6       	in	r0, 0x3f	; 63
     f5a:	f8 94       	cli
     f5c:	de bf       	out	0x3e, r29	; 62
     f5e:	0f be       	out	0x3f, r0	; 63
     f60:	cd bf       	out	0x3d, r28	; 61
     f62:	df 91       	pop	r29
     f64:	cf 91       	pop	r28
     f66:	08 95       	ret

00000f68 <f_2player>:
			}
		break;
	}	
}

void f_2player(){
     f68:	ef 92       	push	r14
     f6a:	ff 92       	push	r15
     f6c:	1f 93       	push	r17
     f6e:	cf 93       	push	r28
     f70:	df 93       	push	r29
     f72:	cd b7       	in	r28, 0x3d	; 61
     f74:	de b7       	in	r29, 0x3e	; 62
     f76:	60 97       	sbiw	r28, 0x10	; 16
     f78:	0f b6       	in	r0, 0x3f	; 63
     f7a:	f8 94       	cli
     f7c:	de bf       	out	0x3e, r29	; 62
     f7e:	0f be       	out	0x3f, r0	; 63
     f80:	cd bf       	out	0x3d, r28	; 61
	oled_reset();
     f82:	0e 94 1f 0c 	call	0x183e	; 0x183e <oled_reset>
     f86:	0f 2e       	mov	r0, r31
     f88:	f0 ea       	ldi	r31, 0xA0	; 160
     f8a:	ef 2e       	mov	r14, r31
     f8c:	f0 e0       	ldi	r31, 0x00	; 0
     f8e:	ff 2e       	mov	r15, r31
     f90:	f0 2d       	mov	r31, r0
	char buffer[16];
	for(unsigned char i=0; i<8; i++){
     f92:	10 e0       	ldi	r17, 0x00	; 0
		oled_goto_page(i);
     f94:	81 2f       	mov	r24, r17
     f96:	0e 94 9c 0b 	call	0x1738	; 0x1738 <oled_goto_page>
		strcpy_P(buffer,(PGM_P)pgm_read_word(&table[i+s_p2]));
     f9a:	f7 01       	movw	r30, r14
     f9c:	65 91       	lpm	r22, Z+
     f9e:	74 91       	lpm	r23, Z
     fa0:	ce 01       	movw	r24, r28
     fa2:	01 96       	adiw	r24, 0x01	; 1
     fa4:	0e 94 b8 11 	call	0x2370	; 0x2370 <strcpy_P>
		oled_center_print(buffer,8);
     fa8:	68 e0       	ldi	r22, 0x08	; 8
     faa:	70 e0       	ldi	r23, 0x00	; 0
     fac:	ce 01       	movw	r24, r28
     fae:	01 96       	adiw	r24, 0x01	; 1
     fb0:	0e 94 16 0d 	call	0x1a2c	; 0x1a2c <oled_center_print>
}

void f_2player(){
	oled_reset();
	char buffer[16];
	for(unsigned char i=0; i<8; i++){
     fb4:	1f 5f       	subi	r17, 0xFF	; 255
     fb6:	82 e0       	ldi	r24, 0x02	; 2
     fb8:	e8 0e       	add	r14, r24
     fba:	f1 1c       	adc	r15, r1
     fbc:	18 30       	cpi	r17, 0x08	; 8
     fbe:	51 f7       	brne	.-44     	; 0xf94 <f_2player+0x2c>
		oled_goto_page(i);
		strcpy_P(buffer,(PGM_P)pgm_read_word(&table[i+s_p2]));
		oled_center_print(buffer,8);
	}
}
     fc0:	60 96       	adiw	r28, 0x10	; 16
     fc2:	0f b6       	in	r0, 0x3f	; 63
     fc4:	f8 94       	cli
     fc6:	de bf       	out	0x3e, r29	; 62
     fc8:	0f be       	out	0x3f, r0	; 63
     fca:	cd bf       	out	0x3d, r28	; 61
     fcc:	df 91       	pop	r29
     fce:	cf 91       	pop	r28
     fd0:	1f 91       	pop	r17
     fd2:	ff 90       	pop	r15
     fd4:	ef 90       	pop	r14
     fd6:	08 95       	ret

00000fd8 <f_controller>:

void f_controller(){
     fd8:	ef 92       	push	r14
     fda:	ff 92       	push	r15
     fdc:	1f 93       	push	r17
     fde:	cf 93       	push	r28
     fe0:	df 93       	push	r29
     fe2:	cd b7       	in	r28, 0x3d	; 61
     fe4:	de b7       	in	r29, 0x3e	; 62
     fe6:	60 97       	sbiw	r28, 0x10	; 16
     fe8:	0f b6       	in	r0, 0x3f	; 63
     fea:	f8 94       	cli
     fec:	de bf       	out	0x3e, r29	; 62
     fee:	0f be       	out	0x3f, r0	; 63
     ff0:	cd bf       	out	0x3d, r28	; 61
	oled_reset();
     ff2:	0e 94 1f 0c 	call	0x183e	; 0x183e <oled_reset>
     ff6:	0f 2e       	mov	r0, r31
     ff8:	f0 eb       	ldi	r31, 0xB0	; 176
     ffa:	ef 2e       	mov	r14, r31
     ffc:	f0 e0       	ldi	r31, 0x00	; 0
     ffe:	ff 2e       	mov	r15, r31
    1000:	f0 2d       	mov	r31, r0
	char buffer[16];
	for(unsigned char i=0; i<8; i++){
    1002:	10 e0       	ldi	r17, 0x00	; 0
		oled_goto_page(i);
    1004:	81 2f       	mov	r24, r17
    1006:	0e 94 9c 0b 	call	0x1738	; 0x1738 <oled_goto_page>
		strcpy_P(buffer,(PGM_P)pgm_read_word(&table[i+s_controller]));
    100a:	f7 01       	movw	r30, r14
    100c:	65 91       	lpm	r22, Z+
    100e:	74 91       	lpm	r23, Z
    1010:	ce 01       	movw	r24, r28
    1012:	01 96       	adiw	r24, 0x01	; 1
    1014:	0e 94 b8 11 	call	0x2370	; 0x2370 <strcpy_P>
		oled_center_print(buffer,8);
    1018:	68 e0       	ldi	r22, 0x08	; 8
    101a:	70 e0       	ldi	r23, 0x00	; 0
    101c:	ce 01       	movw	r24, r28
    101e:	01 96       	adiw	r24, 0x01	; 1
    1020:	0e 94 16 0d 	call	0x1a2c	; 0x1a2c <oled_center_print>
}

void f_controller(){
	oled_reset();
	char buffer[16];
	for(unsigned char i=0; i<8; i++){
    1024:	1f 5f       	subi	r17, 0xFF	; 255
    1026:	82 e0       	ldi	r24, 0x02	; 2
    1028:	e8 0e       	add	r14, r24
    102a:	f1 1c       	adc	r15, r1
    102c:	18 30       	cpi	r17, 0x08	; 8
    102e:	51 f7       	brne	.-44     	; 0x1004 <f_controller+0x2c>
		oled_goto_page(i);
		strcpy_P(buffer,(PGM_P)pgm_read_word(&table[i+s_controller]));
		oled_center_print(buffer,8);
	}
		oled_goto_page(header_pages);
    1030:	82 e0       	ldi	r24, 0x02	; 2
    1032:	0e 94 9c 0b 	call	0x1738	; 0x1738 <oled_goto_page>
		strcpy_P(buffer,(PGM_P)pgm_read_word(&table[s_controllerP+header_pages]));
    1036:	e4 ec       	ldi	r30, 0xC4	; 196
    1038:	f0 e0       	ldi	r31, 0x00	; 0
    103a:	65 91       	lpm	r22, Z+
    103c:	74 91       	lpm	r23, Z
    103e:	ce 01       	movw	r24, r28
    1040:	01 96       	adiw	r24, 0x01	; 1
    1042:	0e 94 b8 11 	call	0x2370	; 0x2370 <strcpy_P>
		oled_center_print(buffer,8);
    1046:	68 e0       	ldi	r22, 0x08	; 8
    1048:	70 e0       	ldi	r23, 0x00	; 0
    104a:	ce 01       	movw	r24, r28
    104c:	01 96       	adiw	r24, 0x01	; 1
    104e:	0e 94 16 0d 	call	0x1a2c	; 0x1a2c <oled_center_print>

}
    1052:	60 96       	adiw	r28, 0x10	; 16
    1054:	0f b6       	in	r0, 0x3f	; 63
    1056:	f8 94       	cli
    1058:	de bf       	out	0x3e, r29	; 62
    105a:	0f be       	out	0x3f, r0	; 63
    105c:	cd bf       	out	0x3d, r28	; 61
    105e:	df 91       	pop	r29
    1060:	cf 91       	pop	r28
    1062:	1f 91       	pop	r17
    1064:	ff 90       	pop	r15
    1066:	ef 90       	pop	r14
    1068:	08 95       	ret

0000106a <f_1player>:
	
	return new_submenu;
}


void f_1player(){
    106a:	cf 93       	push	r28
    106c:	df 93       	push	r29
    106e:	cd b7       	in	r28, 0x3d	; 61
    1070:	de b7       	in	r29, 0x3e	; 62
    1072:	6b 97       	sbiw	r28, 0x1b	; 27
    1074:	0f b6       	in	r0, 0x3f	; 63
    1076:	f8 94       	cli
    1078:	de bf       	out	0x3e, r29	; 62
    107a:	0f be       	out	0x3f, r0	; 63
    107c:	cd bf       	out	0x3d, r28	; 61
	oled_reset();
    107e:	0e 94 1f 0c 	call	0x183e	; 0x183e <oled_reset>
    1082:	0f 2e       	mov	r0, r31
    1084:	f0 e9       	ldi	r31, 0x90	; 144
    1086:	ef 2e       	mov	r14, r31
    1088:	f0 e0       	ldi	r31, 0x00	; 0
    108a:	ff 2e       	mov	r15, r31
    108c:	f0 2d       	mov	r31, r0
	char buffer[16];
	for(unsigned char i=0; i<8; i++){
    108e:	10 e0       	ldi	r17, 0x00	; 0
		oled_goto_page(i);
    1090:	81 2f       	mov	r24, r17
    1092:	0e 94 9c 0b 	call	0x1738	; 0x1738 <oled_goto_page>
		strcpy_P(buffer,(PGM_P)pgm_read_word(&table[i+s_p1]));
    1096:	f7 01       	movw	r30, r14
    1098:	65 91       	lpm	r22, Z+
    109a:	74 91       	lpm	r23, Z
    109c:	ce 01       	movw	r24, r28
    109e:	01 96       	adiw	r24, 0x01	; 1
    10a0:	0e 94 b8 11 	call	0x2370	; 0x2370 <strcpy_P>
		oled_center_print(buffer,8);	
    10a4:	68 e0       	ldi	r22, 0x08	; 8
    10a6:	70 e0       	ldi	r23, 0x00	; 0
    10a8:	ce 01       	movw	r24, r28
    10aa:	01 96       	adiw	r24, 0x01	; 1
    10ac:	0e 94 16 0d 	call	0x1a2c	; 0x1a2c <oled_center_print>


void f_1player(){
	oled_reset();
	char buffer[16];
	for(unsigned char i=0; i<8; i++){
    10b0:	1f 5f       	subi	r17, 0xFF	; 255
    10b2:	82 e0       	ldi	r24, 0x02	; 2
    10b4:	e8 0e       	add	r14, r24
    10b6:	f1 1c       	adc	r15, r1
    10b8:	18 30       	cpi	r17, 0x08	; 8
    10ba:	51 f7       	brne	.-44     	; 0x1090 <f_1player+0x26>
		oled_goto_page(i);
		strcpy_P(buffer,(PGM_P)pgm_read_word(&table[i+s_p1]));
		oled_center_print(buffer,8);	
	}
	while(!(PINB & (1<<0))){ //
    10bc:	b0 9b       	sbis	0x16, 0	; 22
    10be:	fe cf       	rjmp	.-4      	; 0x10bc <f_1player+0x52>
	}
		can_message msg;
		msg.id=1;
    10c0:	81 e0       	ldi	r24, 0x01	; 1
    10c2:	90 e0       	ldi	r25, 0x00	; 0
    10c4:	9a 8b       	std	Y+18, r25	; 0x12
    10c6:	89 8b       	std	Y+17, r24	; 0x11
		msg.length=3;
    10c8:	83 e0       	ldi	r24, 0x03	; 3
    10ca:	8b 8b       	std	Y+19, r24	; 0x13
		msg.data[2]=(char)(PINB & (1<<0));
    10cc:	86 b3       	in	r24, 0x16	; 22
    10ce:	81 70       	andi	r24, 0x01	; 1
    10d0:	8e 8b       	std	Y+22, r24	; 0x16
		can_send_message(&msg);
    10d2:	ce 01       	movw	r24, r28
    10d4:	41 96       	adiw	r24, 0x11	; 17
    10d6:	0e 94 67 06 	call	0xcce	; 0xcce <can_send_message>
		
		//start timer
	
					printf("JOYSTIadasdasasdT");		
    10da:	80 e2       	ldi	r24, 0x20	; 32
    10dc:	91 e0       	ldi	r25, 0x01	; 1
    10de:	9f 93       	push	r25
    10e0:	8f 93       	push	r24
    10e2:	0e 94 1e 12 	call	0x243c	; 0x243c <printf>
    10e6:	0f 90       	pop	r0
    10e8:	0f 90       	pop	r0
	switch(ctrl){
		case JOYSTICK:

		//starter counter
			while (1){ //stopper n?r snor treffes			
				joystick_sendPositionButtonCan(joystick_getPosition());
    10ea:	0e 94 f0 06 	call	0xde0	; 0xde0 <joystick_getPosition>
    10ee:	0e 94 86 07 	call	0xf0c	; 0xf0c <joystick_sendPositionButtonCan>
    10f2:	fb cf       	rjmp	.-10     	; 0x10ea <f_1player+0x80>

000010f4 <f_joystick>:
		strcpy_P(buffer,(PGM_P)pgm_read_word(&table[s_controllerP+header_pages]));
		oled_center_print(buffer,8);

}

void f_joystick(){
    10f4:	ef 92       	push	r14
    10f6:	ff 92       	push	r15
    10f8:	1f 93       	push	r17
    10fa:	cf 93       	push	r28
    10fc:	df 93       	push	r29
    10fe:	cd b7       	in	r28, 0x3d	; 61
    1100:	de b7       	in	r29, 0x3e	; 62
    1102:	60 97       	sbiw	r28, 0x10	; 16
    1104:	0f b6       	in	r0, 0x3f	; 63
    1106:	f8 94       	cli
    1108:	de bf       	out	0x3e, r29	; 62
    110a:	0f be       	out	0x3f, r0	; 63
    110c:	cd bf       	out	0x3d, r28	; 61
	oled_reset();
    110e:	0e 94 1f 0c 	call	0x183e	; 0x183e <oled_reset>
    1112:	0f 2e       	mov	r0, r31
    1114:	f0 ed       	ldi	r31, 0xD0	; 208
    1116:	ef 2e       	mov	r14, r31
    1118:	f0 e0       	ldi	r31, 0x00	; 0
    111a:	ff 2e       	mov	r15, r31
    111c:	f0 2d       	mov	r31, r0
	char buffer[16];
	for(unsigned char i=0; i<8; i++){
    111e:	10 e0       	ldi	r17, 0x00	; 0
		oled_goto_page(i);
    1120:	81 2f       	mov	r24, r17
    1122:	0e 94 9c 0b 	call	0x1738	; 0x1738 <oled_goto_page>
		strcpy_P(buffer,(PGM_P)pgm_read_word(&table[i+s_joystick]));
    1126:	f7 01       	movw	r30, r14
    1128:	65 91       	lpm	r22, Z+
    112a:	74 91       	lpm	r23, Z
    112c:	ce 01       	movw	r24, r28
    112e:	01 96       	adiw	r24, 0x01	; 1
    1130:	0e 94 b8 11 	call	0x2370	; 0x2370 <strcpy_P>
		oled_center_print(buffer,8);
    1134:	68 e0       	ldi	r22, 0x08	; 8
    1136:	70 e0       	ldi	r23, 0x00	; 0
    1138:	ce 01       	movw	r24, r28
    113a:	01 96       	adiw	r24, 0x01	; 1
    113c:	0e 94 16 0d 	call	0x1a2c	; 0x1a2c <oled_center_print>
}

void f_joystick(){
	oled_reset();
	char buffer[16];
	for(unsigned char i=0; i<8; i++){
    1140:	1f 5f       	subi	r17, 0xFF	; 255
    1142:	22 e0       	ldi	r18, 0x02	; 2
    1144:	e2 0e       	add	r14, r18
    1146:	f1 1c       	adc	r15, r1
    1148:	18 30       	cpi	r17, 0x08	; 8
    114a:	51 f7       	brne	.-44     	; 0x1120 <f_joystick+0x2c>
	#else
		//round up by default
		__ticks_dc = (uint32_t)(ceil(fabs(__tmp)));
	#endif

	__builtin_avr_delay_cycles(__ticks_dc);
    114c:	8f ef       	ldi	r24, 0xFF	; 255
    114e:	93 ed       	ldi	r25, 0xD3	; 211
    1150:	20 e3       	ldi	r18, 0x30	; 48
    1152:	81 50       	subi	r24, 0x01	; 1
    1154:	90 40       	sbci	r25, 0x00	; 0
    1156:	20 40       	sbci	r18, 0x00	; 0
    1158:	e1 f7       	brne	.-8      	; 0x1152 <f_joystick+0x5e>
    115a:	00 c0       	rjmp	.+0      	; 0x115c <f_joystick+0x68>
    115c:	00 00       	nop
		oled_center_print(buffer,8);
	}
	controller ctrl = JOYSTICK;
	_delay_ms(1000);
	
	curr_menu=main_menu;
    115e:	a0 91 ee 01 	lds	r26, 0x01EE	; 0x8001ee <main_menu>
    1162:	b0 91 ef 01 	lds	r27, 0x01EF	; 0x8001ef <main_menu+0x1>
    1166:	b0 93 df 01 	sts	0x01DF, r27	; 0x8001df <__data_end+0x1>
    116a:	a0 93 de 01 	sts	0x01DE, r26	; 0x8001de <__data_end>
	pos_child=0;
    116e:	10 92 e1 01 	sts	0x01E1, r1	; 0x8001e1 <pos_child+0x1>
    1172:	10 92 e0 01 	sts	0x01E0, r1	; 0x8001e0 <pos_child>
	(*curr_menu->function)(main_menu->name);
    1176:	12 96       	adiw	r26, 0x02	; 2
    1178:	ed 91       	ld	r30, X+
    117a:	fc 91       	ld	r31, X
    117c:	13 97       	sbiw	r26, 0x03	; 3
    117e:	1a 96       	adiw	r26, 0x0a	; 10
    1180:	8d 91       	ld	r24, X+
    1182:	9c 91       	ld	r25, X
    1184:	1b 97       	sbiw	r26, 0x0b	; 11
    1186:	09 95       	icall
		
	
}
    1188:	60 96       	adiw	r28, 0x10	; 16
    118a:	0f b6       	in	r0, 0x3f	; 63
    118c:	f8 94       	cli
    118e:	de bf       	out	0x3e, r29	; 62
    1190:	0f be       	out	0x3f, r0	; 63
    1192:	cd bf       	out	0x3d, r28	; 61
    1194:	df 91       	pop	r29
    1196:	cf 91       	pop	r28
    1198:	1f 91       	pop	r17
    119a:	ff 90       	pop	r15
    119c:	ef 90       	pop	r14
    119e:	08 95       	ret

000011a0 <f_slider>:
void f_slider(){
    11a0:	ef 92       	push	r14
    11a2:	ff 92       	push	r15
    11a4:	1f 93       	push	r17
    11a6:	cf 93       	push	r28
    11a8:	df 93       	push	r29
    11aa:	cd b7       	in	r28, 0x3d	; 61
    11ac:	de b7       	in	r29, 0x3e	; 62
    11ae:	60 97       	sbiw	r28, 0x10	; 16
    11b0:	0f b6       	in	r0, 0x3f	; 63
    11b2:	f8 94       	cli
    11b4:	de bf       	out	0x3e, r29	; 62
    11b6:	0f be       	out	0x3f, r0	; 63
    11b8:	cd bf       	out	0x3d, r28	; 61
	oled_reset();
    11ba:	0e 94 1f 0c 	call	0x183e	; 0x183e <oled_reset>
    11be:	0f 2e       	mov	r0, r31
    11c0:	f0 ee       	ldi	r31, 0xE0	; 224
    11c2:	ef 2e       	mov	r14, r31
    11c4:	f0 e0       	ldi	r31, 0x00	; 0
    11c6:	ff 2e       	mov	r15, r31
    11c8:	f0 2d       	mov	r31, r0
	char buffer[16];
	for(unsigned char i=0; i<8; i++){
    11ca:	10 e0       	ldi	r17, 0x00	; 0
		oled_goto_page(i);
    11cc:	81 2f       	mov	r24, r17
    11ce:	0e 94 9c 0b 	call	0x1738	; 0x1738 <oled_goto_page>
		strcpy_P(buffer,(PGM_P)pgm_read_word(&table[i+s_slider]));
    11d2:	f7 01       	movw	r30, r14
    11d4:	65 91       	lpm	r22, Z+
    11d6:	74 91       	lpm	r23, Z
    11d8:	ce 01       	movw	r24, r28
    11da:	01 96       	adiw	r24, 0x01	; 1
    11dc:	0e 94 b8 11 	call	0x2370	; 0x2370 <strcpy_P>
		oled_center_print(buffer,8);
    11e0:	68 e0       	ldi	r22, 0x08	; 8
    11e2:	70 e0       	ldi	r23, 0x00	; 0
    11e4:	ce 01       	movw	r24, r28
    11e6:	01 96       	adiw	r24, 0x01	; 1
    11e8:	0e 94 16 0d 	call	0x1a2c	; 0x1a2c <oled_center_print>
	
}
void f_slider(){
	oled_reset();
	char buffer[16];
	for(unsigned char i=0; i<8; i++){
    11ec:	1f 5f       	subi	r17, 0xFF	; 255
    11ee:	22 e0       	ldi	r18, 0x02	; 2
    11f0:	e2 0e       	add	r14, r18
    11f2:	f1 1c       	adc	r15, r1
    11f4:	18 30       	cpi	r17, 0x08	; 8
    11f6:	51 f7       	brne	.-44     	; 0x11cc <f_slider+0x2c>
    11f8:	8f ef       	ldi	r24, 0xFF	; 255
    11fa:	93 ed       	ldi	r25, 0xD3	; 211
    11fc:	20 e3       	ldi	r18, 0x30	; 48
    11fe:	81 50       	subi	r24, 0x01	; 1
    1200:	90 40       	sbci	r25, 0x00	; 0
    1202:	20 40       	sbci	r18, 0x00	; 0
    1204:	e1 f7       	brne	.-8      	; 0x11fe <f_slider+0x5e>
    1206:	00 c0       	rjmp	.+0      	; 0x1208 <f_slider+0x68>
    1208:	00 00       	nop
		oled_center_print(buffer,8);
	}
	controller ctrl = SLIDER;
	_delay_ms(1000);
	
	curr_menu=main_menu;
    120a:	a0 91 ee 01 	lds	r26, 0x01EE	; 0x8001ee <main_menu>
    120e:	b0 91 ef 01 	lds	r27, 0x01EF	; 0x8001ef <main_menu+0x1>
    1212:	b0 93 df 01 	sts	0x01DF, r27	; 0x8001df <__data_end+0x1>
    1216:	a0 93 de 01 	sts	0x01DE, r26	; 0x8001de <__data_end>
	pos_child=0;
    121a:	10 92 e1 01 	sts	0x01E1, r1	; 0x8001e1 <pos_child+0x1>
    121e:	10 92 e0 01 	sts	0x01E0, r1	; 0x8001e0 <pos_child>
	(*curr_menu->function)(main_menu->name);
    1222:	12 96       	adiw	r26, 0x02	; 2
    1224:	ed 91       	ld	r30, X+
    1226:	fc 91       	ld	r31, X
    1228:	13 97       	sbiw	r26, 0x03	; 3
    122a:	1a 96       	adiw	r26, 0x0a	; 10
    122c:	8d 91       	ld	r24, X+
    122e:	9c 91       	ld	r25, X
    1230:	1b 97       	sbiw	r26, 0x0b	; 11
    1232:	09 95       	icall
	
}
    1234:	60 96       	adiw	r28, 0x10	; 16
    1236:	0f b6       	in	r0, 0x3f	; 63
    1238:	f8 94       	cli
    123a:	de bf       	out	0x3e, r29	; 62
    123c:	0f be       	out	0x3f, r0	; 63
    123e:	cd bf       	out	0x3d, r28	; 61
    1240:	df 91       	pop	r29
    1242:	cf 91       	pop	r28
    1244:	1f 91       	pop	r17
    1246:	ff 90       	pop	r15
    1248:	ef 90       	pop	r14
    124a:	08 95       	ret

0000124c <f_calibrate>:

void f_calibrate(){
    124c:	ef 92       	push	r14
    124e:	ff 92       	push	r15
    1250:	1f 93       	push	r17
    1252:	cf 93       	push	r28
    1254:	df 93       	push	r29
    1256:	cd b7       	in	r28, 0x3d	; 61
    1258:	de b7       	in	r29, 0x3e	; 62
    125a:	60 97       	sbiw	r28, 0x10	; 16
    125c:	0f b6       	in	r0, 0x3f	; 63
    125e:	f8 94       	cli
    1260:	de bf       	out	0x3e, r29	; 62
    1262:	0f be       	out	0x3f, r0	; 63
    1264:	cd bf       	out	0x3d, r28	; 61
	oled_reset();
    1266:	0e 94 1f 0c 	call	0x183e	; 0x183e <oled_reset>
    126a:	0f 2e       	mov	r0, r31
    126c:	f0 ef       	ldi	r31, 0xF0	; 240
    126e:	ef 2e       	mov	r14, r31
    1270:	f0 e0       	ldi	r31, 0x00	; 0
    1272:	ff 2e       	mov	r15, r31
    1274:	f0 2d       	mov	r31, r0
	char buffer[16];
	for(unsigned char i=0; i<8; i++){
    1276:	10 e0       	ldi	r17, 0x00	; 0
		oled_goto_page(i);
    1278:	81 2f       	mov	r24, r17
    127a:	0e 94 9c 0b 	call	0x1738	; 0x1738 <oled_goto_page>
		strcpy_P(buffer,(PGM_P)pgm_read_word(&table[i+s_calibrate]));
    127e:	f7 01       	movw	r30, r14
    1280:	65 91       	lpm	r22, Z+
    1282:	74 91       	lpm	r23, Z
    1284:	ce 01       	movw	r24, r28
    1286:	01 96       	adiw	r24, 0x01	; 1
    1288:	0e 94 b8 11 	call	0x2370	; 0x2370 <strcpy_P>
		oled_center_print(buffer,8);
    128c:	68 e0       	ldi	r22, 0x08	; 8
    128e:	70 e0       	ldi	r23, 0x00	; 0
    1290:	ce 01       	movw	r24, r28
    1292:	01 96       	adiw	r24, 0x01	; 1
    1294:	0e 94 16 0d 	call	0x1a2c	; 0x1a2c <oled_center_print>
}

void f_calibrate(){
	oled_reset();
	char buffer[16];
	for(unsigned char i=0; i<8; i++){
    1298:	1f 5f       	subi	r17, 0xFF	; 255
    129a:	22 e0       	ldi	r18, 0x02	; 2
    129c:	e2 0e       	add	r14, r18
    129e:	f1 1c       	adc	r15, r1
    12a0:	18 30       	cpi	r17, 0x08	; 8
    12a2:	51 f7       	brne	.-44     	; 0x1278 <f_calibrate+0x2c>
    12a4:	8f ef       	ldi	r24, 0xFF	; 255
    12a6:	93 ed       	ldi	r25, 0xD3	; 211
    12a8:	20 e3       	ldi	r18, 0x30	; 48
    12aa:	81 50       	subi	r24, 0x01	; 1
    12ac:	90 40       	sbci	r25, 0x00	; 0
    12ae:	20 40       	sbci	r18, 0x00	; 0
    12b0:	e1 f7       	brne	.-8      	; 0x12aa <f_calibrate+0x5e>
    12b2:	00 c0       	rjmp	.+0      	; 0x12b4 <f_calibrate+0x68>
    12b4:	00 00       	nop
	
	//funskjon her ||||||||||||||||||||||||||||
	//send over canbuss til node 2 at det skal bli kalibrert n
	_delay_ms(1000); //juster denne opp til s lang tid calibreringa tar
		
	curr_menu=main_menu;
    12b6:	a0 91 ee 01 	lds	r26, 0x01EE	; 0x8001ee <main_menu>
    12ba:	b0 91 ef 01 	lds	r27, 0x01EF	; 0x8001ef <main_menu+0x1>
    12be:	b0 93 df 01 	sts	0x01DF, r27	; 0x8001df <__data_end+0x1>
    12c2:	a0 93 de 01 	sts	0x01DE, r26	; 0x8001de <__data_end>
	pos_child=0;
    12c6:	10 92 e1 01 	sts	0x01E1, r1	; 0x8001e1 <pos_child+0x1>
    12ca:	10 92 e0 01 	sts	0x01E0, r1	; 0x8001e0 <pos_child>
	(*curr_menu->function)(main_menu->name);
    12ce:	12 96       	adiw	r26, 0x02	; 2
    12d0:	ed 91       	ld	r30, X+
    12d2:	fc 91       	ld	r31, X
    12d4:	13 97       	sbiw	r26, 0x03	; 3
    12d6:	1a 96       	adiw	r26, 0x0a	; 10
    12d8:	8d 91       	ld	r24, X+
    12da:	9c 91       	ld	r25, X
    12dc:	1b 97       	sbiw	r26, 0x0b	; 11
    12de:	09 95       	icall
	
	
}
    12e0:	60 96       	adiw	r28, 0x10	; 16
    12e2:	0f b6       	in	r0, 0x3f	; 63
    12e4:	f8 94       	cli
    12e6:	de bf       	out	0x3e, r29	; 62
    12e8:	0f be       	out	0x3f, r0	; 63
    12ea:	cd bf       	out	0x3d, r28	; 61
    12ec:	df 91       	pop	r29
    12ee:	cf 91       	pop	r28
    12f0:	1f 91       	pop	r17
    12f2:	ff 90       	pop	r15
    12f4:	ef 90       	pop	r14
    12f6:	08 95       	ret

000012f8 <Menu_new_submenu>:
	
	curr_menu = main_menu;
	
}

menu_item* Menu_new_submenu(menu_item* self, char* name, void (*function)(char*), int oledOffset){
    12f8:	af 92       	push	r10
    12fa:	bf 92       	push	r11
    12fc:	cf 92       	push	r12
    12fe:	df 92       	push	r13
    1300:	ef 92       	push	r14
    1302:	ff 92       	push	r15
    1304:	0f 93       	push	r16
    1306:	1f 93       	push	r17
    1308:	cf 93       	push	r28
    130a:	df 93       	push	r29
    130c:	8c 01       	movw	r16, r24
    130e:	7b 01       	movw	r14, r22
    1310:	5a 01       	movw	r10, r20
    1312:	69 01       	movw	r12, r18
	menu_item* new_submenu = malloc(sizeof(menu_item));
    1314:	8e e0       	ldi	r24, 0x0E	; 14
    1316:	90 e0       	ldi	r25, 0x00	; 0
    1318:	0e 94 d1 0f 	call	0x1fa2	; 0x1fa2 <malloc>
    131c:	ec 01       	movw	r28, r24

	new_submenu->parent=self;
    131e:	19 83       	std	Y+1, r17	; 0x01
    1320:	08 83       	st	Y, r16
	new_submenu->children=NULL;
    1322:	1d 82       	std	Y+5, r1	; 0x05
    1324:	1c 82       	std	Y+4, r1	; 0x04
	new_submenu->numOfChildren=0;
    1326:	1f 82       	std	Y+7, r1	; 0x07
    1328:	1e 82       	std	Y+6, r1	; 0x06
	new_submenu->name=name;
    132a:	fb 86       	std	Y+11, r15	; 0x0b
    132c:	ea 86       	std	Y+10, r14	; 0x0a
	new_submenu->nameArrow=oled_arrow(name);
    132e:	c7 01       	movw	r24, r14
    1330:	0e 94 39 0d 	call	0x1a72	; 0x1a72 <oled_arrow>
    1334:	9d 87       	std	Y+13, r25	; 0x0d
    1336:	8c 87       	std	Y+12, r24	; 0x0c
	new_submenu->function = function;
    1338:	bb 82       	std	Y+3, r11	; 0x03
    133a:	aa 82       	std	Y+2, r10	; 0x02
	new_submenu->oledOffset=oledOffset;
    133c:	d9 86       	std	Y+9, r13	; 0x09
    133e:	c8 86       	std	Y+8, r12	; 0x08
		
	self->children=realloc(self->children, (self->numOfChildren+1)*sizeof(menu_item*));
    1340:	f8 01       	movw	r30, r16
    1342:	66 81       	ldd	r22, Z+6	; 0x06
    1344:	77 81       	ldd	r23, Z+7	; 0x07
    1346:	6f 5f       	subi	r22, 0xFF	; 255
    1348:	7f 4f       	sbci	r23, 0xFF	; 255
    134a:	66 0f       	add	r22, r22
    134c:	77 1f       	adc	r23, r23
    134e:	84 81       	ldd	r24, Z+4	; 0x04
    1350:	95 81       	ldd	r25, Z+5	; 0x05
    1352:	0e 94 f2 10 	call	0x21e4	; 0x21e4 <realloc>
    1356:	f8 01       	movw	r30, r16
    1358:	95 83       	std	Z+5, r25	; 0x05
    135a:	84 83       	std	Z+4, r24	; 0x04

	self->children[self->numOfChildren]=new_submenu;
    135c:	26 81       	ldd	r18, Z+6	; 0x06
    135e:	37 81       	ldd	r19, Z+7	; 0x07
    1360:	a9 01       	movw	r20, r18
    1362:	44 0f       	add	r20, r20
    1364:	55 1f       	adc	r21, r21
    1366:	fc 01       	movw	r30, r24
    1368:	e4 0f       	add	r30, r20
    136a:	f5 1f       	adc	r31, r21
    136c:	d1 83       	std	Z+1, r29	; 0x01
    136e:	c0 83       	st	Z, r28
	
	self->numOfChildren++;
    1370:	2f 5f       	subi	r18, 0xFF	; 255
    1372:	3f 4f       	sbci	r19, 0xFF	; 255
    1374:	f8 01       	movw	r30, r16
    1376:	37 83       	std	Z+7, r19	; 0x07
    1378:	26 83       	std	Z+6, r18	; 0x06
	
	return new_submenu;
}
    137a:	ce 01       	movw	r24, r28
    137c:	df 91       	pop	r29
    137e:	cf 91       	pop	r28
    1380:	1f 91       	pop	r17
    1382:	0f 91       	pop	r16
    1384:	ff 90       	pop	r15
    1386:	ef 90       	pop	r14
    1388:	df 90       	pop	r13
    138a:	cf 90       	pop	r12
    138c:	bf 90       	pop	r11
    138e:	af 90       	pop	r10
    1390:	08 95       	ret

00001392 <menu_init>:
	struct menu_item* children[8];
	int numOfChildren=0;
	char name[];
} menu_item;
*/
void menu_init(){
    1392:	cf 92       	push	r12
    1394:	df 92       	push	r13
    1396:	ef 92       	push	r14
    1398:	ff 92       	push	r15
    139a:	1f 93       	push	r17
    139c:	cf 93       	push	r28
    139e:	df 93       	push	r29
    13a0:	cd b7       	in	r28, 0x3d	; 61
    13a2:	de b7       	in	r29, 0x3e	; 62
    13a4:	60 97       	sbiw	r28, 0x10	; 16
    13a6:	0f b6       	in	r0, 0x3f	; 63
    13a8:	f8 94       	cli
    13aa:	de bf       	out	0x3e, r29	; 62
    13ac:	0f be       	out	0x3f, r0	; 63
    13ae:	cd bf       	out	0x3d, r28	; 61
	
	menu_item* main_menu = malloc(sizeof(menu_item));
    13b0:	8e e0       	ldi	r24, 0x0E	; 14
    13b2:	90 e0       	ldi	r25, 0x00	; 0
    13b4:	0e 94 d1 0f 	call	0x1fa2	; 0x1fa2 <malloc>
    13b8:	6c 01       	movw	r12, r24
	
	main_menu->name = "Main Menu";
    13ba:	82 e3       	ldi	r24, 0x32	; 50
    13bc:	91 e0       	ldi	r25, 0x01	; 1
    13be:	f6 01       	movw	r30, r12
    13c0:	93 87       	std	Z+11, r25	; 0x0b
    13c2:	82 87       	std	Z+10, r24	; 0x0a
	main_menu->nameArrow= NULL;
    13c4:	15 86       	std	Z+13, r1	; 0x0d
    13c6:	14 86       	std	Z+12, r1	; 0x0c
	main_menu->numOfChildren = 0;
    13c8:	17 82       	std	Z+7, r1	; 0x07
    13ca:	16 82       	std	Z+6, r1	; 0x06
	main_menu->parent = NULL;
    13cc:	11 82       	std	Z+1, r1	; 0x01
    13ce:	10 82       	st	Z, r1
	main_menu->function = NULL;
    13d0:	13 82       	std	Z+3, r1	; 0x03
    13d2:	12 82       	std	Z+2, r1	; 0x02
	main_menu->oledOffset=s_main;
    13d4:	11 86       	std	Z+9, r1	; 0x09
    13d6:	10 86       	std	Z+8, r1	; 0x08
	
	
	Menu_new_submenu(main_menu, "1PLAYER", &f_1player, s_p1);
    13d8:	20 e1       	ldi	r18, 0x10	; 16
    13da:	30 e0       	ldi	r19, 0x00	; 0
    13dc:	45 e3       	ldi	r20, 0x35	; 53
    13de:	58 e0       	ldi	r21, 0x08	; 8
    13e0:	6c e3       	ldi	r22, 0x3C	; 60
    13e2:	71 e0       	ldi	r23, 0x01	; 1
    13e4:	c6 01       	movw	r24, r12
    13e6:	0e 94 7c 09 	call	0x12f8	; 0x12f8 <Menu_new_submenu>
	Menu_new_submenu(main_menu, "2PLAYER", &f_2player, s_p2);
    13ea:	28 e1       	ldi	r18, 0x18	; 24
    13ec:	30 e0       	ldi	r19, 0x00	; 0
    13ee:	44 eb       	ldi	r20, 0xB4	; 180
    13f0:	57 e0       	ldi	r21, 0x07	; 7
    13f2:	64 e4       	ldi	r22, 0x44	; 68
    13f4:	71 e0       	ldi	r23, 0x01	; 1
    13f6:	c6 01       	movw	r24, r12
    13f8:	0e 94 7c 09 	call	0x12f8	; 0x12f8 <Menu_new_submenu>
	menu_item* controller_menu=Menu_new_submenu(main_menu, "CONTROLLER", &f_controller,s_controller);
    13fc:	20 e2       	ldi	r18, 0x20	; 32
    13fe:	30 e0       	ldi	r19, 0x00	; 0
    1400:	4c ee       	ldi	r20, 0xEC	; 236
    1402:	57 e0       	ldi	r21, 0x07	; 7
    1404:	6c e4       	ldi	r22, 0x4C	; 76
    1406:	71 e0       	ldi	r23, 0x01	; 1
    1408:	c6 01       	movw	r24, r12
    140a:	0e 94 7c 09 	call	0x12f8	; 0x12f8 <Menu_new_submenu>
    140e:	7c 01       	movw	r14, r24
	Menu_new_submenu(controller_menu, "JOYSTICK", &f_joystick,s_joystick);
    1410:	20 e3       	ldi	r18, 0x30	; 48
    1412:	30 e0       	ldi	r19, 0x00	; 0
    1414:	4a e7       	ldi	r20, 0x7A	; 122
    1416:	58 e0       	ldi	r21, 0x08	; 8
    1418:	67 e5       	ldi	r22, 0x57	; 87
    141a:	71 e0       	ldi	r23, 0x01	; 1
    141c:	0e 94 7c 09 	call	0x12f8	; 0x12f8 <Menu_new_submenu>
	Menu_new_submenu(controller_menu, "SLIDER", &f_slider,s_slider);
    1420:	28 e3       	ldi	r18, 0x38	; 56
    1422:	30 e0       	ldi	r19, 0x00	; 0
    1424:	40 ed       	ldi	r20, 0xD0	; 208
    1426:	58 e0       	ldi	r21, 0x08	; 8
    1428:	60 e6       	ldi	r22, 0x60	; 96
    142a:	71 e0       	ldi	r23, 0x01	; 1
    142c:	c7 01       	movw	r24, r14
    142e:	0e 94 7c 09 	call	0x12f8	; 0x12f8 <Menu_new_submenu>
	Menu_new_submenu(main_menu, "CALIBRATE", &f_calibrate,s_calibrate);
    1432:	20 e4       	ldi	r18, 0x40	; 64
    1434:	30 e0       	ldi	r19, 0x00	; 0
    1436:	46 e2       	ldi	r20, 0x26	; 38
    1438:	59 e0       	ldi	r21, 0x09	; 9
    143a:	67 e6       	ldi	r22, 0x67	; 103
    143c:	71 e0       	ldi	r23, 0x01	; 1
    143e:	c6 01       	movw	r24, r12
    1440:	0e 94 7c 09 	call	0x12f8	; 0x12f8 <Menu_new_submenu>
	

	oled_reset();
    1444:	0e 94 1f 0c 	call	0x183e	; 0x183e <oled_reset>
    1448:	0f 2e       	mov	r0, r31
    144a:	f0 e7       	ldi	r31, 0x70	; 112
    144c:	ef 2e       	mov	r14, r31
    144e:	f0 e0       	ldi	r31, 0x00	; 0
    1450:	ff 2e       	mov	r15, r31
    1452:	f0 2d       	mov	r31, r0
	char buffer[16];
	for(unsigned char i=0; i<6; i++){
    1454:	10 e0       	ldi	r17, 0x00	; 0
		oled_goto_page(i);
    1456:	81 2f       	mov	r24, r17
    1458:	0e 94 9c 0b 	call	0x1738	; 0x1738 <oled_goto_page>
		strcpy_P(buffer,(PGM_P)pgm_read_word(&table[i]));
    145c:	f7 01       	movw	r30, r14
    145e:	65 91       	lpm	r22, Z+
    1460:	74 91       	lpm	r23, Z
    1462:	ce 01       	movw	r24, r28
    1464:	01 96       	adiw	r24, 0x01	; 1
    1466:	0e 94 b8 11 	call	0x2370	; 0x2370 <strcpy_P>
		oled_center_print(buffer,8);
    146a:	68 e0       	ldi	r22, 0x08	; 8
    146c:	70 e0       	ldi	r23, 0x00	; 0
    146e:	ce 01       	movw	r24, r28
    1470:	01 96       	adiw	r24, 0x01	; 1
    1472:	0e 94 16 0d 	call	0x1a2c	; 0x1a2c <oled_center_print>
	Menu_new_submenu(main_menu, "CALIBRATE", &f_calibrate,s_calibrate);
	

	oled_reset();
	char buffer[16];
	for(unsigned char i=0; i<6; i++){
    1476:	1f 5f       	subi	r17, 0xFF	; 255
    1478:	f2 e0       	ldi	r31, 0x02	; 2
    147a:	ef 0e       	add	r14, r31
    147c:	f1 1c       	adc	r15, r1
    147e:	16 30       	cpi	r17, 0x06	; 6
    1480:	51 f7       	brne	.-44     	; 0x1456 <menu_init+0xc4>
		oled_goto_page(i);
		strcpy_P(buffer,(PGM_P)pgm_read_word(&table[i]));
		oled_center_print(buffer,8);
	}
	oled_goto_page(header_pages);
    1482:	82 e0       	ldi	r24, 0x02	; 2
    1484:	0e 94 9c 0b 	call	0x1738	; 0x1738 <oled_goto_page>
	strcpy_P(buffer,(PGM_P)pgm_read_word(&table[s_mainP+2]));
    1488:	e4 e8       	ldi	r30, 0x84	; 132
    148a:	f0 e0       	ldi	r31, 0x00	; 0
    148c:	65 91       	lpm	r22, Z+
    148e:	74 91       	lpm	r23, Z
    1490:	ce 01       	movw	r24, r28
    1492:	01 96       	adiw	r24, 0x01	; 1
    1494:	0e 94 b8 11 	call	0x2370	; 0x2370 <strcpy_P>
	oled_center_print(buffer,8);
    1498:	68 e0       	ldi	r22, 0x08	; 8
    149a:	70 e0       	ldi	r23, 0x00	; 0
    149c:	ce 01       	movw	r24, r28
    149e:	01 96       	adiw	r24, 0x01	; 1
    14a0:	0e 94 16 0d 	call	0x1a2c	; 0x1a2c <oled_center_print>
	
	curr_menu = main_menu;
    14a4:	d0 92 df 01 	sts	0x01DF, r13	; 0x8001df <__data_end+0x1>
    14a8:	c0 92 de 01 	sts	0x01DE, r12	; 0x8001de <__data_end>
	
}
    14ac:	60 96       	adiw	r28, 0x10	; 16
    14ae:	0f b6       	in	r0, 0x3f	; 63
    14b0:	f8 94       	cli
    14b2:	de bf       	out	0x3e, r29	; 62
    14b4:	0f be       	out	0x3f, r0	; 63
    14b6:	cd bf       	out	0x3d, r28	; 61
    14b8:	df 91       	pop	r29
    14ba:	cf 91       	pop	r28
    14bc:	1f 91       	pop	r17
    14be:	ff 90       	pop	r15
    14c0:	ef 90       	pop	r14
    14c2:	df 90       	pop	r13
    14c4:	cf 90       	pop	r12
    14c6:	08 95       	ret

000014c8 <navigate>:
	
}



void navigate(){
    14c8:	0f 93       	push	r16
    14ca:	1f 93       	push	r17
    14cc:	cf 93       	push	r28
    14ce:	df 93       	push	r29
    14d0:	cd b7       	in	r28, 0x3d	; 61
    14d2:	de b7       	in	r29, 0x3e	; 62
    14d4:	60 97       	sbiw	r28, 0x10	; 16
    14d6:	0f b6       	in	r0, 0x3f	; 63
    14d8:	f8 94       	cli
    14da:	de bf       	out	0x3e, r29	; 62
    14dc:	0f be       	out	0x3f, r0	; 63
    14de:	cd bf       	out	0x3d, r28	; 61
	
if(joystick_getDirection()!=NEUTRAL){
    14e0:	0e 94 66 07 	call	0xecc	; 0xecc <joystick_getDirection>
    14e4:	84 30       	cpi	r24, 0x04	; 4
    14e6:	09 f4       	brne	.+2      	; 0x14ea <navigate+0x22>
    14e8:	da c0       	rjmp	.+436    	; 0x169e <navigate+0x1d6>
    14ea:	2f ef       	ldi	r18, 0xFF	; 255
    14ec:	87 ee       	ldi	r24, 0xE7	; 231
    14ee:	93 e0       	ldi	r25, 0x03	; 3
    14f0:	21 50       	subi	r18, 0x01	; 1
    14f2:	80 40       	sbci	r24, 0x00	; 0
    14f4:	90 40       	sbci	r25, 0x00	; 0
    14f6:	e1 f7       	brne	.-8      	; 0x14f0 <navigate+0x28>
    14f8:	00 c0       	rjmp	.+0      	; 0x14fa <navigate+0x32>
    14fa:	00 00       	nop
			_delay_ms(80);
		
	switch (joystick_getDirection()){
    14fc:	0e 94 66 07 	call	0xecc	; 0xecc <joystick_getDirection>
    1500:	82 30       	cpi	r24, 0x02	; 2
    1502:	09 f4       	brne	.+2      	; 0x1506 <navigate+0x3e>
    1504:	64 c0       	rjmp	.+200    	; 0x15ce <navigate+0x106>
    1506:	83 30       	cpi	r24, 0x03	; 3
    1508:	09 f0       	breq	.+2      	; 0x150c <navigate+0x44>
    150a:	c9 c0       	rjmp	.+402    	; 0x169e <navigate+0x1d6>
		
		case UP:
		//_delay_ms(10);
		if(pos_child>0){
    150c:	80 91 e0 01 	lds	r24, 0x01E0	; 0x8001e0 <pos_child>
    1510:	90 91 e1 01 	lds	r25, 0x01E1	; 0x8001e1 <pos_child+0x1>
    1514:	18 16       	cp	r1, r24
    1516:	19 06       	cpc	r1, r25
    1518:	0c f0       	brlt	.+2      	; 0x151c <navigate+0x54>
    151a:	c1 c0       	rjmp	.+386    	; 0x169e <navigate+0x1d6>
			oled_goto_page(pos_child+header_pages);
    151c:	8e 5f       	subi	r24, 0xFE	; 254
    151e:	0e 94 9c 0b 	call	0x1738	; 0x1738 <oled_goto_page>
			oled_clear_page(pos_child+header_pages);
    1522:	00 ee       	ldi	r16, 0xE0	; 224
    1524:	11 e0       	ldi	r17, 0x01	; 1
    1526:	f8 01       	movw	r30, r16
    1528:	80 81       	ld	r24, Z
    152a:	8e 5f       	subi	r24, 0xFE	; 254
    152c:	0e 94 e3 0b 	call	0x17c6	; 0x17c6 <oled_clear_page>
			//oled_center_print(curr_menu->children[pos_child]->name,fontsize);
			char buffer[16];
			strcpy_P(buffer,(PGM_P)pgm_read_word(&table[pos_child+(curr_menu->oledOffset)+header_pages]));
    1530:	e0 91 de 01 	lds	r30, 0x01DE	; 0x8001de <__data_end>
    1534:	f0 91 df 01 	lds	r31, 0x01DF	; 0x8001df <__data_end+0x1>
    1538:	00 84       	ldd	r0, Z+8	; 0x08
    153a:	f1 85       	ldd	r31, Z+9	; 0x09
    153c:	e0 2d       	mov	r30, r0
    153e:	80 91 e0 01 	lds	r24, 0x01E0	; 0x8001e0 <pos_child>
    1542:	90 91 e1 01 	lds	r25, 0x01E1	; 0x8001e1 <pos_child+0x1>
    1546:	e8 0f       	add	r30, r24
    1548:	f9 1f       	adc	r31, r25
    154a:	ee 0f       	add	r30, r30
    154c:	ff 1f       	adc	r31, r31
    154e:	ec 58       	subi	r30, 0x8C	; 140
    1550:	ff 4f       	sbci	r31, 0xFF	; 255
    1552:	65 91       	lpm	r22, Z+
    1554:	74 91       	lpm	r23, Z
    1556:	ce 01       	movw	r24, r28
    1558:	01 96       	adiw	r24, 0x01	; 1
    155a:	0e 94 b8 11 	call	0x2370	; 0x2370 <strcpy_P>
			oled_center_print(buffer,8);
    155e:	68 e0       	ldi	r22, 0x08	; 8
    1560:	70 e0       	ldi	r23, 0x00	; 0
    1562:	ce 01       	movw	r24, r28
    1564:	01 96       	adiw	r24, 0x01	; 1
    1566:	0e 94 16 0d 	call	0x1a2c	; 0x1a2c <oled_center_print>
			
			
			oled_goto_page(pos_child+header_pages-1);
    156a:	f8 01       	movw	r30, r16
    156c:	80 81       	ld	r24, Z
    156e:	8f 5f       	subi	r24, 0xFF	; 255
    1570:	0e 94 9c 0b 	call	0x1738	; 0x1738 <oled_goto_page>
			oled_clear_page(pos_child+header_pages-1);
    1574:	f8 01       	movw	r30, r16
    1576:	80 81       	ld	r24, Z
    1578:	8f 5f       	subi	r24, 0xFF	; 255
    157a:	0e 94 e3 0b 	call	0x17c6	; 0x17c6 <oled_clear_page>
			//oled_center_print(curr_menu->children[pos_child-1]->nameArrow,fontsize);
			strcpy_P(buffer,(PGM_P)pgm_read_word(&table[pos_child-1+(curr_menu->oledOffset)+s_page+header_pages])); //s_page to get to arrow page
    157e:	e0 91 e0 01 	lds	r30, 0x01E0	; 0x8001e0 <pos_child>
    1582:	f0 91 e1 01 	lds	r31, 0x01E1	; 0x8001e1 <pos_child+0x1>
    1586:	a0 91 de 01 	lds	r26, 0x01DE	; 0x8001de <__data_end>
    158a:	b0 91 df 01 	lds	r27, 0x01DF	; 0x8001df <__data_end+0x1>
    158e:	18 96       	adiw	r26, 0x08	; 8
    1590:	8d 91       	ld	r24, X+
    1592:	9c 91       	ld	r25, X
    1594:	19 97       	sbiw	r26, 0x09	; 9
    1596:	e8 0f       	add	r30, r24
    1598:	f9 1f       	adc	r31, r25
    159a:	ee 0f       	add	r30, r30
    159c:	ff 1f       	adc	r31, r31
    159e:	ee 57       	subi	r30, 0x7E	; 126
    15a0:	ff 4f       	sbci	r31, 0xFF	; 255
    15a2:	65 91       	lpm	r22, Z+
    15a4:	74 91       	lpm	r23, Z
    15a6:	ce 01       	movw	r24, r28
    15a8:	01 96       	adiw	r24, 0x01	; 1
    15aa:	0e 94 b8 11 	call	0x2370	; 0x2370 <strcpy_P>
			oled_center_print(buffer,8);
    15ae:	68 e0       	ldi	r22, 0x08	; 8
    15b0:	70 e0       	ldi	r23, 0x00	; 0
    15b2:	ce 01       	movw	r24, r28
    15b4:	01 96       	adiw	r24, 0x01	; 1
    15b6:	0e 94 16 0d 	call	0x1a2c	; 0x1a2c <oled_center_print>
			
			
			pos_child -= 1;
    15ba:	80 91 e0 01 	lds	r24, 0x01E0	; 0x8001e0 <pos_child>
    15be:	90 91 e1 01 	lds	r25, 0x01E1	; 0x8001e1 <pos_child+0x1>
    15c2:	01 97       	sbiw	r24, 0x01	; 1
    15c4:	90 93 e1 01 	sts	0x01E1, r25	; 0x8001e1 <pos_child+0x1>
    15c8:	80 93 e0 01 	sts	0x01E0, r24	; 0x8001e0 <pos_child>
    15cc:	68 c0       	rjmp	.+208    	; 0x169e <navigate+0x1d6>
		}
		break;
		case DOWN:
		//_delay_ms(10);
		if(pos_child < curr_menu->numOfChildren-1){
    15ce:	80 91 e0 01 	lds	r24, 0x01E0	; 0x8001e0 <pos_child>
    15d2:	90 91 e1 01 	lds	r25, 0x01E1	; 0x8001e1 <pos_child+0x1>
    15d6:	e0 91 de 01 	lds	r30, 0x01DE	; 0x8001de <__data_end>
    15da:	f0 91 df 01 	lds	r31, 0x01DF	; 0x8001df <__data_end+0x1>
    15de:	26 81       	ldd	r18, Z+6	; 0x06
    15e0:	37 81       	ldd	r19, Z+7	; 0x07
    15e2:	21 50       	subi	r18, 0x01	; 1
    15e4:	31 09       	sbc	r19, r1
    15e6:	82 17       	cp	r24, r18
    15e8:	93 07       	cpc	r25, r19
    15ea:	0c f0       	brlt	.+2      	; 0x15ee <navigate+0x126>
    15ec:	58 c0       	rjmp	.+176    	; 0x169e <navigate+0x1d6>
			oled_goto_page(pos_child+header_pages);
    15ee:	8e 5f       	subi	r24, 0xFE	; 254
    15f0:	0e 94 9c 0b 	call	0x1738	; 0x1738 <oled_goto_page>
			oled_clear_page(pos_child+header_pages);
    15f4:	00 ee       	ldi	r16, 0xE0	; 224
    15f6:	11 e0       	ldi	r17, 0x01	; 1
    15f8:	f8 01       	movw	r30, r16
    15fa:	80 81       	ld	r24, Z
    15fc:	8e 5f       	subi	r24, 0xFE	; 254
    15fe:	0e 94 e3 0b 	call	0x17c6	; 0x17c6 <oled_clear_page>
			//oled_center_print(curr_menu->children[pos_child]->name,fontsize);
			char buffer[16];
			strcpy_P(buffer,(PGM_P)pgm_read_word(&table[pos_child+(curr_menu->oledOffset)+header_pages]));
    1602:	e0 91 de 01 	lds	r30, 0x01DE	; 0x8001de <__data_end>
    1606:	f0 91 df 01 	lds	r31, 0x01DF	; 0x8001df <__data_end+0x1>
    160a:	00 84       	ldd	r0, Z+8	; 0x08
    160c:	f1 85       	ldd	r31, Z+9	; 0x09
    160e:	e0 2d       	mov	r30, r0
    1610:	80 91 e0 01 	lds	r24, 0x01E0	; 0x8001e0 <pos_child>
    1614:	90 91 e1 01 	lds	r25, 0x01E1	; 0x8001e1 <pos_child+0x1>
    1618:	e8 0f       	add	r30, r24
    161a:	f9 1f       	adc	r31, r25
    161c:	ee 0f       	add	r30, r30
    161e:	ff 1f       	adc	r31, r31
    1620:	ec 58       	subi	r30, 0x8C	; 140
    1622:	ff 4f       	sbci	r31, 0xFF	; 255
    1624:	65 91       	lpm	r22, Z+
    1626:	74 91       	lpm	r23, Z
    1628:	ce 01       	movw	r24, r28
    162a:	01 96       	adiw	r24, 0x01	; 1
    162c:	0e 94 b8 11 	call	0x2370	; 0x2370 <strcpy_P>
			oled_center_print(buffer,8);
    1630:	68 e0       	ldi	r22, 0x08	; 8
    1632:	70 e0       	ldi	r23, 0x00	; 0
    1634:	ce 01       	movw	r24, r28
    1636:	01 96       	adiw	r24, 0x01	; 1
    1638:	0e 94 16 0d 	call	0x1a2c	; 0x1a2c <oled_center_print>
			
			oled_goto_page(pos_child+header_pages+1);
    163c:	f8 01       	movw	r30, r16
    163e:	80 81       	ld	r24, Z
    1640:	8d 5f       	subi	r24, 0xFD	; 253
    1642:	0e 94 9c 0b 	call	0x1738	; 0x1738 <oled_goto_page>
			oled_clear_page(pos_child+header_pages+1);
    1646:	f8 01       	movw	r30, r16
    1648:	80 81       	ld	r24, Z
    164a:	8d 5f       	subi	r24, 0xFD	; 253
    164c:	0e 94 e3 0b 	call	0x17c6	; 0x17c6 <oled_clear_page>
			//oled_center_print(curr_menu->children[pos_child+1]->nameArrow,fontsize);
			strcpy_P(buffer,(PGM_P)pgm_read_word(&table[pos_child+1+(curr_menu->oledOffset)+s_page+header_pages])); //s_page to get to arrow page
    1650:	e0 91 e0 01 	lds	r30, 0x01E0	; 0x8001e0 <pos_child>
    1654:	f0 91 e1 01 	lds	r31, 0x01E1	; 0x8001e1 <pos_child+0x1>
    1658:	a0 91 de 01 	lds	r26, 0x01DE	; 0x8001de <__data_end>
    165c:	b0 91 df 01 	lds	r27, 0x01DF	; 0x8001df <__data_end+0x1>
    1660:	18 96       	adiw	r26, 0x08	; 8
    1662:	8d 91       	ld	r24, X+
    1664:	9c 91       	ld	r25, X
    1666:	19 97       	sbiw	r26, 0x09	; 9
    1668:	e8 0f       	add	r30, r24
    166a:	f9 1f       	adc	r31, r25
    166c:	ee 0f       	add	r30, r30
    166e:	ff 1f       	adc	r31, r31
    1670:	ea 57       	subi	r30, 0x7A	; 122
    1672:	ff 4f       	sbci	r31, 0xFF	; 255
    1674:	65 91       	lpm	r22, Z+
    1676:	74 91       	lpm	r23, Z
    1678:	ce 01       	movw	r24, r28
    167a:	01 96       	adiw	r24, 0x01	; 1
    167c:	0e 94 b8 11 	call	0x2370	; 0x2370 <strcpy_P>
			oled_center_print(buffer,8);
    1680:	68 e0       	ldi	r22, 0x08	; 8
    1682:	70 e0       	ldi	r23, 0x00	; 0
    1684:	ce 01       	movw	r24, r28
    1686:	01 96       	adiw	r24, 0x01	; 1
    1688:	0e 94 16 0d 	call	0x1a2c	; 0x1a2c <oled_center_print>
			pos_child += 1;
    168c:	80 91 e0 01 	lds	r24, 0x01E0	; 0x8001e0 <pos_child>
    1690:	90 91 e1 01 	lds	r25, 0x01E1	; 0x8001e1 <pos_child+0x1>
    1694:	01 96       	adiw	r24, 0x01	; 1
    1696:	90 93 e1 01 	sts	0x01E1, r25	; 0x8001e1 <pos_child+0x1>
    169a:	80 93 e0 01 	sts	0x01E0, r24	; 0x8001e0 <pos_child>
		//
		
		break;*/
			}
}
	if (!(PINB & (1<<PB2))){
    169e:	b2 99       	sbic	0x16, 2	; 22
    16a0:	34 c0       	rjmp	.+104    	; 0x170a <navigate+0x242>
		if(curr_menu->children!= NULL){
    16a2:	e0 91 de 01 	lds	r30, 0x01DE	; 0x8001de <__data_end>
    16a6:	f0 91 df 01 	lds	r31, 0x01DF	; 0x8001df <__data_end+0x1>
    16aa:	84 81       	ldd	r24, Z+4	; 0x04
    16ac:	95 81       	ldd	r25, Z+5	; 0x05
    16ae:	00 97       	sbiw	r24, 0x00	; 0
    16b0:	d9 f0       	breq	.+54     	; 0x16e8 <navigate+0x220>
			curr_menu=curr_menu->children[pos_child];
    16b2:	e0 91 e0 01 	lds	r30, 0x01E0	; 0x8001e0 <pos_child>
    16b6:	f0 91 e1 01 	lds	r31, 0x01E1	; 0x8001e1 <pos_child+0x1>
    16ba:	ee 0f       	add	r30, r30
    16bc:	ff 1f       	adc	r31, r31
    16be:	e8 0f       	add	r30, r24
    16c0:	f9 1f       	adc	r31, r25
    16c2:	a0 81       	ld	r26, Z
    16c4:	b1 81       	ldd	r27, Z+1	; 0x01
    16c6:	b0 93 df 01 	sts	0x01DF, r27	; 0x8001df <__data_end+0x1>
    16ca:	a0 93 de 01 	sts	0x01DE, r26	; 0x8001de <__data_end>
			pos_child=0;
    16ce:	10 92 e1 01 	sts	0x01E1, r1	; 0x8001e1 <pos_child+0x1>
    16d2:	10 92 e0 01 	sts	0x01E0, r1	; 0x8001e0 <pos_child>
			(*curr_menu->function)(curr_menu->name);
    16d6:	12 96       	adiw	r26, 0x02	; 2
    16d8:	ed 91       	ld	r30, X+
    16da:	fc 91       	ld	r31, X
    16dc:	13 97       	sbiw	r26, 0x03	; 3
    16de:	1a 96       	adiw	r26, 0x0a	; 10
    16e0:	8d 91       	ld	r24, X+
    16e2:	9c 91       	ld	r25, X
    16e4:	1b 97       	sbiw	r26, 0x0b	; 11
    16e6:	09 95       	icall
    16e8:	ff ef       	ldi	r31, 0xFF	; 255
    16ea:	23 ec       	ldi	r18, 0xC3	; 195
    16ec:	89 e0       	ldi	r24, 0x09	; 9
    16ee:	f1 50       	subi	r31, 0x01	; 1
    16f0:	20 40       	sbci	r18, 0x00	; 0
    16f2:	80 40       	sbci	r24, 0x00	; 0
    16f4:	e1 f7       	brne	.-8      	; 0x16ee <navigate+0x226>
    16f6:	00 c0       	rjmp	.+0      	; 0x16f8 <navigate+0x230>
    16f8:	00 00       	nop
		}
		_delay_ms(200);
		printf("button pressed");
    16fa:	81 e7       	ldi	r24, 0x71	; 113
    16fc:	91 e0       	ldi	r25, 0x01	; 1
    16fe:	9f 93       	push	r25
    1700:	8f 93       	push	r24
    1702:	0e 94 1e 12 	call	0x243c	; 0x243c <printf>
    1706:	0f 90       	pop	r0
    1708:	0f 90       	pop	r0
	}
		
}
    170a:	60 96       	adiw	r28, 0x10	; 16
    170c:	0f b6       	in	r0, 0x3f	; 63
    170e:	f8 94       	cli
    1710:	de bf       	out	0x3e, r29	; 62
    1712:	0f be       	out	0x3f, r0	; 63
    1714:	cd bf       	out	0x3d, r28	; 61
    1716:	df 91       	pop	r29
    1718:	cf 91       	pop	r28
    171a:	1f 91       	pop	r17
    171c:	0f 91       	pop	r16
    171e:	08 95       	ret

00001720 <oled_mode>:
	}
	oled_goto_pos(4,0);
	for (int j=0; j<1024; j++){
		ext_oled_data[j] = 0xff;
	}
	oled_mode(PAGE_MODE);
    1720:	e0 91 08 01 	lds	r30, 0x0108	; 0x800108 <ext_oled_command>
    1724:	f0 91 09 01 	lds	r31, 0x0109	; 0x800109 <ext_oled_command+0x1>
    1728:	90 e2       	ldi	r25, 0x20	; 32
    172a:	90 83       	st	Z, r25
    172c:	e0 91 08 01 	lds	r30, 0x0108	; 0x800108 <ext_oled_command>
    1730:	f0 91 09 01 	lds	r31, 0x0109	; 0x800109 <ext_oled_command+0x1>
    1734:	80 83       	st	Z, r24
    1736:	08 95       	ret

00001738 <oled_goto_page>:
    1738:	88 30       	cpi	r24, 0x08	; 8
    173a:	48 f0       	brcs	.+18     	; 0x174e <oled_goto_page+0x16>
    173c:	80 e8       	ldi	r24, 0x80	; 128
    173e:	91 e0       	ldi	r25, 0x01	; 1
    1740:	9f 93       	push	r25
    1742:	8f 93       	push	r24
    1744:	0e 94 1e 12 	call	0x243c	; 0x243c <printf>
    1748:	0f 90       	pop	r0
    174a:	0f 90       	pop	r0
    174c:	08 95       	ret
    174e:	90 eb       	ldi	r25, 0xB0	; 176
    1750:	98 0f       	add	r25, r24
    1752:	e0 91 08 01 	lds	r30, 0x0108	; 0x800108 <ext_oled_command>
    1756:	f0 91 09 01 	lds	r31, 0x0109	; 0x800109 <ext_oled_command+0x1>
    175a:	90 83       	st	Z, r25
    175c:	90 e0       	ldi	r25, 0x00	; 0
    175e:	90 93 eb 01 	sts	0x01EB, r25	; 0x8001eb <oled_position+0x1>
    1762:	80 93 ea 01 	sts	0x01EA, r24	; 0x8001ea <oled_position>
    1766:	08 95       	ret

00001768 <oled_goto_col>:
    1768:	88 23       	and	r24, r24
    176a:	4c f4       	brge	.+18     	; 0x177e <oled_goto_col+0x16>
    176c:	80 e8       	ldi	r24, 0x80	; 128
    176e:	91 e0       	ldi	r25, 0x01	; 1
    1770:	9f 93       	push	r25
    1772:	8f 93       	push	r24
    1774:	0e 94 1e 12 	call	0x243c	; 0x243c <printf>
    1778:	0f 90       	pop	r0
    177a:	0f 90       	pop	r0
    177c:	08 95       	ret
    177e:	28 2f       	mov	r18, r24
    1780:	2f 70       	andi	r18, 0x0F	; 15
    1782:	98 2f       	mov	r25, r24
    1784:	92 95       	swap	r25
    1786:	9f 70       	andi	r25, 0x0F	; 15
    1788:	90 5f       	subi	r25, 0xF0	; 240
    178a:	e0 91 08 01 	lds	r30, 0x0108	; 0x800108 <ext_oled_command>
    178e:	f0 91 09 01 	lds	r31, 0x0109	; 0x800109 <ext_oled_command+0x1>
    1792:	90 83       	st	Z, r25
    1794:	e0 91 08 01 	lds	r30, 0x0108	; 0x800108 <ext_oled_command>
    1798:	f0 91 09 01 	lds	r31, 0x0109	; 0x800109 <ext_oled_command+0x1>
    179c:	20 83       	st	Z, r18
    179e:	90 e0       	ldi	r25, 0x00	; 0
    17a0:	90 93 ed 01 	sts	0x01ED, r25	; 0x8001ed <oled_position+0x3>
    17a4:	80 93 ec 01 	sts	0x01EC, r24	; 0x8001ec <oled_position+0x2>
    17a8:	08 95       	ret

000017aa <oled_goto_pos>:
    17aa:	cf 93       	push	r28
    17ac:	c6 2f       	mov	r28, r22
    17ae:	0e 94 9c 0b 	call	0x1738	; 0x1738 <oled_goto_page>
    17b2:	8c 2f       	mov	r24, r28
    17b4:	0e 94 b4 0b 	call	0x1768	; 0x1768 <oled_goto_col>
    17b8:	cf 91       	pop	r28
    17ba:	08 95       	ret

000017bc <oled_home>:
    17bc:	60 e0       	ldi	r22, 0x00	; 0
    17be:	80 e0       	ldi	r24, 0x00	; 0
    17c0:	0e 94 d5 0b 	call	0x17aa	; 0x17aa <oled_goto_pos>
    17c4:	08 95       	ret

000017c6 <oled_clear_page>:
    17c6:	60 e0       	ldi	r22, 0x00	; 0
    17c8:	0e 94 d5 0b 	call	0x17aa	; 0x17aa <oled_goto_pos>
    17cc:	80 e0       	ldi	r24, 0x00	; 0
    17ce:	90 e0       	ldi	r25, 0x00	; 0
    17d0:	e0 91 06 01 	lds	r30, 0x0106	; 0x800106 <ext_oled_data>
    17d4:	f0 91 07 01 	lds	r31, 0x0107	; 0x800107 <ext_oled_data+0x1>
    17d8:	e8 0f       	add	r30, r24
    17da:	f9 1f       	adc	r31, r25
    17dc:	10 82       	st	Z, r1
    17de:	01 96       	adiw	r24, 0x01	; 1
    17e0:	80 38       	cpi	r24, 0x80	; 128
    17e2:	91 05       	cpc	r25, r1
    17e4:	a9 f7       	brne	.-22     	; 0x17d0 <oled_clear_page+0xa>
    17e6:	08 95       	ret

000017e8 <oled_clear_screen>:
    17e8:	60 e0       	ldi	r22, 0x00	; 0
    17ea:	80 e0       	ldi	r24, 0x00	; 0
    17ec:	0e 94 d5 0b 	call	0x17aa	; 0x17aa <oled_goto_pos>
    17f0:	80 e0       	ldi	r24, 0x00	; 0
    17f2:	0e 94 90 0b 	call	0x1720	; 0x1720 <oled_mode>
    17f6:	80 e0       	ldi	r24, 0x00	; 0
    17f8:	90 e0       	ldi	r25, 0x00	; 0
    17fa:	e0 91 06 01 	lds	r30, 0x0106	; 0x800106 <ext_oled_data>
    17fe:	f0 91 07 01 	lds	r31, 0x0107	; 0x800107 <ext_oled_data+0x1>
    1802:	e8 0f       	add	r30, r24
    1804:	f9 1f       	adc	r31, r25
    1806:	10 82       	st	Z, r1
    1808:	01 96       	adiw	r24, 0x01	; 1
    180a:	81 15       	cp	r24, r1
    180c:	24 e0       	ldi	r18, 0x04	; 4
    180e:	92 07       	cpc	r25, r18
    1810:	a1 f7       	brne	.-24     	; 0x17fa <oled_clear_screen+0x12>
    1812:	60 e0       	ldi	r22, 0x00	; 0
    1814:	84 e0       	ldi	r24, 0x04	; 4
    1816:	0e 94 d5 0b 	call	0x17aa	; 0x17aa <oled_goto_pos>
    181a:	80 e0       	ldi	r24, 0x00	; 0
    181c:	90 e0       	ldi	r25, 0x00	; 0
    181e:	e0 91 06 01 	lds	r30, 0x0106	; 0x800106 <ext_oled_data>
    1822:	f0 91 07 01 	lds	r31, 0x0107	; 0x800107 <ext_oled_data+0x1>
    1826:	e8 0f       	add	r30, r24
    1828:	f9 1f       	adc	r31, r25
    182a:	10 82       	st	Z, r1
    182c:	01 96       	adiw	r24, 0x01	; 1
    182e:	81 15       	cp	r24, r1
    1830:	24 e0       	ldi	r18, 0x04	; 4
    1832:	92 07       	cpc	r25, r18
    1834:	a1 f7       	brne	.-24     	; 0x181e <oled_clear_screen+0x36>
    1836:	82 e0       	ldi	r24, 0x02	; 2
    1838:	0e 94 90 0b 	call	0x1720	; 0x1720 <oled_mode>
    183c:	08 95       	ret

0000183e <oled_reset>:
    183e:	0e 94 de 0b 	call	0x17bc	; 0x17bc <oled_home>
    1842:	0e 94 f4 0b 	call	0x17e8	; 0x17e8 <oled_clear_screen>
    1846:	82 e0       	ldi	r24, 0x02	; 2
    1848:	0e 94 90 0b 	call	0x1720	; 0x1720 <oled_mode>
    184c:	08 95       	ret

0000184e <oled_write_char>:
}


void oled_write_char(char c, int fs){
	c=c-32;
    184e:	80 52       	subi	r24, 0x20	; 32
	
	switch(fs){
    1850:	64 30       	cpi	r22, 0x04	; 4
    1852:	71 05       	cpc	r23, r1
    1854:	09 f4       	brne	.+2      	; 0x1858 <oled_write_char+0xa>
    1856:	70 c0       	rjmp	.+224    	; 0x1938 <oled_write_char+0xea>
    1858:	1c f4       	brge	.+6      	; 0x1860 <oled_write_char+0x12>
    185a:	67 2b       	or	r22, r23
    185c:	89 f0       	breq	.+34     	; 0x1880 <oled_write_char+0x32>
    185e:	08 95       	ret
    1860:	66 30       	cpi	r22, 0x06	; 6
    1862:	71 05       	cpc	r23, r1
    1864:	09 f4       	brne	.+2      	; 0x1868 <oled_write_char+0x1a>
    1866:	40 c0       	rjmp	.+128    	; 0x18e8 <oled_write_char+0x9a>
    1868:	68 30       	cpi	r22, 0x08	; 8
    186a:	71 05       	cpc	r23, r1
    186c:	09 f0       	breq	.+2      	; 0x1870 <oled_write_char+0x22>
    186e:	b3 c0       	rjmp	.+358    	; 0x19d6 <oled_write_char+0x188>
		case 8 :
			for(int i=0; i<fontsize;i++){
    1870:	20 91 0a 01 	lds	r18, 0x010A	; 0x80010a <fontsize>
    1874:	30 91 0b 01 	lds	r19, 0x010B	; 0x80010b <fontsize+0x1>
    1878:	12 16       	cp	r1, r18
    187a:	13 06       	cpc	r1, r19
    187c:	54 f0       	brlt	.+20     	; 0x1892 <oled_write_char+0x44>
    187e:	08 95       	ret
				oled_wrd(pgm_read_word(&font4[c][i]));
				oled_position.coloumn++;
			}
			break;
		case 0 :
			for(int i=0; i<fontsize;i++){
    1880:	20 91 0a 01 	lds	r18, 0x010A	; 0x80010a <fontsize>
    1884:	30 91 0b 01 	lds	r19, 0x010B	; 0x80010b <fontsize+0x1>
    1888:	12 16       	cp	r1, r18
    188a:	13 06       	cpc	r1, r19
    188c:	0c f4       	brge	.+2      	; 0x1890 <oled_write_char+0x42>
    188e:	79 c0       	rjmp	.+242    	; 0x1982 <oled_write_char+0x134>
    1890:	08 95       	ret
    1892:	90 e0       	ldi	r25, 0x00	; 0
    1894:	88 0f       	add	r24, r24
    1896:	99 1f       	adc	r25, r25
    1898:	88 0f       	add	r24, r24
    189a:	99 1f       	adc	r25, r25
    189c:	88 0f       	add	r24, r24
    189e:	99 1f       	adc	r25, r25
void oled_write_char(char c, int fs){
	c=c-32;
	
	switch(fs){
		case 8 :
			for(int i=0; i<fontsize;i++){
    18a0:	20 e0       	ldi	r18, 0x00	; 0
    18a2:	30 e0       	ldi	r19, 0x00	; 0
				oled_wrd(pgm_read_word(&font8[c][i]));
				oled_position.coloumn++;
    18a4:	aa ee       	ldi	r26, 0xEA	; 234
    18a6:	b1 e0       	ldi	r27, 0x01	; 1
	c=c-32;
	
	switch(fs){
		case 8 :
			for(int i=0; i<fontsize;i++){
				oled_wrd(pgm_read_word(&font8[c][i]));
    18a8:	f9 01       	movw	r30, r18
    18aa:	e8 0f       	add	r30, r24
    18ac:	f9 1f       	adc	r31, r25
    18ae:	e3 51       	subi	r30, 0x13	; 19
    18b0:	f7 4f       	sbci	r31, 0xF7	; 247
    18b2:	45 91       	lpm	r20, Z+
    18b4:	54 91       	lpm	r21, Z
void oled_wrc(uint8_t data){
	ext_oled_command[0] = data;
}
//oled write data
void oled_wrd(uint8_t data){
	ext_oled_data[0] = data;
    18b6:	e0 91 06 01 	lds	r30, 0x0106	; 0x800106 <ext_oled_data>
    18ba:	f0 91 07 01 	lds	r31, 0x0107	; 0x800107 <ext_oled_data+0x1>
    18be:	40 83       	st	Z, r20
	
	switch(fs){
		case 8 :
			for(int i=0; i<fontsize;i++){
				oled_wrd(pgm_read_word(&font8[c][i]));
				oled_position.coloumn++;
    18c0:	12 96       	adiw	r26, 0x02	; 2
    18c2:	4d 91       	ld	r20, X+
    18c4:	5c 91       	ld	r21, X
    18c6:	13 97       	sbiw	r26, 0x03	; 3
    18c8:	4f 5f       	subi	r20, 0xFF	; 255
    18ca:	5f 4f       	sbci	r21, 0xFF	; 255
    18cc:	13 96       	adiw	r26, 0x03	; 3
    18ce:	5c 93       	st	X, r21
    18d0:	4e 93       	st	-X, r20
    18d2:	12 97       	sbiw	r26, 0x02	; 2
void oled_write_char(char c, int fs){
	c=c-32;
	
	switch(fs){
		case 8 :
			for(int i=0; i<fontsize;i++){
    18d4:	2f 5f       	subi	r18, 0xFF	; 255
    18d6:	3f 4f       	sbci	r19, 0xFF	; 255
    18d8:	40 91 0a 01 	lds	r20, 0x010A	; 0x80010a <fontsize>
    18dc:	50 91 0b 01 	lds	r21, 0x010B	; 0x80010b <fontsize+0x1>
    18e0:	24 17       	cp	r18, r20
    18e2:	35 07       	cpc	r19, r21
    18e4:	0c f3       	brlt	.-62     	; 0x18a8 <oled_write_char+0x5a>
    18e6:	08 95       	ret
    18e8:	90 e0       	ldi	r25, 0x00	; 0
    18ea:	9c 01       	movw	r18, r24
    18ec:	22 0f       	add	r18, r18
    18ee:	33 1f       	adc	r19, r19
    18f0:	82 0f       	add	r24, r18
    18f2:	93 1f       	adc	r25, r19
    18f4:	88 0f       	add	r24, r24
    18f6:	99 1f       	adc	r25, r25


void oled_write_char(char c, int fs){
	c=c-32;
	
	switch(fs){
    18f8:	20 e0       	ldi	r18, 0x00	; 0
    18fa:	30 e0       	ldi	r19, 0x00	; 0
			}
			break;
		case 6 :
			for(int i=0; i<6;i++){
				oled_wrd(pgm_read_word(&font6[c][i]));
				oled_position.coloumn++;
    18fc:	aa ee       	ldi	r26, 0xEA	; 234
    18fe:	b1 e0       	ldi	r27, 0x01	; 1
				oled_position.coloumn++;
			}
			break;
		case 6 :
			for(int i=0; i<6;i++){
				oled_wrd(pgm_read_word(&font6[c][i]));
    1900:	f9 01       	movw	r30, r18
    1902:	e8 0f       	add	r30, r24
    1904:	f9 1f       	adc	r31, r25
    1906:	ed 54       	subi	r30, 0x4D	; 77
    1908:	f9 4f       	sbci	r31, 0xF9	; 249
    190a:	45 91       	lpm	r20, Z+
    190c:	54 91       	lpm	r21, Z
void oled_wrc(uint8_t data){
	ext_oled_command[0] = data;
}
//oled write data
void oled_wrd(uint8_t data){
	ext_oled_data[0] = data;
    190e:	e0 91 06 01 	lds	r30, 0x0106	; 0x800106 <ext_oled_data>
    1912:	f0 91 07 01 	lds	r31, 0x0107	; 0x800107 <ext_oled_data+0x1>
    1916:	40 83       	st	Z, r20
			}
			break;
		case 6 :
			for(int i=0; i<6;i++){
				oled_wrd(pgm_read_word(&font6[c][i]));
				oled_position.coloumn++;
    1918:	12 96       	adiw	r26, 0x02	; 2
    191a:	4d 91       	ld	r20, X+
    191c:	5c 91       	ld	r21, X
    191e:	13 97       	sbiw	r26, 0x03	; 3
    1920:	4f 5f       	subi	r20, 0xFF	; 255
    1922:	5f 4f       	sbci	r21, 0xFF	; 255
    1924:	13 96       	adiw	r26, 0x03	; 3
    1926:	5c 93       	st	X, r21
    1928:	4e 93       	st	-X, r20
    192a:	12 97       	sbiw	r26, 0x02	; 2
				oled_wrd(pgm_read_word(&font8[c][i]));
				oled_position.coloumn++;
			}
			break;
		case 6 :
			for(int i=0; i<6;i++){
    192c:	2f 5f       	subi	r18, 0xFF	; 255
    192e:	3f 4f       	sbci	r19, 0xFF	; 255
    1930:	26 30       	cpi	r18, 0x06	; 6
    1932:	31 05       	cpc	r19, r1
    1934:	29 f7       	brne	.-54     	; 0x1900 <oled_write_char+0xb2>
    1936:	08 95       	ret
    1938:	90 e0       	ldi	r25, 0x00	; 0
    193a:	88 0f       	add	r24, r24
    193c:	99 1f       	adc	r25, r25
    193e:	88 0f       	add	r24, r24
    1940:	99 1f       	adc	r25, r25


void oled_write_char(char c, int fs){
	c=c-32;
	
	switch(fs){
    1942:	20 e0       	ldi	r18, 0x00	; 0
    1944:	30 e0       	ldi	r19, 0x00	; 0
			}
			break;
		case 4 :
			for(int i=0; i<4;i++){
				oled_wrd(pgm_read_word(&font4[c][i]));
				oled_position.coloumn++;
    1946:	aa ee       	ldi	r26, 0xEA	; 234
    1948:	b1 e0       	ldi	r27, 0x01	; 1
				oled_position.coloumn++;
			}
			break;
		case 4 :
			for(int i=0; i<4;i++){
				oled_wrd(pgm_read_word(&font4[c][i]));
    194a:	f9 01       	movw	r30, r18
    194c:	e8 0f       	add	r30, r24
    194e:	f9 1f       	adc	r31, r25
    1950:	e9 5c       	subi	r30, 0xC9	; 201
    1952:	fa 4f       	sbci	r31, 0xFA	; 250
    1954:	45 91       	lpm	r20, Z+
    1956:	54 91       	lpm	r21, Z
void oled_wrc(uint8_t data){
	ext_oled_command[0] = data;
}
//oled write data
void oled_wrd(uint8_t data){
	ext_oled_data[0] = data;
    1958:	e0 91 06 01 	lds	r30, 0x0106	; 0x800106 <ext_oled_data>
    195c:	f0 91 07 01 	lds	r31, 0x0107	; 0x800107 <ext_oled_data+0x1>
    1960:	40 83       	st	Z, r20
			}
			break;
		case 4 :
			for(int i=0; i<4;i++){
				oled_wrd(pgm_read_word(&font4[c][i]));
				oled_position.coloumn++;
    1962:	12 96       	adiw	r26, 0x02	; 2
    1964:	4d 91       	ld	r20, X+
    1966:	5c 91       	ld	r21, X
    1968:	13 97       	sbiw	r26, 0x03	; 3
    196a:	4f 5f       	subi	r20, 0xFF	; 255
    196c:	5f 4f       	sbci	r21, 0xFF	; 255
    196e:	13 96       	adiw	r26, 0x03	; 3
    1970:	5c 93       	st	X, r21
    1972:	4e 93       	st	-X, r20
    1974:	12 97       	sbiw	r26, 0x02	; 2
				oled_wrd(pgm_read_word(&font6[c][i]));
				oled_position.coloumn++;
			}
			break;
		case 4 :
			for(int i=0; i<4;i++){
    1976:	2f 5f       	subi	r18, 0xFF	; 255
    1978:	3f 4f       	sbci	r19, 0xFF	; 255
    197a:	24 30       	cpi	r18, 0x04	; 4
    197c:	31 05       	cpc	r19, r1
    197e:	29 f7       	brne	.-54     	; 0x194a <oled_write_char+0xfc>
    1980:	08 95       	ret
    1982:	90 e0       	ldi	r25, 0x00	; 0
    1984:	88 0f       	add	r24, r24
    1986:	99 1f       	adc	r25, r25
    1988:	88 0f       	add	r24, r24
    198a:	99 1f       	adc	r25, r25
    198c:	88 0f       	add	r24, r24
    198e:	99 1f       	adc	r25, r25
				oled_wrd(pgm_read_word(&font4[c][i]));
				oled_position.coloumn++;
			}
			break;
		case 0 :
			for(int i=0; i<fontsize;i++){
    1990:	40 e0       	ldi	r20, 0x00	; 0
    1992:	50 e0       	ldi	r21, 0x00	; 0
				oled_wrd(pgm_read_word(&font_animation[c][i]));
				oled_position.coloumn++;
    1994:	aa ee       	ldi	r26, 0xEA	; 234
    1996:	b1 e0       	ldi	r27, 0x01	; 1
				oled_position.coloumn++;
			}
			break;
		case 0 :
			for(int i=0; i<fontsize;i++){
				oled_wrd(pgm_read_word(&font_animation[c][i]));
    1998:	fa 01       	movw	r30, r20
    199a:	e8 0f       	add	r30, r24
    199c:	f9 1f       	adc	r31, r25
    199e:	e1 5c       	subi	r30, 0xC1	; 193
    19a0:	fd 4f       	sbci	r31, 0xFD	; 253
    19a2:	25 91       	lpm	r18, Z+
    19a4:	34 91       	lpm	r19, Z
void oled_wrc(uint8_t data){
	ext_oled_command[0] = data;
}
//oled write data
void oled_wrd(uint8_t data){
	ext_oled_data[0] = data;
    19a6:	e0 91 06 01 	lds	r30, 0x0106	; 0x800106 <ext_oled_data>
    19aa:	f0 91 07 01 	lds	r31, 0x0107	; 0x800107 <ext_oled_data+0x1>
    19ae:	20 83       	st	Z, r18
			}
			break;
		case 0 :
			for(int i=0; i<fontsize;i++){
				oled_wrd(pgm_read_word(&font_animation[c][i]));
				oled_position.coloumn++;
    19b0:	12 96       	adiw	r26, 0x02	; 2
    19b2:	2d 91       	ld	r18, X+
    19b4:	3c 91       	ld	r19, X
    19b6:	13 97       	sbiw	r26, 0x03	; 3
    19b8:	2f 5f       	subi	r18, 0xFF	; 255
    19ba:	3f 4f       	sbci	r19, 0xFF	; 255
    19bc:	13 96       	adiw	r26, 0x03	; 3
    19be:	3c 93       	st	X, r19
    19c0:	2e 93       	st	-X, r18
    19c2:	12 97       	sbiw	r26, 0x02	; 2
				oled_wrd(pgm_read_word(&font4[c][i]));
				oled_position.coloumn++;
			}
			break;
		case 0 :
			for(int i=0; i<fontsize;i++){
    19c4:	4f 5f       	subi	r20, 0xFF	; 255
    19c6:	5f 4f       	sbci	r21, 0xFF	; 255
    19c8:	20 91 0a 01 	lds	r18, 0x010A	; 0x80010a <fontsize>
    19cc:	30 91 0b 01 	lds	r19, 0x010B	; 0x80010b <fontsize+0x1>
    19d0:	42 17       	cp	r20, r18
    19d2:	53 07       	cpc	r21, r19
    19d4:	0c f3       	brlt	.-62     	; 0x1998 <oled_write_char+0x14a>
    19d6:	08 95       	ret

000019d8 <oled_print>:
	
}



void oled_print(char* word, int fs){
    19d8:	cf 92       	push	r12
    19da:	df 92       	push	r13
    19dc:	ef 92       	push	r14
    19de:	ff 92       	push	r15
    19e0:	0f 93       	push	r16
    19e2:	1f 93       	push	r17
    19e4:	cf 93       	push	r28
    19e6:	df 93       	push	r29
    19e8:	ec 01       	movw	r28, r24
    19ea:	7b 01       	movw	r14, r22
    19ec:	8c 01       	movw	r16, r24
	for( int i = 0; i < strlen(word); i++){
    19ee:	c1 2c       	mov	r12, r1
    19f0:	d1 2c       	mov	r13, r1
    19f2:	09 c0       	rjmp	.+18     	; 0x1a06 <oled_print+0x2e>
		oled_write_char(word[i], fs);
    19f4:	b7 01       	movw	r22, r14
    19f6:	f8 01       	movw	r30, r16
    19f8:	81 91       	ld	r24, Z+
    19fa:	8f 01       	movw	r16, r30
    19fc:	0e 94 27 0c 	call	0x184e	; 0x184e <oled_write_char>
}



void oled_print(char* word, int fs){
	for( int i = 0; i < strlen(word); i++){
    1a00:	ff ef       	ldi	r31, 0xFF	; 255
    1a02:	cf 1a       	sub	r12, r31
    1a04:	df 0a       	sbc	r13, r31
    1a06:	fe 01       	movw	r30, r28
    1a08:	01 90       	ld	r0, Z+
    1a0a:	00 20       	and	r0, r0
    1a0c:	e9 f7       	brne	.-6      	; 0x1a08 <oled_print+0x30>
    1a0e:	31 97       	sbiw	r30, 0x01	; 1
    1a10:	ec 1b       	sub	r30, r28
    1a12:	fd 0b       	sbc	r31, r29
    1a14:	ce 16       	cp	r12, r30
    1a16:	df 06       	cpc	r13, r31
    1a18:	68 f3       	brcs	.-38     	; 0x19f4 <oled_print+0x1c>
		oled_write_char(word[i], fs);
	}
}
    1a1a:	df 91       	pop	r29
    1a1c:	cf 91       	pop	r28
    1a1e:	1f 91       	pop	r17
    1a20:	0f 91       	pop	r16
    1a22:	ff 90       	pop	r15
    1a24:	ef 90       	pop	r14
    1a26:	df 90       	pop	r13
    1a28:	cf 90       	pop	r12
    1a2a:	08 95       	ret

00001a2c <oled_center_print>:

void oled_center_print(char* word, int fs){
    1a2c:	0f 93       	push	r16
    1a2e:	1f 93       	push	r17
    1a30:	cf 93       	push	r28
    1a32:	df 93       	push	r29
    1a34:	ec 01       	movw	r28, r24
    1a36:	8b 01       	movw	r16, r22
	oled_goto_col(63-(strlen(word)*fs/2));
    1a38:	fc 01       	movw	r30, r24
    1a3a:	01 90       	ld	r0, Z+
    1a3c:	00 20       	and	r0, r0
    1a3e:	e9 f7       	brne	.-6      	; 0x1a3a <oled_center_print+0xe>
    1a40:	31 97       	sbiw	r30, 0x01	; 1
    1a42:	e8 1b       	sub	r30, r24
    1a44:	f9 0b       	sbc	r31, r25
    1a46:	6e 9f       	mul	r22, r30
    1a48:	90 01       	movw	r18, r0
    1a4a:	6f 9f       	mul	r22, r31
    1a4c:	30 0d       	add	r19, r0
    1a4e:	7e 9f       	mul	r23, r30
    1a50:	30 0d       	add	r19, r0
    1a52:	11 24       	eor	r1, r1
    1a54:	36 95       	lsr	r19
    1a56:	27 95       	ror	r18
    1a58:	8f e3       	ldi	r24, 0x3F	; 63
    1a5a:	82 1b       	sub	r24, r18
    1a5c:	0e 94 b4 0b 	call	0x1768	; 0x1768 <oled_goto_col>
	oled_print(word, fs);
    1a60:	b8 01       	movw	r22, r16
    1a62:	ce 01       	movw	r24, r28
    1a64:	0e 94 ec 0c 	call	0x19d8	; 0x19d8 <oled_print>
}
    1a68:	df 91       	pop	r29
    1a6a:	cf 91       	pop	r28
    1a6c:	1f 91       	pop	r17
    1a6e:	0f 91       	pop	r16
    1a70:	08 95       	ret

00001a72 <oled_arrow>:

char* oled_arrow(char* name){
    1a72:	0f 93       	push	r16
    1a74:	1f 93       	push	r17
    1a76:	cf 93       	push	r28
    1a78:	df 93       	push	r29
    1a7a:	8c 01       	movw	r16, r24
	char* str = malloc(sizeof(char)*20);
    1a7c:	84 e1       	ldi	r24, 0x14	; 20
    1a7e:	90 e0       	ldi	r25, 0x00	; 0
    1a80:	0e 94 d1 0f 	call	0x1fa2	; 0x1fa2 <malloc>
    1a84:	ec 01       	movw	r28, r24
	strcpy(str,">");
    1a86:	8e e3       	ldi	r24, 0x3E	; 62
    1a88:	90 e0       	ldi	r25, 0x00	; 0
    1a8a:	99 83       	std	Y+1, r25	; 0x01
    1a8c:	88 83       	st	Y, r24
	strcat(str,name);
    1a8e:	b8 01       	movw	r22, r16
    1a90:	ce 01       	movw	r24, r28
    1a92:	0e 94 c8 11 	call	0x2390	; 0x2390 <strcat>
	strcat(str,"<");
    1a96:	fe 01       	movw	r30, r28
    1a98:	01 90       	ld	r0, Z+
    1a9a:	00 20       	and	r0, r0
    1a9c:	e9 f7       	brne	.-6      	; 0x1a98 <oled_arrow+0x26>
    1a9e:	31 97       	sbiw	r30, 0x01	; 1
    1aa0:	8c e3       	ldi	r24, 0x3C	; 60
    1aa2:	90 e0       	ldi	r25, 0x00	; 0
    1aa4:	91 83       	std	Z+1, r25	; 0x01
    1aa6:	80 83       	st	Z, r24
	return str;
}
    1aa8:	ce 01       	movw	r24, r28
    1aaa:	df 91       	pop	r29
    1aac:	cf 91       	pop	r28
    1aae:	1f 91       	pop	r17
    1ab0:	0f 91       	pop	r16
    1ab2:	08 95       	ret

00001ab4 <oled_animation_frame>:

void oled_animation_frame(char c, int col){
    1ab4:	cf 93       	push	r28
    1ab6:	c8 2f       	mov	r28, r24
	oled_goto_col(0);
    1ab8:	80 e0       	ldi	r24, 0x00	; 0
    1aba:	0e 94 b4 0b 	call	0x1768	; 0x1768 <oled_goto_col>
	oled_write_char(c,0);
    1abe:	60 e0       	ldi	r22, 0x00	; 0
    1ac0:	70 e0       	ldi	r23, 0x00	; 0
    1ac2:	8c 2f       	mov	r24, r28
    1ac4:	0e 94 27 0c 	call	0x184e	; 0x184e <oled_write_char>
    1ac8:	2f e5       	ldi	r18, 0x5F	; 95
    1aca:	8a ee       	ldi	r24, 0xEA	; 234
    1acc:	90 e0       	ldi	r25, 0x00	; 0
    1ace:	21 50       	subi	r18, 0x01	; 1
    1ad0:	80 40       	sbci	r24, 0x00	; 0
    1ad2:	90 40       	sbci	r25, 0x00	; 0
    1ad4:	e1 f7       	brne	.-8      	; 0x1ace <oled_animation_frame+0x1a>
    1ad6:	00 c0       	rjmp	.+0      	; 0x1ad8 <oled_animation_frame+0x24>
    1ad8:	00 00       	nop
	_delay_ms(300);
}
    1ada:	cf 91       	pop	r28
    1adc:	08 95       	ret

00001ade <oled_animation>:

void oled_animation(int page){
    1ade:	cf 93       	push	r28
    1ae0:	df 93       	push	r29
	oled_goto_page(page);
    1ae2:	0e 94 9c 0b 	call	0x1738	; 0x1738 <oled_goto_page>
	oled_goto_col(0);
    1ae6:	80 e0       	ldi	r24, 0x00	; 0
    1ae8:	0e 94 b4 0b 	call	0x1768	; 0x1768 <oled_goto_col>
    1aec:	c5 e0       	ldi	r28, 0x05	; 5
    1aee:	d0 e0       	ldi	r29, 0x00	; 0
	for( int i = 0; i < 5; i++){
		oled_animation_frame('A',0);
    1af0:	60 e0       	ldi	r22, 0x00	; 0
    1af2:	70 e0       	ldi	r23, 0x00	; 0
    1af4:	81 e4       	ldi	r24, 0x41	; 65
    1af6:	0e 94 5a 0d 	call	0x1ab4	; 0x1ab4 <oled_animation_frame>
		oled_animation_frame('B',0);
    1afa:	60 e0       	ldi	r22, 0x00	; 0
    1afc:	70 e0       	ldi	r23, 0x00	; 0
    1afe:	82 e4       	ldi	r24, 0x42	; 66
    1b00:	0e 94 5a 0d 	call	0x1ab4	; 0x1ab4 <oled_animation_frame>
		oled_animation_frame('C',0);
    1b04:	60 e0       	ldi	r22, 0x00	; 0
    1b06:	70 e0       	ldi	r23, 0x00	; 0
    1b08:	83 e4       	ldi	r24, 0x43	; 67
    1b0a:	0e 94 5a 0d 	call	0x1ab4	; 0x1ab4 <oled_animation_frame>
		oled_animation_frame('D',0);
    1b0e:	60 e0       	ldi	r22, 0x00	; 0
    1b10:	70 e0       	ldi	r23, 0x00	; 0
    1b12:	84 e4       	ldi	r24, 0x44	; 68
    1b14:	0e 94 5a 0d 	call	0x1ab4	; 0x1ab4 <oled_animation_frame>
		oled_animation_frame('E',0);
    1b18:	60 e0       	ldi	r22, 0x00	; 0
    1b1a:	70 e0       	ldi	r23, 0x00	; 0
    1b1c:	85 e4       	ldi	r24, 0x45	; 69
    1b1e:	0e 94 5a 0d 	call	0x1ab4	; 0x1ab4 <oled_animation_frame>
		oled_animation_frame('F',0);
    1b22:	60 e0       	ldi	r22, 0x00	; 0
    1b24:	70 e0       	ldi	r23, 0x00	; 0
    1b26:	86 e4       	ldi	r24, 0x46	; 70
    1b28:	0e 94 5a 0d 	call	0x1ab4	; 0x1ab4 <oled_animation_frame>
		oled_animation_frame('G',0);
    1b2c:	60 e0       	ldi	r22, 0x00	; 0
    1b2e:	70 e0       	ldi	r23, 0x00	; 0
    1b30:	87 e4       	ldi	r24, 0x47	; 71
    1b32:	0e 94 5a 0d 	call	0x1ab4	; 0x1ab4 <oled_animation_frame>
		oled_animation_frame('F',0);
    1b36:	60 e0       	ldi	r22, 0x00	; 0
    1b38:	70 e0       	ldi	r23, 0x00	; 0
    1b3a:	86 e4       	ldi	r24, 0x46	; 70
    1b3c:	0e 94 5a 0d 	call	0x1ab4	; 0x1ab4 <oled_animation_frame>
		oled_animation_frame('E',0);
    1b40:	60 e0       	ldi	r22, 0x00	; 0
    1b42:	70 e0       	ldi	r23, 0x00	; 0
    1b44:	85 e4       	ldi	r24, 0x45	; 69
    1b46:	0e 94 5a 0d 	call	0x1ab4	; 0x1ab4 <oled_animation_frame>
		oled_animation_frame('D',0);
    1b4a:	60 e0       	ldi	r22, 0x00	; 0
    1b4c:	70 e0       	ldi	r23, 0x00	; 0
    1b4e:	84 e4       	ldi	r24, 0x44	; 68
    1b50:	0e 94 5a 0d 	call	0x1ab4	; 0x1ab4 <oled_animation_frame>
		oled_animation_frame('C',0);
    1b54:	60 e0       	ldi	r22, 0x00	; 0
    1b56:	70 e0       	ldi	r23, 0x00	; 0
    1b58:	83 e4       	ldi	r24, 0x43	; 67
    1b5a:	0e 94 5a 0d 	call	0x1ab4	; 0x1ab4 <oled_animation_frame>
		oled_animation_frame('B',0);
    1b5e:	60 e0       	ldi	r22, 0x00	; 0
    1b60:	70 e0       	ldi	r23, 0x00	; 0
    1b62:	82 e4       	ldi	r24, 0x42	; 66
    1b64:	0e 94 5a 0d 	call	0x1ab4	; 0x1ab4 <oled_animation_frame>
		oled_animation_frame('A',0);
    1b68:	60 e0       	ldi	r22, 0x00	; 0
    1b6a:	70 e0       	ldi	r23, 0x00	; 0
    1b6c:	81 e4       	ldi	r24, 0x41	; 65
    1b6e:	0e 94 5a 0d 	call	0x1ab4	; 0x1ab4 <oled_animation_frame>
    1b72:	21 97       	sbiw	r28, 0x01	; 1
}

void oled_animation(int page){
	oled_goto_page(page);
	oled_goto_col(0);
	for( int i = 0; i < 5; i++){
    1b74:	09 f0       	breq	.+2      	; 0x1b78 <oled_animation+0x9a>
    1b76:	bc cf       	rjmp	.-136    	; 0x1af0 <oled_animation+0x12>
		oled_animation_frame('B',0);
		oled_animation_frame('A',0);
	
	}

}
    1b78:	df 91       	pop	r29
    1b7a:	cf 91       	pop	r28
    1b7c:	08 95       	ret

00001b7e <oled_init>:
int fontsize = 8;


//oled write command
void oled_wrc(uint8_t data){
	ext_oled_command[0] = data;
    1b7e:	e0 91 08 01 	lds	r30, 0x0108	; 0x800108 <ext_oled_command>
    1b82:	f0 91 09 01 	lds	r31, 0x0109	; 0x800109 <ext_oled_command+0x1>
    1b86:	8e ea       	ldi	r24, 0xAE	; 174
    1b88:	80 83       	st	Z, r24
    1b8a:	e0 91 08 01 	lds	r30, 0x0108	; 0x800108 <ext_oled_command>
    1b8e:	f0 91 09 01 	lds	r31, 0x0109	; 0x800109 <ext_oled_command+0x1>
    1b92:	81 ea       	ldi	r24, 0xA1	; 161
    1b94:	80 83       	st	Z, r24
    1b96:	e0 91 08 01 	lds	r30, 0x0108	; 0x800108 <ext_oled_command>
    1b9a:	f0 91 09 01 	lds	r31, 0x0109	; 0x800109 <ext_oled_command+0x1>
    1b9e:	8a ed       	ldi	r24, 0xDA	; 218
    1ba0:	80 83       	st	Z, r24
    1ba2:	e0 91 08 01 	lds	r30, 0x0108	; 0x800108 <ext_oled_command>
    1ba6:	f0 91 09 01 	lds	r31, 0x0109	; 0x800109 <ext_oled_command+0x1>
    1baa:	82 e1       	ldi	r24, 0x12	; 18
    1bac:	80 83       	st	Z, r24
    1bae:	e0 91 08 01 	lds	r30, 0x0108	; 0x800108 <ext_oled_command>
    1bb2:	f0 91 09 01 	lds	r31, 0x0109	; 0x800109 <ext_oled_command+0x1>
    1bb6:	88 ec       	ldi	r24, 0xC8	; 200
    1bb8:	80 83       	st	Z, r24
    1bba:	e0 91 08 01 	lds	r30, 0x0108	; 0x800108 <ext_oled_command>
    1bbe:	f0 91 09 01 	lds	r31, 0x0109	; 0x800109 <ext_oled_command+0x1>
    1bc2:	88 ea       	ldi	r24, 0xA8	; 168
    1bc4:	80 83       	st	Z, r24
    1bc6:	e0 91 08 01 	lds	r30, 0x0108	; 0x800108 <ext_oled_command>
    1bca:	f0 91 09 01 	lds	r31, 0x0109	; 0x800109 <ext_oled_command+0x1>
    1bce:	8f e3       	ldi	r24, 0x3F	; 63
    1bd0:	80 83       	st	Z, r24
    1bd2:	e0 91 08 01 	lds	r30, 0x0108	; 0x800108 <ext_oled_command>
    1bd6:	f0 91 09 01 	lds	r31, 0x0109	; 0x800109 <ext_oled_command+0x1>
    1bda:	85 ed       	ldi	r24, 0xD5	; 213
    1bdc:	80 83       	st	Z, r24
    1bde:	e0 91 08 01 	lds	r30, 0x0108	; 0x800108 <ext_oled_command>
    1be2:	f0 91 09 01 	lds	r31, 0x0109	; 0x800109 <ext_oled_command+0x1>
    1be6:	80 e8       	ldi	r24, 0x80	; 128
    1be8:	80 83       	st	Z, r24
    1bea:	e0 91 08 01 	lds	r30, 0x0108	; 0x800108 <ext_oled_command>
    1bee:	f0 91 09 01 	lds	r31, 0x0109	; 0x800109 <ext_oled_command+0x1>
    1bf2:	81 e8       	ldi	r24, 0x81	; 129
    1bf4:	80 83       	st	Z, r24
    1bf6:	e0 91 08 01 	lds	r30, 0x0108	; 0x800108 <ext_oled_command>
    1bfa:	f0 91 09 01 	lds	r31, 0x0109	; 0x800109 <ext_oled_command+0x1>
    1bfe:	80 e5       	ldi	r24, 0x50	; 80
    1c00:	80 83       	st	Z, r24
    1c02:	e0 91 08 01 	lds	r30, 0x0108	; 0x800108 <ext_oled_command>
    1c06:	f0 91 09 01 	lds	r31, 0x0109	; 0x800109 <ext_oled_command+0x1>
    1c0a:	89 ed       	ldi	r24, 0xD9	; 217
    1c0c:	80 83       	st	Z, r24
    1c0e:	e0 91 08 01 	lds	r30, 0x0108	; 0x800108 <ext_oled_command>
    1c12:	f0 91 09 01 	lds	r31, 0x0109	; 0x800109 <ext_oled_command+0x1>
    1c16:	81 e2       	ldi	r24, 0x21	; 33
    1c18:	80 83       	st	Z, r24
    1c1a:	e0 91 08 01 	lds	r30, 0x0108	; 0x800108 <ext_oled_command>
    1c1e:	f0 91 09 01 	lds	r31, 0x0109	; 0x800109 <ext_oled_command+0x1>
    1c22:	80 e2       	ldi	r24, 0x20	; 32
    1c24:	80 83       	st	Z, r24
    1c26:	e0 91 08 01 	lds	r30, 0x0108	; 0x800108 <ext_oled_command>
    1c2a:	f0 91 09 01 	lds	r31, 0x0109	; 0x800109 <ext_oled_command+0x1>
    1c2e:	82 e0       	ldi	r24, 0x02	; 2
    1c30:	80 83       	st	Z, r24
    1c32:	e0 91 08 01 	lds	r30, 0x0108	; 0x800108 <ext_oled_command>
    1c36:	f0 91 09 01 	lds	r31, 0x0109	; 0x800109 <ext_oled_command+0x1>
    1c3a:	8b ed       	ldi	r24, 0xDB	; 219
    1c3c:	80 83       	st	Z, r24
    1c3e:	e0 91 08 01 	lds	r30, 0x0108	; 0x800108 <ext_oled_command>
    1c42:	f0 91 09 01 	lds	r31, 0x0109	; 0x800109 <ext_oled_command+0x1>
    1c46:	80 e3       	ldi	r24, 0x30	; 48
    1c48:	80 83       	st	Z, r24
    1c4a:	e0 91 08 01 	lds	r30, 0x0108	; 0x800108 <ext_oled_command>
    1c4e:	f0 91 09 01 	lds	r31, 0x0109	; 0x800109 <ext_oled_command+0x1>
    1c52:	8d ea       	ldi	r24, 0xAD	; 173
    1c54:	80 83       	st	Z, r24
    1c56:	e0 91 08 01 	lds	r30, 0x0108	; 0x800108 <ext_oled_command>
    1c5a:	f0 91 09 01 	lds	r31, 0x0109	; 0x800109 <ext_oled_command+0x1>
    1c5e:	10 82       	st	Z, r1
    1c60:	e0 91 08 01 	lds	r30, 0x0108	; 0x800108 <ext_oled_command>
    1c64:	f0 91 09 01 	lds	r31, 0x0109	; 0x800109 <ext_oled_command+0x1>
    1c68:	84 ea       	ldi	r24, 0xA4	; 164
    1c6a:	80 83       	st	Z, r24
    1c6c:	e0 91 08 01 	lds	r30, 0x0108	; 0x800108 <ext_oled_command>
    1c70:	f0 91 09 01 	lds	r31, 0x0109	; 0x800109 <ext_oled_command+0x1>
    1c74:	86 ea       	ldi	r24, 0xA6	; 166
    1c76:	80 83       	st	Z, r24
    1c78:	e0 91 08 01 	lds	r30, 0x0108	; 0x800108 <ext_oled_command>
    1c7c:	f0 91 09 01 	lds	r31, 0x0109	; 0x800109 <ext_oled_command+0x1>
    1c80:	8f ea       	ldi	r24, 0xAF	; 175
    1c82:	80 83       	st	Z, r24
	      oled_wrc(0xad);        //master configuration
	      oled_wrc(0x00);
	      oled_wrc(0xa4);        //out follows RAM content
	      oled_wrc(0xa6);        //set normal display
	      oled_wrc(0xaf);        // display on
		  oled_clear_screen();
    1c84:	0e 94 f4 0b 	call	0x17e8	; 0x17e8 <oled_clear_screen>
		  oled_goto_pos(0,0);
    1c88:	60 e0       	ldi	r22, 0x00	; 0
    1c8a:	80 e0       	ldi	r24, 0x00	; 0
    1c8c:	0e 94 d5 0b 	call	0x17aa	; 0x17aa <oled_goto_pos>
    1c90:	08 95       	ret

00001c92 <spi_init>:
#include <stdint.h>


void spi_init(void){
	/* Set MOSI, SCK , Slave select output, all others become input*/
	DDRB = (1<<DDB5)|(1<<DDB7)|(1<<DDB4);
    1c92:	80 eb       	ldi	r24, 0xB0	; 176
    1c94:	87 bb       	out	0x17, r24	; 23
	
	//vet ikke hvorfor denne mptte vre output, men fr excercise 5 til  funke. blir masse loopingom ikke.
	DDRD |= (1<<PD2);
    1c96:	8a 9a       	sbi	0x11, 2	; 17

	
	/* Enable SPI, Master, set clock rate fck/16 */
	SPCR = (1<<SPE)|(1<<MSTR)|(1<<SPR0);
    1c98:	81 e5       	ldi	r24, 0x51	; 81
    1c9a:	8d b9       	out	0x0d, r24	; 13
	
	//Set slave select
	PORTB |= 1<<PB4;
    1c9c:	c4 9a       	sbi	0x18, 4	; 24
	
	//button pull up
	PORTB |= 1<<PB2;
    1c9e:	c2 9a       	sbi	0x18, 2	; 24
    1ca0:	08 95       	ret

00001ca2 <spi_send>:
	
}

void spi_send(uint8_t cData){
	/* Start transmission */
	SPDR = cData;
    1ca2:	8f b9       	out	0x0f, r24	; 15
	
	/* Wait for transmission complete */
	while(!(SPSR & (1<<SPIF)));
    1ca4:	77 9b       	sbis	0x0e, 7	; 14
    1ca6:	fe cf       	rjmp	.-4      	; 0x1ca4 <spi_send+0x2>
}
    1ca8:	08 95       	ret

00001caa <spi_read>:
uint8_t spi_read(){
	
	char dummyByte = 0x45; //0b01000101
	
	/* Start transmission of dummy byte such that Output from slave arrives at SPDR*/
	SPDR = dummyByte;
    1caa:	85 e4       	ldi	r24, 0x45	; 69
    1cac:	8f b9       	out	0x0f, r24	; 15
	
	/* Wait for transmission complete */
	while(!(SPSR & (1<<SPIF)));
    1cae:	77 9b       	sbis	0x0e, 7	; 14
    1cb0:	fe cf       	rjmp	.-4      	; 0x1cae <spi_read+0x4>
	
	/*Return data register*/
	return SPDR;
    1cb2:	8f b1       	in	r24, 0x0f	; 15
    1cb4:	08 95       	ret

00001cb6 <timer_init>:
static int seconds = 0;
static int mseconds = 0;

void timer_init(void){
	//TCCR0 |= (1<< CS00); //Clock with no prescaling 4.9 MHz? Change to get higher period. 
	TCCR0 |= (1<<CS02);
    1cb6:	83 b7       	in	r24, 0x33	; 51
    1cb8:	84 60       	ori	r24, 0x04	; 4
    1cba:	83 bf       	out	0x33, r24	; 51
	
	
	TCCR0 |= (1<<WGM01); //Set mode to 'Clear Timer on Compare'
    1cbc:	83 b7       	in	r24, 0x33	; 51
    1cbe:	88 60       	ori	r24, 0x08	; 8
    1cc0:	83 bf       	out	0x33, r24	; 51
	TCCR0 &= ~(1<<WGM00);
    1cc2:	83 b7       	in	r24, 0x33	; 51
    1cc4:	8f 7b       	andi	r24, 0xBF	; 191
    1cc6:	83 bf       	out	0x33, r24	; 51
	
	int8_t counterVal = 192; //set the number that counter stops and creates interrupt at.
	OCR0 |= counterVal;
    1cc8:	81 b7       	in	r24, 0x31	; 49
    1cca:	80 6c       	ori	r24, 0xC0	; 192
    1ccc:	81 bf       	out	0x31, r24	; 49

	TIMSK |= (1<< OCIE0); //Enable interrupt by Ouput Compare
    1cce:	89 b7       	in	r24, 0x39	; 57
    1cd0:	81 60       	ori	r24, 0x01	; 1
    1cd2:	89 bf       	out	0x39, r24	; 57
	sei(); //Enable global interrupts
    1cd4:	78 94       	sei
    1cd6:	08 95       	ret

00001cd8 <__vector_16>:
}

ISR(TIMER0_COMP_vect){
    1cd8:	1f 92       	push	r1
    1cda:	0f 92       	push	r0
    1cdc:	0f b6       	in	r0, 0x3f	; 63
    1cde:	0f 92       	push	r0
    1ce0:	11 24       	eor	r1, r1
    1ce2:	2f 93       	push	r18
    1ce4:	3f 93       	push	r19
    1ce6:	4f 93       	push	r20
    1ce8:	5f 93       	push	r21
    1cea:	6f 93       	push	r22
    1cec:	7f 93       	push	r23
    1cee:	8f 93       	push	r24
    1cf0:	9f 93       	push	r25
    1cf2:	af 93       	push	r26
    1cf4:	bf 93       	push	r27
    1cf6:	ef 93       	push	r30
    1cf8:	ff 93       	push	r31
	
	
	counter++;
    1cfa:	20 91 e6 01 	lds	r18, 0x01E6	; 0x8001e6 <counter>
    1cfe:	30 91 e7 01 	lds	r19, 0x01E7	; 0x8001e7 <counter+0x1>
    1d02:	2f 5f       	subi	r18, 0xFF	; 255
    1d04:	3f 4f       	sbci	r19, 0xFF	; 255
    1d06:	30 93 e7 01 	sts	0x01E7, r19	; 0x8001e7 <counter+0x1>
    1d0a:	20 93 e6 01 	sts	0x01E6, r18	; 0x8001e6 <counter>
	if(counter%10 == 0){
    1d0e:	c9 01       	movw	r24, r18
    1d10:	6a e0       	ldi	r22, 0x0A	; 10
    1d12:	70 e0       	ldi	r23, 0x00	; 0
    1d14:	0e 94 a9 0f 	call	0x1f52	; 0x1f52 <__divmodhi4>
    1d18:	89 2b       	or	r24, r25
    1d1a:	a9 f5       	brne	.+106    	; 0x1d86 <__vector_16+0xae>
		mseconds++;
    1d1c:	80 91 e2 01 	lds	r24, 0x01E2	; 0x8001e2 <mseconds>
    1d20:	90 91 e3 01 	lds	r25, 0x01E3	; 0x8001e3 <mseconds+0x1>
    1d24:	01 96       	adiw	r24, 0x01	; 1
    1d26:	90 93 e3 01 	sts	0x01E3, r25	; 0x8001e3 <mseconds+0x1>
    1d2a:	80 93 e2 01 	sts	0x01E2, r24	; 0x8001e2 <mseconds>
		
		if(counter%100 == 0){
    1d2e:	c9 01       	movw	r24, r18
    1d30:	64 e6       	ldi	r22, 0x64	; 100
    1d32:	70 e0       	ldi	r23, 0x00	; 0
    1d34:	0e 94 a9 0f 	call	0x1f52	; 0x1f52 <__divmodhi4>
    1d38:	89 2b       	or	r24, r25
    1d3a:	69 f4       	brne	.+26     	; 0x1d56 <__vector_16+0x7e>
			seconds++;
    1d3c:	80 91 e4 01 	lds	r24, 0x01E4	; 0x8001e4 <seconds>
    1d40:	90 91 e5 01 	lds	r25, 0x01E5	; 0x8001e5 <seconds+0x1>
    1d44:	01 96       	adiw	r24, 0x01	; 1
    1d46:	90 93 e5 01 	sts	0x01E5, r25	; 0x8001e5 <seconds+0x1>
    1d4a:	80 93 e4 01 	sts	0x01E4, r24	; 0x8001e4 <seconds>
			mseconds = 0;
    1d4e:	10 92 e3 01 	sts	0x01E3, r1	; 0x8001e3 <mseconds+0x1>
    1d52:	10 92 e2 01 	sts	0x01E2, r1	; 0x8001e2 <mseconds>
		}
		printf("Time: %d,%d \n\r", seconds, mseconds);
    1d56:	80 91 e3 01 	lds	r24, 0x01E3	; 0x8001e3 <mseconds+0x1>
    1d5a:	8f 93       	push	r24
    1d5c:	80 91 e2 01 	lds	r24, 0x01E2	; 0x8001e2 <mseconds>
    1d60:	8f 93       	push	r24
    1d62:	80 91 e5 01 	lds	r24, 0x01E5	; 0x8001e5 <seconds+0x1>
    1d66:	8f 93       	push	r24
    1d68:	80 91 e4 01 	lds	r24, 0x01E4	; 0x8001e4 <seconds>
    1d6c:	8f 93       	push	r24
    1d6e:	81 ea       	ldi	r24, 0xA1	; 161
    1d70:	91 e0       	ldi	r25, 0x01	; 1
    1d72:	9f 93       	push	r25
    1d74:	8f 93       	push	r24
    1d76:	0e 94 1e 12 	call	0x243c	; 0x243c <printf>
    1d7a:	0f 90       	pop	r0
    1d7c:	0f 90       	pop	r0
    1d7e:	0f 90       	pop	r0
    1d80:	0f 90       	pop	r0
    1d82:	0f 90       	pop	r0
    1d84:	0f 90       	pop	r0
	}
	
	//LEgg til start og stopp "Knapp"
    1d86:	ff 91       	pop	r31
    1d88:	ef 91       	pop	r30
    1d8a:	bf 91       	pop	r27
    1d8c:	af 91       	pop	r26
    1d8e:	9f 91       	pop	r25
    1d90:	8f 91       	pop	r24
    1d92:	7f 91       	pop	r23
    1d94:	6f 91       	pop	r22
    1d96:	5f 91       	pop	r21
    1d98:	4f 91       	pop	r20
    1d9a:	3f 91       	pop	r19
    1d9c:	2f 91       	pop	r18
    1d9e:	0f 90       	pop	r0
    1da0:	0f be       	out	0x3f, r0	; 63
    1da2:	0f 90       	pop	r0
    1da4:	1f 90       	pop	r1
    1da6:	18 95       	reti

00001da8 <USART_Init>:
	return 0;
}


void USART_Init( unsigned int ubrr){
	UBRR0H = (unsigned char)(ubrr>>8);
    1da8:	90 bd       	out	0x20, r25	; 32
	UBRR0L = (unsigned char)ubrr;
    1daa:	89 b9       	out	0x09, r24	; 9
	
	UCSR0B = (1<<RXEN0)|(1<<TXEN0);
    1dac:	88 e1       	ldi	r24, 0x18	; 24
    1dae:	8a b9       	out	0x0a, r24	; 10
	
	UCSR0C = (1<<URSEL0)|(1<<USBS0)|(3<<UCSZ00);
    1db0:	8e e8       	ldi	r24, 0x8E	; 142
    1db2:	80 bd       	out	0x20, r24	; 32
	
	fdevopen(USART_PUTCHAR,NULL);
    1db4:	60 e0       	ldi	r22, 0x00	; 0
    1db6:	70 e0       	ldi	r23, 0x00	; 0
    1db8:	85 ee       	ldi	r24, 0xE5	; 229
    1dba:	9e e0       	ldi	r25, 0x0E	; 14
    1dbc:	0e 94 d3 11 	call	0x23a6	; 0x23a6 <fdevopen>
    1dc0:	08 95       	ret

00001dc2 <USART_Transmit>:
}

//Transmit function
void USART_Transmit( unsigned char data){
	
	while ( !( UCSR0A & (1<<UDRE0)));
    1dc2:	5d 9b       	sbis	0x0b, 5	; 11
    1dc4:	fe cf       	rjmp	.-4      	; 0x1dc2 <USART_Transmit>
	UDR0 = data;
    1dc6:	8c b9       	out	0x0c, r24	; 12
    1dc8:	08 95       	ret

00001dca <USART_PUTCHAR>:


//Side 176, atmega datablad

int USART_PUTCHAR(char data ,FILE* unused){
	USART_Transmit(data);
    1dca:	0e 94 e1 0e 	call	0x1dc2	; 0x1dc2 <USART_Transmit>
	return 0;
}
    1dce:	80 e0       	ldi	r24, 0x00	; 0
    1dd0:	90 e0       	ldi	r25, 0x00	; 0
    1dd2:	08 95       	ret

00001dd4 <xmem_init>:
#include <avr/io.h>
#include "DRIVER_XMEM.h"

//Init function
void xmem_init(void){
	MCUCR |= (1 << SRE); //enable XMEM
    1dd4:	85 b7       	in	r24, 0x35	; 53
    1dd6:	80 68       	ori	r24, 0x80	; 128
    1dd8:	85 bf       	out	0x35, r24	; 53
	SFIOR |= (1 << XMM2); //Mask unused bits/pins, which is PC4-PC7
    1dda:	80 b7       	in	r24, 0x30	; 48
    1ddc:	80 62       	ori	r24, 0x20	; 32
    1dde:	80 bf       	out	0x30, r24	; 48
    1de0:	08 95       	ret

00001de2 <xmem_write>:
}
//Write function. //Somehow works badly when calling this function from main? Works perfectly by just copy-pasting code to main.
void xmem_write(uint8_t data, uint16_t addr){
	volatile char *ext_mem = (char *) 0x1000;
	ext_mem[addr] = data;
    1de2:	fb 01       	movw	r30, r22
    1de4:	f0 5f       	subi	r31, 0xF0	; 240
    1de6:	80 83       	st	Z, r24
    1de8:	08 95       	ret

00001dea <xmem_read>:
}

//Read function
uint8_t xmem_read(uint16_t addr){
	volatile char *ext_mem = (char *) 0x1000;
	uint8_t ret_val = ext_mem[addr];
    1dea:	90 5f       	subi	r25, 0xF0	; 240
    1dec:	fc 01       	movw	r30, r24
    1dee:	80 81       	ld	r24, Z
	return ret_val;
}
    1df0:	08 95       	ret

00001df2 <mcp_read>:
	spi_send(mask);			
	spi_send(data);
	
	PORTB |= (1<<PB4);
	
}
    1df2:	cf 93       	push	r28
    1df4:	c8 2f       	mov	r28, r24
    1df6:	c4 98       	cbi	0x18, 4	; 24
    1df8:	83 e0       	ldi	r24, 0x03	; 3
    1dfa:	0e 94 51 0e 	call	0x1ca2	; 0x1ca2 <spi_send>
    1dfe:	8c 2f       	mov	r24, r28
    1e00:	0e 94 51 0e 	call	0x1ca2	; 0x1ca2 <spi_send>
    1e04:	0e 94 55 0e 	call	0x1caa	; 0x1caa <spi_read>
    1e08:	c4 9a       	sbi	0x18, 4	; 24
    1e0a:	cf 91       	pop	r28
    1e0c:	08 95       	ret

00001e0e <mcp_write>:
    1e0e:	cf 93       	push	r28
    1e10:	df 93       	push	r29
    1e12:	d8 2f       	mov	r29, r24
    1e14:	c6 2f       	mov	r28, r22
    1e16:	c4 98       	cbi	0x18, 4	; 24
    1e18:	82 e0       	ldi	r24, 0x02	; 2
    1e1a:	0e 94 51 0e 	call	0x1ca2	; 0x1ca2 <spi_send>
    1e1e:	8d 2f       	mov	r24, r29
    1e20:	0e 94 51 0e 	call	0x1ca2	; 0x1ca2 <spi_send>
    1e24:	8c 2f       	mov	r24, r28
    1e26:	0e 94 51 0e 	call	0x1ca2	; 0x1ca2 <spi_send>
    1e2a:	c4 9a       	sbi	0x18, 4	; 24
    1e2c:	df 91       	pop	r29
    1e2e:	cf 91       	pop	r28
    1e30:	08 95       	ret

00001e32 <mcp_req_to_send>:
    1e32:	c4 98       	cbi	0x18, 4	; 24
    1e34:	0e 94 51 0e 	call	0x1ca2	; 0x1ca2 <spi_send>
    1e38:	c4 9a       	sbi	0x18, 4	; 24
    1e3a:	08 95       	ret

00001e3c <mcp_reset>:

//Re-initialize the internal registers of the MCP2515
void mcp_reset(void){
	
	PORTB &= ~(1<<PB4);
    1e3c:	c4 98       	cbi	0x18, 4	; 24
	
	spi_send(MCP_RESET); //0xC0		0b1100 0000
    1e3e:	80 ec       	ldi	r24, 0xC0	; 192
    1e40:	0e 94 51 0e 	call	0x1ca2	; 0x1ca2 <spi_send>
	
	PORTB |= (1<<PB4);
    1e44:	c4 9a       	sbi	0x18, 4	; 24
    1e46:	8f e3       	ldi	r24, 0x3F	; 63
    1e48:	9c e9       	ldi	r25, 0x9C	; 156
    1e4a:	01 97       	sbiw	r24, 0x01	; 1
    1e4c:	f1 f7       	brne	.-4      	; 0x1e4a <mcp_reset+0xe>
    1e4e:	00 c0       	rjmp	.+0      	; 0x1e50 <mcp_reset+0x14>
    1e50:	00 00       	nop
    1e52:	08 95       	ret

00001e54 <mcp_init>:
}

void mcp_init(){
	
	uint8_t value;
	spi_init();
    1e54:	0e 94 49 0e 	call	0x1c92	; 0x1c92 <spi_init>
	mcp_reset();
    1e58:	0e 94 1e 0f 	call	0x1e3c	; 0x1e3c <mcp_reset>
    1e5c:	8f e3       	ldi	r24, 0x3F	; 63
    1e5e:	9f e1       	ldi	r25, 0x1F	; 31
    1e60:	01 97       	sbiw	r24, 0x01	; 1
    1e62:	f1 f7       	brne	.-4      	; 0x1e60 <mcp_init+0xc>
    1e64:	00 c0       	rjmp	.+0      	; 0x1e66 <mcp_init+0x12>
    1e66:	00 00       	nop
	_delay_ms(2); //controller needs some time to do internal initialization.
	
	

	value = mcp_read(MCP_CANSTAT);
    1e68:	8e e0       	ldi	r24, 0x0E	; 14
    1e6a:	0e 94 f9 0e 	call	0x1df2	; 0x1df2 <mcp_read>
	
 	if ((value & MODE_MASK) != MODE_CONFIG){
    1e6e:	98 2f       	mov	r25, r24
    1e70:	90 7e       	andi	r25, 0xE0	; 224
    1e72:	90 38       	cpi	r25, 0x80	; 128
    1e74:	61 f0       	breq	.+24     	; 0x1e8e <mcp_init+0x3a>
 		printf("Not in config mode after reset! value: %x \n\r", value);
    1e76:	1f 92       	push	r1
    1e78:	8f 93       	push	r24
    1e7a:	80 eb       	ldi	r24, 0xB0	; 176
    1e7c:	91 e0       	ldi	r25, 0x01	; 1
    1e7e:	9f 93       	push	r25
    1e80:	8f 93       	push	r24
    1e82:	0e 94 1e 12 	call	0x243c	; 0x243c <printf>
    1e86:	0f 90       	pop	r0
    1e88:	0f 90       	pop	r0
    1e8a:	0f 90       	pop	r0
    1e8c:	0f 90       	pop	r0
    1e8e:	08 95       	ret

00001e90 <main>:
#define MYUBRR FOSC/16/BAUD-1 //UART Baud Rate Register


int main(void){
	
	USART_Init(MYUBRR);
    1e90:	8f e1       	ldi	r24, 0x1F	; 31
    1e92:	90 e0       	ldi	r25, 0x00	; 0
    1e94:	0e 94 d4 0e 	call	0x1da8	; 0x1da8 <USART_Init>
	xmem_init();
    1e98:	0e 94 ea 0e 	call	0x1dd4	; 0x1dd4 <xmem_init>
	oled_init();
    1e9c:	0e 94 bf 0d 	call	0x1b7e	; 0x1b7e <oled_init>
	menu_init();
    1ea0:	0e 94 c9 09 	call	0x1392	; 0x1392 <menu_init>
	adc_init();
    1ea4:	0e 94 29 06 	call	0xc52	; 0xc52 <adc_init>
	joystick_calibrate();
    1ea8:	0e 94 a0 06 	call	0xd40	; 0xd40 <joystick_calibrate>
	can_init();
    1eac:	0e 94 45 06 	call	0xc8a	; 0xc8a <can_init>
	timer_init();
    1eb0:	0e 94 5b 0e 	call	0x1cb6	; 0x1cb6 <timer_init>
	
	oled_animation(8);
    1eb4:	88 e0       	ldi	r24, 0x08	; 8
    1eb6:	90 e0       	ldi	r25, 0x00	; 0
    1eb8:	0e 94 6f 0d 	call	0x1ade	; 0x1ade <oled_animation>
	#else
		//round up by default
		__ticks_dc = (uint32_t)(ceil(fabs(__tmp)));
	#endif

	__builtin_avr_delay_cycles(__ticks_dc);
    1ebc:	85 e0       	ldi	r24, 0x05	; 5
    1ebe:	8a 95       	dec	r24
    1ec0:	f1 f7       	brne	.-4      	; 0x1ebe <main+0x2e>
    1ec2:	00 00       	nop
	
	while(1){
		_delay_us(1);
		navigate();
    1ec4:	0e 94 64 0a 	call	0x14c8	; 0x14c8 <navigate>
    1ec8:	f9 cf       	rjmp	.-14     	; 0x1ebc <main+0x2c>

00001eca <util_sort>:
    1eca:	cf 93       	push	r28
    1ecc:	df 93       	push	r29
    1ece:	eb 01       	movw	r28, r22
    1ed0:	21 97       	sbiw	r28, 0x01	; 1
    1ed2:	1c 16       	cp	r1, r28
    1ed4:	1d 06       	cpc	r1, r29
    1ed6:	14 f5       	brge	.+68     	; 0x1f1c <util_sort+0x52>
    1ed8:	61 50       	subi	r22, 0x01	; 1
    1eda:	70 48       	sbci	r23, 0x80	; 128
    1edc:	66 0f       	add	r22, r22
    1ede:	77 1f       	adc	r23, r23
    1ee0:	68 0f       	add	r22, r24
    1ee2:	79 1f       	adc	r23, r25
    1ee4:	17 c0       	rjmp	.+46     	; 0x1f14 <util_sort+0x4a>
    1ee6:	fc 01       	movw	r30, r24
    1ee8:	21 91       	ld	r18, Z+
    1eea:	31 91       	ld	r19, Z+
    1eec:	40 81       	ld	r20, Z
    1eee:	51 81       	ldd	r21, Z+1	; 0x01
    1ef0:	42 17       	cp	r20, r18
    1ef2:	53 07       	cpc	r21, r19
    1ef4:	34 f4       	brge	.+12     	; 0x1f02 <util_sort+0x38>
    1ef6:	df 01       	movw	r26, r30
    1ef8:	12 97       	sbiw	r26, 0x02	; 2
    1efa:	4d 93       	st	X+, r20
    1efc:	5c 93       	st	X, r21
    1efe:	31 83       	std	Z+1, r19	; 0x01
    1f00:	20 83       	st	Z, r18
    1f02:	e6 17       	cp	r30, r22
    1f04:	f7 07       	cpc	r31, r23
    1f06:	81 f7       	brne	.-32     	; 0x1ee8 <util_sort+0x1e>
    1f08:	21 97       	sbiw	r28, 0x01	; 1
    1f0a:	62 50       	subi	r22, 0x02	; 2
    1f0c:	71 09       	sbc	r23, r1
    1f0e:	68 17       	cp	r22, r24
    1f10:	79 07       	cpc	r23, r25
    1f12:	21 f0       	breq	.+8      	; 0x1f1c <util_sort+0x52>
    1f14:	1c 16       	cp	r1, r28
    1f16:	1d 06       	cpc	r1, r29
    1f18:	34 f3       	brlt	.-52     	; 0x1ee6 <util_sort+0x1c>
    1f1a:	f6 cf       	rjmp	.-20     	; 0x1f08 <util_sort+0x3e>
    1f1c:	df 91       	pop	r29
    1f1e:	cf 91       	pop	r28
    1f20:	08 95       	ret

00001f22 <util_median>:
    1f22:	0f 93       	push	r16
    1f24:	1f 93       	push	r17
    1f26:	cf 93       	push	r28
    1f28:	df 93       	push	r29
    1f2a:	8c 01       	movw	r16, r24
    1f2c:	eb 01       	movw	r28, r22
    1f2e:	0e 94 65 0f 	call	0x1eca	; 0x1eca <util_sort>
    1f32:	21 96       	adiw	r28, 0x01	; 1
    1f34:	ce 01       	movw	r24, r28
    1f36:	0a f4       	brpl	.+2      	; 0x1f3a <util_median+0x18>
    1f38:	01 96       	adiw	r24, 0x01	; 1
    1f3a:	fc 01       	movw	r30, r24
    1f3c:	ee 7f       	andi	r30, 0xFE	; 254
    1f3e:	32 97       	sbiw	r30, 0x02	; 2
    1f40:	e0 0f       	add	r30, r16
    1f42:	f1 1f       	adc	r31, r17
    1f44:	80 81       	ld	r24, Z
    1f46:	91 81       	ldd	r25, Z+1	; 0x01
    1f48:	df 91       	pop	r29
    1f4a:	cf 91       	pop	r28
    1f4c:	1f 91       	pop	r17
    1f4e:	0f 91       	pop	r16
    1f50:	08 95       	ret

00001f52 <__divmodhi4>:
    1f52:	97 fb       	bst	r25, 7
    1f54:	07 2e       	mov	r0, r23
    1f56:	16 f4       	brtc	.+4      	; 0x1f5c <__divmodhi4+0xa>
    1f58:	00 94       	com	r0
    1f5a:	07 d0       	rcall	.+14     	; 0x1f6a <__divmodhi4_neg1>
    1f5c:	77 fd       	sbrc	r23, 7
    1f5e:	09 d0       	rcall	.+18     	; 0x1f72 <__divmodhi4_neg2>
    1f60:	0e 94 bd 0f 	call	0x1f7a	; 0x1f7a <__udivmodhi4>
    1f64:	07 fc       	sbrc	r0, 7
    1f66:	05 d0       	rcall	.+10     	; 0x1f72 <__divmodhi4_neg2>
    1f68:	3e f4       	brtc	.+14     	; 0x1f78 <__divmodhi4_exit>

00001f6a <__divmodhi4_neg1>:
    1f6a:	90 95       	com	r25
    1f6c:	81 95       	neg	r24
    1f6e:	9f 4f       	sbci	r25, 0xFF	; 255
    1f70:	08 95       	ret

00001f72 <__divmodhi4_neg2>:
    1f72:	70 95       	com	r23
    1f74:	61 95       	neg	r22
    1f76:	7f 4f       	sbci	r23, 0xFF	; 255

00001f78 <__divmodhi4_exit>:
    1f78:	08 95       	ret

00001f7a <__udivmodhi4>:
    1f7a:	aa 1b       	sub	r26, r26
    1f7c:	bb 1b       	sub	r27, r27
    1f7e:	51 e1       	ldi	r21, 0x11	; 17
    1f80:	07 c0       	rjmp	.+14     	; 0x1f90 <__udivmodhi4_ep>

00001f82 <__udivmodhi4_loop>:
    1f82:	aa 1f       	adc	r26, r26
    1f84:	bb 1f       	adc	r27, r27
    1f86:	a6 17       	cp	r26, r22
    1f88:	b7 07       	cpc	r27, r23
    1f8a:	10 f0       	brcs	.+4      	; 0x1f90 <__udivmodhi4_ep>
    1f8c:	a6 1b       	sub	r26, r22
    1f8e:	b7 0b       	sbc	r27, r23

00001f90 <__udivmodhi4_ep>:
    1f90:	88 1f       	adc	r24, r24
    1f92:	99 1f       	adc	r25, r25
    1f94:	5a 95       	dec	r21
    1f96:	a9 f7       	brne	.-22     	; 0x1f82 <__udivmodhi4_loop>
    1f98:	80 95       	com	r24
    1f9a:	90 95       	com	r25
    1f9c:	bc 01       	movw	r22, r24
    1f9e:	cd 01       	movw	r24, r26
    1fa0:	08 95       	ret

00001fa2 <malloc>:
    1fa2:	0f 93       	push	r16
    1fa4:	1f 93       	push	r17
    1fa6:	cf 93       	push	r28
    1fa8:	df 93       	push	r29
    1faa:	82 30       	cpi	r24, 0x02	; 2
    1fac:	91 05       	cpc	r25, r1
    1fae:	10 f4       	brcc	.+4      	; 0x1fb4 <malloc+0x12>
    1fb0:	82 e0       	ldi	r24, 0x02	; 2
    1fb2:	90 e0       	ldi	r25, 0x00	; 0
    1fb4:	e0 91 f2 01 	lds	r30, 0x01F2	; 0x8001f2 <__flp>
    1fb8:	f0 91 f3 01 	lds	r31, 0x01F3	; 0x8001f3 <__flp+0x1>
    1fbc:	20 e0       	ldi	r18, 0x00	; 0
    1fbe:	30 e0       	ldi	r19, 0x00	; 0
    1fc0:	a0 e0       	ldi	r26, 0x00	; 0
    1fc2:	b0 e0       	ldi	r27, 0x00	; 0
    1fc4:	30 97       	sbiw	r30, 0x00	; 0
    1fc6:	19 f1       	breq	.+70     	; 0x200e <malloc+0x6c>
    1fc8:	40 81       	ld	r20, Z
    1fca:	51 81       	ldd	r21, Z+1	; 0x01
    1fcc:	02 81       	ldd	r16, Z+2	; 0x02
    1fce:	13 81       	ldd	r17, Z+3	; 0x03
    1fd0:	48 17       	cp	r20, r24
    1fd2:	59 07       	cpc	r21, r25
    1fd4:	c8 f0       	brcs	.+50     	; 0x2008 <malloc+0x66>
    1fd6:	84 17       	cp	r24, r20
    1fd8:	95 07       	cpc	r25, r21
    1fda:	69 f4       	brne	.+26     	; 0x1ff6 <malloc+0x54>
    1fdc:	10 97       	sbiw	r26, 0x00	; 0
    1fde:	31 f0       	breq	.+12     	; 0x1fec <malloc+0x4a>
    1fe0:	12 96       	adiw	r26, 0x02	; 2
    1fe2:	0c 93       	st	X, r16
    1fe4:	12 97       	sbiw	r26, 0x02	; 2
    1fe6:	13 96       	adiw	r26, 0x03	; 3
    1fe8:	1c 93       	st	X, r17
    1fea:	27 c0       	rjmp	.+78     	; 0x203a <malloc+0x98>
    1fec:	00 93 f2 01 	sts	0x01F2, r16	; 0x8001f2 <__flp>
    1ff0:	10 93 f3 01 	sts	0x01F3, r17	; 0x8001f3 <__flp+0x1>
    1ff4:	22 c0       	rjmp	.+68     	; 0x203a <malloc+0x98>
    1ff6:	21 15       	cp	r18, r1
    1ff8:	31 05       	cpc	r19, r1
    1ffa:	19 f0       	breq	.+6      	; 0x2002 <malloc+0x60>
    1ffc:	42 17       	cp	r20, r18
    1ffe:	53 07       	cpc	r21, r19
    2000:	18 f4       	brcc	.+6      	; 0x2008 <malloc+0x66>
    2002:	9a 01       	movw	r18, r20
    2004:	bd 01       	movw	r22, r26
    2006:	ef 01       	movw	r28, r30
    2008:	df 01       	movw	r26, r30
    200a:	f8 01       	movw	r30, r16
    200c:	db cf       	rjmp	.-74     	; 0x1fc4 <malloc+0x22>
    200e:	21 15       	cp	r18, r1
    2010:	31 05       	cpc	r19, r1
    2012:	f9 f0       	breq	.+62     	; 0x2052 <malloc+0xb0>
    2014:	28 1b       	sub	r18, r24
    2016:	39 0b       	sbc	r19, r25
    2018:	24 30       	cpi	r18, 0x04	; 4
    201a:	31 05       	cpc	r19, r1
    201c:	80 f4       	brcc	.+32     	; 0x203e <malloc+0x9c>
    201e:	8a 81       	ldd	r24, Y+2	; 0x02
    2020:	9b 81       	ldd	r25, Y+3	; 0x03
    2022:	61 15       	cp	r22, r1
    2024:	71 05       	cpc	r23, r1
    2026:	21 f0       	breq	.+8      	; 0x2030 <malloc+0x8e>
    2028:	fb 01       	movw	r30, r22
    202a:	93 83       	std	Z+3, r25	; 0x03
    202c:	82 83       	std	Z+2, r24	; 0x02
    202e:	04 c0       	rjmp	.+8      	; 0x2038 <malloc+0x96>
    2030:	90 93 f3 01 	sts	0x01F3, r25	; 0x8001f3 <__flp+0x1>
    2034:	80 93 f2 01 	sts	0x01F2, r24	; 0x8001f2 <__flp>
    2038:	fe 01       	movw	r30, r28
    203a:	32 96       	adiw	r30, 0x02	; 2
    203c:	44 c0       	rjmp	.+136    	; 0x20c6 <malloc+0x124>
    203e:	fe 01       	movw	r30, r28
    2040:	e2 0f       	add	r30, r18
    2042:	f3 1f       	adc	r31, r19
    2044:	81 93       	st	Z+, r24
    2046:	91 93       	st	Z+, r25
    2048:	22 50       	subi	r18, 0x02	; 2
    204a:	31 09       	sbc	r19, r1
    204c:	39 83       	std	Y+1, r19	; 0x01
    204e:	28 83       	st	Y, r18
    2050:	3a c0       	rjmp	.+116    	; 0x20c6 <malloc+0x124>
    2052:	20 91 f0 01 	lds	r18, 0x01F0	; 0x8001f0 <__brkval>
    2056:	30 91 f1 01 	lds	r19, 0x01F1	; 0x8001f1 <__brkval+0x1>
    205a:	23 2b       	or	r18, r19
    205c:	41 f4       	brne	.+16     	; 0x206e <malloc+0xcc>
    205e:	20 91 02 01 	lds	r18, 0x0102	; 0x800102 <__malloc_heap_start>
    2062:	30 91 03 01 	lds	r19, 0x0103	; 0x800103 <__malloc_heap_start+0x1>
    2066:	30 93 f1 01 	sts	0x01F1, r19	; 0x8001f1 <__brkval+0x1>
    206a:	20 93 f0 01 	sts	0x01F0, r18	; 0x8001f0 <__brkval>
    206e:	20 91 00 01 	lds	r18, 0x0100	; 0x800100 <__data_start>
    2072:	30 91 01 01 	lds	r19, 0x0101	; 0x800101 <__data_start+0x1>
    2076:	21 15       	cp	r18, r1
    2078:	31 05       	cpc	r19, r1
    207a:	41 f4       	brne	.+16     	; 0x208c <malloc+0xea>
    207c:	2d b7       	in	r18, 0x3d	; 61
    207e:	3e b7       	in	r19, 0x3e	; 62
    2080:	40 91 04 01 	lds	r20, 0x0104	; 0x800104 <__malloc_margin>
    2084:	50 91 05 01 	lds	r21, 0x0105	; 0x800105 <__malloc_margin+0x1>
    2088:	24 1b       	sub	r18, r20
    208a:	35 0b       	sbc	r19, r21
    208c:	e0 91 f0 01 	lds	r30, 0x01F0	; 0x8001f0 <__brkval>
    2090:	f0 91 f1 01 	lds	r31, 0x01F1	; 0x8001f1 <__brkval+0x1>
    2094:	e2 17       	cp	r30, r18
    2096:	f3 07       	cpc	r31, r19
    2098:	a0 f4       	brcc	.+40     	; 0x20c2 <malloc+0x120>
    209a:	2e 1b       	sub	r18, r30
    209c:	3f 0b       	sbc	r19, r31
    209e:	28 17       	cp	r18, r24
    20a0:	39 07       	cpc	r19, r25
    20a2:	78 f0       	brcs	.+30     	; 0x20c2 <malloc+0x120>
    20a4:	ac 01       	movw	r20, r24
    20a6:	4e 5f       	subi	r20, 0xFE	; 254
    20a8:	5f 4f       	sbci	r21, 0xFF	; 255
    20aa:	24 17       	cp	r18, r20
    20ac:	35 07       	cpc	r19, r21
    20ae:	48 f0       	brcs	.+18     	; 0x20c2 <malloc+0x120>
    20b0:	4e 0f       	add	r20, r30
    20b2:	5f 1f       	adc	r21, r31
    20b4:	50 93 f1 01 	sts	0x01F1, r21	; 0x8001f1 <__brkval+0x1>
    20b8:	40 93 f0 01 	sts	0x01F0, r20	; 0x8001f0 <__brkval>
    20bc:	81 93       	st	Z+, r24
    20be:	91 93       	st	Z+, r25
    20c0:	02 c0       	rjmp	.+4      	; 0x20c6 <malloc+0x124>
    20c2:	e0 e0       	ldi	r30, 0x00	; 0
    20c4:	f0 e0       	ldi	r31, 0x00	; 0
    20c6:	cf 01       	movw	r24, r30
    20c8:	df 91       	pop	r29
    20ca:	cf 91       	pop	r28
    20cc:	1f 91       	pop	r17
    20ce:	0f 91       	pop	r16
    20d0:	08 95       	ret

000020d2 <free>:
    20d2:	cf 93       	push	r28
    20d4:	df 93       	push	r29
    20d6:	00 97       	sbiw	r24, 0x00	; 0
    20d8:	09 f4       	brne	.+2      	; 0x20dc <free+0xa>
    20da:	81 c0       	rjmp	.+258    	; 0x21de <free+0x10c>
    20dc:	fc 01       	movw	r30, r24
    20de:	32 97       	sbiw	r30, 0x02	; 2
    20e0:	13 82       	std	Z+3, r1	; 0x03
    20e2:	12 82       	std	Z+2, r1	; 0x02
    20e4:	a0 91 f2 01 	lds	r26, 0x01F2	; 0x8001f2 <__flp>
    20e8:	b0 91 f3 01 	lds	r27, 0x01F3	; 0x8001f3 <__flp+0x1>
    20ec:	10 97       	sbiw	r26, 0x00	; 0
    20ee:	81 f4       	brne	.+32     	; 0x2110 <free+0x3e>
    20f0:	20 81       	ld	r18, Z
    20f2:	31 81       	ldd	r19, Z+1	; 0x01
    20f4:	82 0f       	add	r24, r18
    20f6:	93 1f       	adc	r25, r19
    20f8:	20 91 f0 01 	lds	r18, 0x01F0	; 0x8001f0 <__brkval>
    20fc:	30 91 f1 01 	lds	r19, 0x01F1	; 0x8001f1 <__brkval+0x1>
    2100:	28 17       	cp	r18, r24
    2102:	39 07       	cpc	r19, r25
    2104:	51 f5       	brne	.+84     	; 0x215a <free+0x88>
    2106:	f0 93 f1 01 	sts	0x01F1, r31	; 0x8001f1 <__brkval+0x1>
    210a:	e0 93 f0 01 	sts	0x01F0, r30	; 0x8001f0 <__brkval>
    210e:	67 c0       	rjmp	.+206    	; 0x21de <free+0x10c>
    2110:	ed 01       	movw	r28, r26
    2112:	20 e0       	ldi	r18, 0x00	; 0
    2114:	30 e0       	ldi	r19, 0x00	; 0
    2116:	ce 17       	cp	r28, r30
    2118:	df 07       	cpc	r29, r31
    211a:	40 f4       	brcc	.+16     	; 0x212c <free+0x5a>
    211c:	4a 81       	ldd	r20, Y+2	; 0x02
    211e:	5b 81       	ldd	r21, Y+3	; 0x03
    2120:	9e 01       	movw	r18, r28
    2122:	41 15       	cp	r20, r1
    2124:	51 05       	cpc	r21, r1
    2126:	f1 f0       	breq	.+60     	; 0x2164 <free+0x92>
    2128:	ea 01       	movw	r28, r20
    212a:	f5 cf       	rjmp	.-22     	; 0x2116 <free+0x44>
    212c:	d3 83       	std	Z+3, r29	; 0x03
    212e:	c2 83       	std	Z+2, r28	; 0x02
    2130:	40 81       	ld	r20, Z
    2132:	51 81       	ldd	r21, Z+1	; 0x01
    2134:	84 0f       	add	r24, r20
    2136:	95 1f       	adc	r25, r21
    2138:	c8 17       	cp	r28, r24
    213a:	d9 07       	cpc	r29, r25
    213c:	59 f4       	brne	.+22     	; 0x2154 <free+0x82>
    213e:	88 81       	ld	r24, Y
    2140:	99 81       	ldd	r25, Y+1	; 0x01
    2142:	84 0f       	add	r24, r20
    2144:	95 1f       	adc	r25, r21
    2146:	02 96       	adiw	r24, 0x02	; 2
    2148:	91 83       	std	Z+1, r25	; 0x01
    214a:	80 83       	st	Z, r24
    214c:	8a 81       	ldd	r24, Y+2	; 0x02
    214e:	9b 81       	ldd	r25, Y+3	; 0x03
    2150:	93 83       	std	Z+3, r25	; 0x03
    2152:	82 83       	std	Z+2, r24	; 0x02
    2154:	21 15       	cp	r18, r1
    2156:	31 05       	cpc	r19, r1
    2158:	29 f4       	brne	.+10     	; 0x2164 <free+0x92>
    215a:	f0 93 f3 01 	sts	0x01F3, r31	; 0x8001f3 <__flp+0x1>
    215e:	e0 93 f2 01 	sts	0x01F2, r30	; 0x8001f2 <__flp>
    2162:	3d c0       	rjmp	.+122    	; 0x21de <free+0x10c>
    2164:	e9 01       	movw	r28, r18
    2166:	fb 83       	std	Y+3, r31	; 0x03
    2168:	ea 83       	std	Y+2, r30	; 0x02
    216a:	49 91       	ld	r20, Y+
    216c:	59 91       	ld	r21, Y+
    216e:	c4 0f       	add	r28, r20
    2170:	d5 1f       	adc	r29, r21
    2172:	ec 17       	cp	r30, r28
    2174:	fd 07       	cpc	r31, r29
    2176:	61 f4       	brne	.+24     	; 0x2190 <free+0xbe>
    2178:	80 81       	ld	r24, Z
    217a:	91 81       	ldd	r25, Z+1	; 0x01
    217c:	84 0f       	add	r24, r20
    217e:	95 1f       	adc	r25, r21
    2180:	02 96       	adiw	r24, 0x02	; 2
    2182:	e9 01       	movw	r28, r18
    2184:	99 83       	std	Y+1, r25	; 0x01
    2186:	88 83       	st	Y, r24
    2188:	82 81       	ldd	r24, Z+2	; 0x02
    218a:	93 81       	ldd	r25, Z+3	; 0x03
    218c:	9b 83       	std	Y+3, r25	; 0x03
    218e:	8a 83       	std	Y+2, r24	; 0x02
    2190:	e0 e0       	ldi	r30, 0x00	; 0
    2192:	f0 e0       	ldi	r31, 0x00	; 0
    2194:	12 96       	adiw	r26, 0x02	; 2
    2196:	8d 91       	ld	r24, X+
    2198:	9c 91       	ld	r25, X
    219a:	13 97       	sbiw	r26, 0x03	; 3
    219c:	00 97       	sbiw	r24, 0x00	; 0
    219e:	19 f0       	breq	.+6      	; 0x21a6 <free+0xd4>
    21a0:	fd 01       	movw	r30, r26
    21a2:	dc 01       	movw	r26, r24
    21a4:	f7 cf       	rjmp	.-18     	; 0x2194 <free+0xc2>
    21a6:	8d 91       	ld	r24, X+
    21a8:	9c 91       	ld	r25, X
    21aa:	11 97       	sbiw	r26, 0x01	; 1
    21ac:	9d 01       	movw	r18, r26
    21ae:	2e 5f       	subi	r18, 0xFE	; 254
    21b0:	3f 4f       	sbci	r19, 0xFF	; 255
    21b2:	82 0f       	add	r24, r18
    21b4:	93 1f       	adc	r25, r19
    21b6:	20 91 f0 01 	lds	r18, 0x01F0	; 0x8001f0 <__brkval>
    21ba:	30 91 f1 01 	lds	r19, 0x01F1	; 0x8001f1 <__brkval+0x1>
    21be:	28 17       	cp	r18, r24
    21c0:	39 07       	cpc	r19, r25
    21c2:	69 f4       	brne	.+26     	; 0x21de <free+0x10c>
    21c4:	30 97       	sbiw	r30, 0x00	; 0
    21c6:	29 f4       	brne	.+10     	; 0x21d2 <free+0x100>
    21c8:	10 92 f3 01 	sts	0x01F3, r1	; 0x8001f3 <__flp+0x1>
    21cc:	10 92 f2 01 	sts	0x01F2, r1	; 0x8001f2 <__flp>
    21d0:	02 c0       	rjmp	.+4      	; 0x21d6 <free+0x104>
    21d2:	13 82       	std	Z+3, r1	; 0x03
    21d4:	12 82       	std	Z+2, r1	; 0x02
    21d6:	b0 93 f1 01 	sts	0x01F1, r27	; 0x8001f1 <__brkval+0x1>
    21da:	a0 93 f0 01 	sts	0x01F0, r26	; 0x8001f0 <__brkval>
    21de:	df 91       	pop	r29
    21e0:	cf 91       	pop	r28
    21e2:	08 95       	ret

000021e4 <realloc>:
    21e4:	a0 e0       	ldi	r26, 0x00	; 0
    21e6:	b0 e0       	ldi	r27, 0x00	; 0
    21e8:	e8 ef       	ldi	r30, 0xF8	; 248
    21ea:	f0 e1       	ldi	r31, 0x10	; 16
    21ec:	0c 94 ec 14 	jmp	0x29d8	; 0x29d8 <__prologue_saves__+0x8>
    21f0:	ec 01       	movw	r28, r24
    21f2:	00 97       	sbiw	r24, 0x00	; 0
    21f4:	21 f4       	brne	.+8      	; 0x21fe <realloc+0x1a>
    21f6:	cb 01       	movw	r24, r22
    21f8:	0e 94 d1 0f 	call	0x1fa2	; 0x1fa2 <malloc>
    21fc:	b4 c0       	rjmp	.+360    	; 0x2366 <realloc+0x182>
    21fe:	fc 01       	movw	r30, r24
    2200:	e6 0f       	add	r30, r22
    2202:	f7 1f       	adc	r31, r23
    2204:	9c 01       	movw	r18, r24
    2206:	22 50       	subi	r18, 0x02	; 2
    2208:	31 09       	sbc	r19, r1
    220a:	e2 17       	cp	r30, r18
    220c:	f3 07       	cpc	r31, r19
    220e:	08 f4       	brcc	.+2      	; 0x2212 <realloc+0x2e>
    2210:	a8 c0       	rjmp	.+336    	; 0x2362 <realloc+0x17e>
    2212:	d9 01       	movw	r26, r18
    2214:	0d 91       	ld	r16, X+
    2216:	1c 91       	ld	r17, X
    2218:	11 97       	sbiw	r26, 0x01	; 1
    221a:	06 17       	cp	r16, r22
    221c:	17 07       	cpc	r17, r23
    221e:	b0 f0       	brcs	.+44     	; 0x224c <realloc+0x68>
    2220:	05 30       	cpi	r16, 0x05	; 5
    2222:	11 05       	cpc	r17, r1
    2224:	08 f4       	brcc	.+2      	; 0x2228 <realloc+0x44>
    2226:	9b c0       	rjmp	.+310    	; 0x235e <realloc+0x17a>
    2228:	c8 01       	movw	r24, r16
    222a:	04 97       	sbiw	r24, 0x04	; 4
    222c:	86 17       	cp	r24, r22
    222e:	97 07       	cpc	r25, r23
    2230:	08 f4       	brcc	.+2      	; 0x2234 <realloc+0x50>
    2232:	95 c0       	rjmp	.+298    	; 0x235e <realloc+0x17a>
    2234:	02 50       	subi	r16, 0x02	; 2
    2236:	11 09       	sbc	r17, r1
    2238:	06 1b       	sub	r16, r22
    223a:	17 0b       	sbc	r17, r23
    223c:	01 93       	st	Z+, r16
    223e:	11 93       	st	Z+, r17
    2240:	6d 93       	st	X+, r22
    2242:	7c 93       	st	X, r23
    2244:	cf 01       	movw	r24, r30
    2246:	0e 94 69 10 	call	0x20d2	; 0x20d2 <free>
    224a:	89 c0       	rjmp	.+274    	; 0x235e <realloc+0x17a>
    224c:	5b 01       	movw	r10, r22
    224e:	a0 1a       	sub	r10, r16
    2250:	b1 0a       	sbc	r11, r17
    2252:	4c 01       	movw	r8, r24
    2254:	80 0e       	add	r8, r16
    2256:	91 1e       	adc	r9, r17
    2258:	a0 91 f2 01 	lds	r26, 0x01F2	; 0x8001f2 <__flp>
    225c:	b0 91 f3 01 	lds	r27, 0x01F3	; 0x8001f3 <__flp+0x1>
    2260:	61 2c       	mov	r6, r1
    2262:	71 2c       	mov	r7, r1
    2264:	e1 2c       	mov	r14, r1
    2266:	f1 2c       	mov	r15, r1
    2268:	10 97       	sbiw	r26, 0x00	; 0
    226a:	09 f4       	brne	.+2      	; 0x226e <realloc+0x8a>
    226c:	46 c0       	rjmp	.+140    	; 0x22fa <realloc+0x116>
    226e:	8d 91       	ld	r24, X+
    2270:	9c 91       	ld	r25, X
    2272:	11 97       	sbiw	r26, 0x01	; 1
    2274:	a8 15       	cp	r26, r8
    2276:	b9 05       	cpc	r27, r9
    2278:	b1 f5       	brne	.+108    	; 0x22e6 <realloc+0x102>
    227a:	6c 01       	movw	r12, r24
    227c:	42 e0       	ldi	r20, 0x02	; 2
    227e:	c4 0e       	add	r12, r20
    2280:	d1 1c       	adc	r13, r1
    2282:	ca 14       	cp	r12, r10
    2284:	db 04       	cpc	r13, r11
    2286:	78 f1       	brcs	.+94     	; 0x22e6 <realloc+0x102>
    2288:	4c 01       	movw	r8, r24
    228a:	8a 18       	sub	r8, r10
    228c:	9b 08       	sbc	r9, r11
    228e:	64 01       	movw	r12, r8
    2290:	42 e0       	ldi	r20, 0x02	; 2
    2292:	c4 0e       	add	r12, r20
    2294:	d1 1c       	adc	r13, r1
    2296:	12 96       	adiw	r26, 0x02	; 2
    2298:	bc 90       	ld	r11, X
    229a:	12 97       	sbiw	r26, 0x02	; 2
    229c:	13 96       	adiw	r26, 0x03	; 3
    229e:	ac 91       	ld	r26, X
    22a0:	b5 e0       	ldi	r27, 0x05	; 5
    22a2:	cb 16       	cp	r12, r27
    22a4:	d1 04       	cpc	r13, r1
    22a6:	40 f0       	brcs	.+16     	; 0x22b8 <realloc+0xd4>
    22a8:	b2 82       	std	Z+2, r11	; 0x02
    22aa:	a3 83       	std	Z+3, r26	; 0x03
    22ac:	91 82       	std	Z+1, r9	; 0x01
    22ae:	80 82       	st	Z, r8
    22b0:	d9 01       	movw	r26, r18
    22b2:	6d 93       	st	X+, r22
    22b4:	7c 93       	st	X, r23
    22b6:	09 c0       	rjmp	.+18     	; 0x22ca <realloc+0xe6>
    22b8:	0e 5f       	subi	r16, 0xFE	; 254
    22ba:	1f 4f       	sbci	r17, 0xFF	; 255
    22bc:	80 0f       	add	r24, r16
    22be:	91 1f       	adc	r25, r17
    22c0:	f9 01       	movw	r30, r18
    22c2:	91 83       	std	Z+1, r25	; 0x01
    22c4:	80 83       	st	Z, r24
    22c6:	eb 2d       	mov	r30, r11
    22c8:	fa 2f       	mov	r31, r26
    22ca:	e1 14       	cp	r14, r1
    22cc:	f1 04       	cpc	r15, r1
    22ce:	31 f0       	breq	.+12     	; 0x22dc <realloc+0xf8>
    22d0:	d7 01       	movw	r26, r14
    22d2:	13 96       	adiw	r26, 0x03	; 3
    22d4:	fc 93       	st	X, r31
    22d6:	ee 93       	st	-X, r30
    22d8:	12 97       	sbiw	r26, 0x02	; 2
    22da:	41 c0       	rjmp	.+130    	; 0x235e <realloc+0x17a>
    22dc:	f0 93 f3 01 	sts	0x01F3, r31	; 0x8001f3 <__flp+0x1>
    22e0:	e0 93 f2 01 	sts	0x01F2, r30	; 0x8001f2 <__flp>
    22e4:	3c c0       	rjmp	.+120    	; 0x235e <realloc+0x17a>
    22e6:	68 16       	cp	r6, r24
    22e8:	79 06       	cpc	r7, r25
    22ea:	08 f4       	brcc	.+2      	; 0x22ee <realloc+0x10a>
    22ec:	3c 01       	movw	r6, r24
    22ee:	7d 01       	movw	r14, r26
    22f0:	12 96       	adiw	r26, 0x02	; 2
    22f2:	0d 90       	ld	r0, X+
    22f4:	bc 91       	ld	r27, X
    22f6:	a0 2d       	mov	r26, r0
    22f8:	b7 cf       	rjmp	.-146    	; 0x2268 <realloc+0x84>
    22fa:	80 91 f0 01 	lds	r24, 0x01F0	; 0x8001f0 <__brkval>
    22fe:	90 91 f1 01 	lds	r25, 0x01F1	; 0x8001f1 <__brkval+0x1>
    2302:	88 16       	cp	r8, r24
    2304:	99 06       	cpc	r9, r25
    2306:	e1 f4       	brne	.+56     	; 0x2340 <realloc+0x15c>
    2308:	66 16       	cp	r6, r22
    230a:	77 06       	cpc	r7, r23
    230c:	c8 f4       	brcc	.+50     	; 0x2340 <realloc+0x15c>
    230e:	80 91 00 01 	lds	r24, 0x0100	; 0x800100 <__data_start>
    2312:	90 91 01 01 	lds	r25, 0x0101	; 0x800101 <__data_start+0x1>
    2316:	00 97       	sbiw	r24, 0x00	; 0
    2318:	41 f4       	brne	.+16     	; 0x232a <realloc+0x146>
    231a:	8d b7       	in	r24, 0x3d	; 61
    231c:	9e b7       	in	r25, 0x3e	; 62
    231e:	40 91 04 01 	lds	r20, 0x0104	; 0x800104 <__malloc_margin>
    2322:	50 91 05 01 	lds	r21, 0x0105	; 0x800105 <__malloc_margin+0x1>
    2326:	84 1b       	sub	r24, r20
    2328:	95 0b       	sbc	r25, r21
    232a:	e8 17       	cp	r30, r24
    232c:	f9 07       	cpc	r31, r25
    232e:	c8 f4       	brcc	.+50     	; 0x2362 <realloc+0x17e>
    2330:	f0 93 f1 01 	sts	0x01F1, r31	; 0x8001f1 <__brkval+0x1>
    2334:	e0 93 f0 01 	sts	0x01F0, r30	; 0x8001f0 <__brkval>
    2338:	f9 01       	movw	r30, r18
    233a:	71 83       	std	Z+1, r23	; 0x01
    233c:	60 83       	st	Z, r22
    233e:	0f c0       	rjmp	.+30     	; 0x235e <realloc+0x17a>
    2340:	cb 01       	movw	r24, r22
    2342:	0e 94 d1 0f 	call	0x1fa2	; 0x1fa2 <malloc>
    2346:	7c 01       	movw	r14, r24
    2348:	00 97       	sbiw	r24, 0x00	; 0
    234a:	59 f0       	breq	.+22     	; 0x2362 <realloc+0x17e>
    234c:	a8 01       	movw	r20, r16
    234e:	be 01       	movw	r22, r28
    2350:	0e 94 bf 11 	call	0x237e	; 0x237e <memcpy>
    2354:	ce 01       	movw	r24, r28
    2356:	0e 94 69 10 	call	0x20d2	; 0x20d2 <free>
    235a:	c7 01       	movw	r24, r14
    235c:	04 c0       	rjmp	.+8      	; 0x2366 <realloc+0x182>
    235e:	ce 01       	movw	r24, r28
    2360:	02 c0       	rjmp	.+4      	; 0x2366 <realloc+0x182>
    2362:	80 e0       	ldi	r24, 0x00	; 0
    2364:	90 e0       	ldi	r25, 0x00	; 0
    2366:	cd b7       	in	r28, 0x3d	; 61
    2368:	de b7       	in	r29, 0x3e	; 62
    236a:	ee e0       	ldi	r30, 0x0E	; 14
    236c:	0c 94 08 15 	jmp	0x2a10	; 0x2a10 <__epilogue_restores__+0x8>

00002370 <strcpy_P>:
    2370:	fb 01       	movw	r30, r22
    2372:	dc 01       	movw	r26, r24
    2374:	05 90       	lpm	r0, Z+
    2376:	0d 92       	st	X+, r0
    2378:	00 20       	and	r0, r0
    237a:	e1 f7       	brne	.-8      	; 0x2374 <strcpy_P+0x4>
    237c:	08 95       	ret

0000237e <memcpy>:
    237e:	fb 01       	movw	r30, r22
    2380:	dc 01       	movw	r26, r24
    2382:	02 c0       	rjmp	.+4      	; 0x2388 <memcpy+0xa>
    2384:	01 90       	ld	r0, Z+
    2386:	0d 92       	st	X+, r0
    2388:	41 50       	subi	r20, 0x01	; 1
    238a:	50 40       	sbci	r21, 0x00	; 0
    238c:	d8 f7       	brcc	.-10     	; 0x2384 <memcpy+0x6>
    238e:	08 95       	ret

00002390 <strcat>:
    2390:	fb 01       	movw	r30, r22
    2392:	dc 01       	movw	r26, r24
    2394:	0d 90       	ld	r0, X+
    2396:	00 20       	and	r0, r0
    2398:	e9 f7       	brne	.-6      	; 0x2394 <strcat+0x4>
    239a:	11 97       	sbiw	r26, 0x01	; 1
    239c:	01 90       	ld	r0, Z+
    239e:	0d 92       	st	X+, r0
    23a0:	00 20       	and	r0, r0
    23a2:	e1 f7       	brne	.-8      	; 0x239c <strcat+0xc>
    23a4:	08 95       	ret

000023a6 <fdevopen>:
    23a6:	0f 93       	push	r16
    23a8:	1f 93       	push	r17
    23aa:	cf 93       	push	r28
    23ac:	df 93       	push	r29
    23ae:	00 97       	sbiw	r24, 0x00	; 0
    23b0:	31 f4       	brne	.+12     	; 0x23be <fdevopen+0x18>
    23b2:	61 15       	cp	r22, r1
    23b4:	71 05       	cpc	r23, r1
    23b6:	19 f4       	brne	.+6      	; 0x23be <fdevopen+0x18>
    23b8:	80 e0       	ldi	r24, 0x00	; 0
    23ba:	90 e0       	ldi	r25, 0x00	; 0
    23bc:	3a c0       	rjmp	.+116    	; 0x2432 <fdevopen+0x8c>
    23be:	8b 01       	movw	r16, r22
    23c0:	ec 01       	movw	r28, r24
    23c2:	6e e0       	ldi	r22, 0x0E	; 14
    23c4:	70 e0       	ldi	r23, 0x00	; 0
    23c6:	81 e0       	ldi	r24, 0x01	; 1
    23c8:	90 e0       	ldi	r25, 0x00	; 0
    23ca:	0e 94 15 14 	call	0x282a	; 0x282a <calloc>
    23ce:	fc 01       	movw	r30, r24
    23d0:	89 2b       	or	r24, r25
    23d2:	91 f3       	breq	.-28     	; 0x23b8 <fdevopen+0x12>
    23d4:	80 e8       	ldi	r24, 0x80	; 128
    23d6:	83 83       	std	Z+3, r24	; 0x03
    23d8:	01 15       	cp	r16, r1
    23da:	11 05       	cpc	r17, r1
    23dc:	71 f0       	breq	.+28     	; 0x23fa <fdevopen+0x54>
    23de:	13 87       	std	Z+11, r17	; 0x0b
    23e0:	02 87       	std	Z+10, r16	; 0x0a
    23e2:	81 e8       	ldi	r24, 0x81	; 129
    23e4:	83 83       	std	Z+3, r24	; 0x03
    23e6:	80 91 f4 01 	lds	r24, 0x01F4	; 0x8001f4 <__iob>
    23ea:	90 91 f5 01 	lds	r25, 0x01F5	; 0x8001f5 <__iob+0x1>
    23ee:	89 2b       	or	r24, r25
    23f0:	21 f4       	brne	.+8      	; 0x23fa <fdevopen+0x54>
    23f2:	f0 93 f5 01 	sts	0x01F5, r31	; 0x8001f5 <__iob+0x1>
    23f6:	e0 93 f4 01 	sts	0x01F4, r30	; 0x8001f4 <__iob>
    23fa:	20 97       	sbiw	r28, 0x00	; 0
    23fc:	c9 f0       	breq	.+50     	; 0x2430 <fdevopen+0x8a>
    23fe:	d1 87       	std	Z+9, r29	; 0x09
    2400:	c0 87       	std	Z+8, r28	; 0x08
    2402:	83 81       	ldd	r24, Z+3	; 0x03
    2404:	82 60       	ori	r24, 0x02	; 2
    2406:	83 83       	std	Z+3, r24	; 0x03
    2408:	80 91 f6 01 	lds	r24, 0x01F6	; 0x8001f6 <__iob+0x2>
    240c:	90 91 f7 01 	lds	r25, 0x01F7	; 0x8001f7 <__iob+0x3>
    2410:	89 2b       	or	r24, r25
    2412:	71 f4       	brne	.+28     	; 0x2430 <fdevopen+0x8a>
    2414:	f0 93 f7 01 	sts	0x01F7, r31	; 0x8001f7 <__iob+0x3>
    2418:	e0 93 f6 01 	sts	0x01F6, r30	; 0x8001f6 <__iob+0x2>
    241c:	80 91 f8 01 	lds	r24, 0x01F8	; 0x8001f8 <__iob+0x4>
    2420:	90 91 f9 01 	lds	r25, 0x01F9	; 0x8001f9 <__iob+0x5>
    2424:	89 2b       	or	r24, r25
    2426:	21 f4       	brne	.+8      	; 0x2430 <fdevopen+0x8a>
    2428:	f0 93 f9 01 	sts	0x01F9, r31	; 0x8001f9 <__iob+0x5>
    242c:	e0 93 f8 01 	sts	0x01F8, r30	; 0x8001f8 <__iob+0x4>
    2430:	cf 01       	movw	r24, r30
    2432:	df 91       	pop	r29
    2434:	cf 91       	pop	r28
    2436:	1f 91       	pop	r17
    2438:	0f 91       	pop	r16
    243a:	08 95       	ret

0000243c <printf>:
    243c:	a0 e0       	ldi	r26, 0x00	; 0
    243e:	b0 e0       	ldi	r27, 0x00	; 0
    2440:	e4 e2       	ldi	r30, 0x24	; 36
    2442:	f2 e1       	ldi	r31, 0x12	; 18
    2444:	0c 94 f8 14 	jmp	0x29f0	; 0x29f0 <__prologue_saves__+0x20>
    2448:	ae 01       	movw	r20, r28
    244a:	4b 5f       	subi	r20, 0xFB	; 251
    244c:	5f 4f       	sbci	r21, 0xFF	; 255
    244e:	fa 01       	movw	r30, r20
    2450:	61 91       	ld	r22, Z+
    2452:	71 91       	ld	r23, Z+
    2454:	af 01       	movw	r20, r30
    2456:	80 91 f6 01 	lds	r24, 0x01F6	; 0x8001f6 <__iob+0x2>
    245a:	90 91 f7 01 	lds	r25, 0x01F7	; 0x8001f7 <__iob+0x3>
    245e:	0e 94 34 12 	call	0x2468	; 0x2468 <vfprintf>
    2462:	e2 e0       	ldi	r30, 0x02	; 2
    2464:	0c 94 14 15 	jmp	0x2a28	; 0x2a28 <__epilogue_restores__+0x20>

00002468 <vfprintf>:
    2468:	ab e0       	ldi	r26, 0x0B	; 11
    246a:	b0 e0       	ldi	r27, 0x00	; 0
    246c:	ea e3       	ldi	r30, 0x3A	; 58
    246e:	f2 e1       	ldi	r31, 0x12	; 18
    2470:	0c 94 e8 14 	jmp	0x29d0	; 0x29d0 <__prologue_saves__>
    2474:	6c 01       	movw	r12, r24
    2476:	7b 01       	movw	r14, r22
    2478:	8a 01       	movw	r16, r20
    247a:	fc 01       	movw	r30, r24
    247c:	17 82       	std	Z+7, r1	; 0x07
    247e:	16 82       	std	Z+6, r1	; 0x06
    2480:	83 81       	ldd	r24, Z+3	; 0x03
    2482:	81 ff       	sbrs	r24, 1
    2484:	cc c1       	rjmp	.+920    	; 0x281e <vfprintf+0x3b6>
    2486:	ce 01       	movw	r24, r28
    2488:	01 96       	adiw	r24, 0x01	; 1
    248a:	3c 01       	movw	r6, r24
    248c:	f6 01       	movw	r30, r12
    248e:	93 81       	ldd	r25, Z+3	; 0x03
    2490:	f7 01       	movw	r30, r14
    2492:	93 fd       	sbrc	r25, 3
    2494:	85 91       	lpm	r24, Z+
    2496:	93 ff       	sbrs	r25, 3
    2498:	81 91       	ld	r24, Z+
    249a:	7f 01       	movw	r14, r30
    249c:	88 23       	and	r24, r24
    249e:	09 f4       	brne	.+2      	; 0x24a2 <vfprintf+0x3a>
    24a0:	ba c1       	rjmp	.+884    	; 0x2816 <vfprintf+0x3ae>
    24a2:	85 32       	cpi	r24, 0x25	; 37
    24a4:	39 f4       	brne	.+14     	; 0x24b4 <vfprintf+0x4c>
    24a6:	93 fd       	sbrc	r25, 3
    24a8:	85 91       	lpm	r24, Z+
    24aa:	93 ff       	sbrs	r25, 3
    24ac:	81 91       	ld	r24, Z+
    24ae:	7f 01       	movw	r14, r30
    24b0:	85 32       	cpi	r24, 0x25	; 37
    24b2:	29 f4       	brne	.+10     	; 0x24be <vfprintf+0x56>
    24b4:	b6 01       	movw	r22, r12
    24b6:	90 e0       	ldi	r25, 0x00	; 0
    24b8:	0e 94 4e 14 	call	0x289c	; 0x289c <fputc>
    24bc:	e7 cf       	rjmp	.-50     	; 0x248c <vfprintf+0x24>
    24be:	91 2c       	mov	r9, r1
    24c0:	21 2c       	mov	r2, r1
    24c2:	31 2c       	mov	r3, r1
    24c4:	ff e1       	ldi	r31, 0x1F	; 31
    24c6:	f3 15       	cp	r31, r3
    24c8:	d8 f0       	brcs	.+54     	; 0x2500 <vfprintf+0x98>
    24ca:	8b 32       	cpi	r24, 0x2B	; 43
    24cc:	79 f0       	breq	.+30     	; 0x24ec <vfprintf+0x84>
    24ce:	38 f4       	brcc	.+14     	; 0x24de <vfprintf+0x76>
    24d0:	80 32       	cpi	r24, 0x20	; 32
    24d2:	79 f0       	breq	.+30     	; 0x24f2 <vfprintf+0x8a>
    24d4:	83 32       	cpi	r24, 0x23	; 35
    24d6:	a1 f4       	brne	.+40     	; 0x2500 <vfprintf+0x98>
    24d8:	23 2d       	mov	r18, r3
    24da:	20 61       	ori	r18, 0x10	; 16
    24dc:	1d c0       	rjmp	.+58     	; 0x2518 <vfprintf+0xb0>
    24de:	8d 32       	cpi	r24, 0x2D	; 45
    24e0:	61 f0       	breq	.+24     	; 0x24fa <vfprintf+0x92>
    24e2:	80 33       	cpi	r24, 0x30	; 48
    24e4:	69 f4       	brne	.+26     	; 0x2500 <vfprintf+0x98>
    24e6:	23 2d       	mov	r18, r3
    24e8:	21 60       	ori	r18, 0x01	; 1
    24ea:	16 c0       	rjmp	.+44     	; 0x2518 <vfprintf+0xb0>
    24ec:	83 2d       	mov	r24, r3
    24ee:	82 60       	ori	r24, 0x02	; 2
    24f0:	38 2e       	mov	r3, r24
    24f2:	e3 2d       	mov	r30, r3
    24f4:	e4 60       	ori	r30, 0x04	; 4
    24f6:	3e 2e       	mov	r3, r30
    24f8:	2a c0       	rjmp	.+84     	; 0x254e <vfprintf+0xe6>
    24fa:	f3 2d       	mov	r31, r3
    24fc:	f8 60       	ori	r31, 0x08	; 8
    24fe:	1d c0       	rjmp	.+58     	; 0x253a <vfprintf+0xd2>
    2500:	37 fc       	sbrc	r3, 7
    2502:	2d c0       	rjmp	.+90     	; 0x255e <vfprintf+0xf6>
    2504:	20 ed       	ldi	r18, 0xD0	; 208
    2506:	28 0f       	add	r18, r24
    2508:	2a 30       	cpi	r18, 0x0A	; 10
    250a:	40 f0       	brcs	.+16     	; 0x251c <vfprintf+0xb4>
    250c:	8e 32       	cpi	r24, 0x2E	; 46
    250e:	b9 f4       	brne	.+46     	; 0x253e <vfprintf+0xd6>
    2510:	36 fc       	sbrc	r3, 6
    2512:	81 c1       	rjmp	.+770    	; 0x2816 <vfprintf+0x3ae>
    2514:	23 2d       	mov	r18, r3
    2516:	20 64       	ori	r18, 0x40	; 64
    2518:	32 2e       	mov	r3, r18
    251a:	19 c0       	rjmp	.+50     	; 0x254e <vfprintf+0xe6>
    251c:	36 fe       	sbrs	r3, 6
    251e:	06 c0       	rjmp	.+12     	; 0x252c <vfprintf+0xc4>
    2520:	8a e0       	ldi	r24, 0x0A	; 10
    2522:	98 9e       	mul	r9, r24
    2524:	20 0d       	add	r18, r0
    2526:	11 24       	eor	r1, r1
    2528:	92 2e       	mov	r9, r18
    252a:	11 c0       	rjmp	.+34     	; 0x254e <vfprintf+0xe6>
    252c:	ea e0       	ldi	r30, 0x0A	; 10
    252e:	2e 9e       	mul	r2, r30
    2530:	20 0d       	add	r18, r0
    2532:	11 24       	eor	r1, r1
    2534:	22 2e       	mov	r2, r18
    2536:	f3 2d       	mov	r31, r3
    2538:	f0 62       	ori	r31, 0x20	; 32
    253a:	3f 2e       	mov	r3, r31
    253c:	08 c0       	rjmp	.+16     	; 0x254e <vfprintf+0xe6>
    253e:	8c 36       	cpi	r24, 0x6C	; 108
    2540:	21 f4       	brne	.+8      	; 0x254a <vfprintf+0xe2>
    2542:	83 2d       	mov	r24, r3
    2544:	80 68       	ori	r24, 0x80	; 128
    2546:	38 2e       	mov	r3, r24
    2548:	02 c0       	rjmp	.+4      	; 0x254e <vfprintf+0xe6>
    254a:	88 36       	cpi	r24, 0x68	; 104
    254c:	41 f4       	brne	.+16     	; 0x255e <vfprintf+0xf6>
    254e:	f7 01       	movw	r30, r14
    2550:	93 fd       	sbrc	r25, 3
    2552:	85 91       	lpm	r24, Z+
    2554:	93 ff       	sbrs	r25, 3
    2556:	81 91       	ld	r24, Z+
    2558:	7f 01       	movw	r14, r30
    255a:	81 11       	cpse	r24, r1
    255c:	b3 cf       	rjmp	.-154    	; 0x24c4 <vfprintf+0x5c>
    255e:	98 2f       	mov	r25, r24
    2560:	9f 7d       	andi	r25, 0xDF	; 223
    2562:	95 54       	subi	r25, 0x45	; 69
    2564:	93 30       	cpi	r25, 0x03	; 3
    2566:	28 f4       	brcc	.+10     	; 0x2572 <vfprintf+0x10a>
    2568:	0c 5f       	subi	r16, 0xFC	; 252
    256a:	1f 4f       	sbci	r17, 0xFF	; 255
    256c:	9f e3       	ldi	r25, 0x3F	; 63
    256e:	99 83       	std	Y+1, r25	; 0x01
    2570:	0d c0       	rjmp	.+26     	; 0x258c <vfprintf+0x124>
    2572:	83 36       	cpi	r24, 0x63	; 99
    2574:	31 f0       	breq	.+12     	; 0x2582 <vfprintf+0x11a>
    2576:	83 37       	cpi	r24, 0x73	; 115
    2578:	71 f0       	breq	.+28     	; 0x2596 <vfprintf+0x12e>
    257a:	83 35       	cpi	r24, 0x53	; 83
    257c:	09 f0       	breq	.+2      	; 0x2580 <vfprintf+0x118>
    257e:	59 c0       	rjmp	.+178    	; 0x2632 <vfprintf+0x1ca>
    2580:	21 c0       	rjmp	.+66     	; 0x25c4 <vfprintf+0x15c>
    2582:	f8 01       	movw	r30, r16
    2584:	80 81       	ld	r24, Z
    2586:	89 83       	std	Y+1, r24	; 0x01
    2588:	0e 5f       	subi	r16, 0xFE	; 254
    258a:	1f 4f       	sbci	r17, 0xFF	; 255
    258c:	88 24       	eor	r8, r8
    258e:	83 94       	inc	r8
    2590:	91 2c       	mov	r9, r1
    2592:	53 01       	movw	r10, r6
    2594:	13 c0       	rjmp	.+38     	; 0x25bc <vfprintf+0x154>
    2596:	28 01       	movw	r4, r16
    2598:	f2 e0       	ldi	r31, 0x02	; 2
    259a:	4f 0e       	add	r4, r31
    259c:	51 1c       	adc	r5, r1
    259e:	f8 01       	movw	r30, r16
    25a0:	a0 80       	ld	r10, Z
    25a2:	b1 80       	ldd	r11, Z+1	; 0x01
    25a4:	36 fe       	sbrs	r3, 6
    25a6:	03 c0       	rjmp	.+6      	; 0x25ae <vfprintf+0x146>
    25a8:	69 2d       	mov	r22, r9
    25aa:	70 e0       	ldi	r23, 0x00	; 0
    25ac:	02 c0       	rjmp	.+4      	; 0x25b2 <vfprintf+0x14a>
    25ae:	6f ef       	ldi	r22, 0xFF	; 255
    25b0:	7f ef       	ldi	r23, 0xFF	; 255
    25b2:	c5 01       	movw	r24, r10
    25b4:	0e 94 43 14 	call	0x2886	; 0x2886 <strnlen>
    25b8:	4c 01       	movw	r8, r24
    25ba:	82 01       	movw	r16, r4
    25bc:	f3 2d       	mov	r31, r3
    25be:	ff 77       	andi	r31, 0x7F	; 127
    25c0:	3f 2e       	mov	r3, r31
    25c2:	16 c0       	rjmp	.+44     	; 0x25f0 <vfprintf+0x188>
    25c4:	28 01       	movw	r4, r16
    25c6:	22 e0       	ldi	r18, 0x02	; 2
    25c8:	42 0e       	add	r4, r18
    25ca:	51 1c       	adc	r5, r1
    25cc:	f8 01       	movw	r30, r16
    25ce:	a0 80       	ld	r10, Z
    25d0:	b1 80       	ldd	r11, Z+1	; 0x01
    25d2:	36 fe       	sbrs	r3, 6
    25d4:	03 c0       	rjmp	.+6      	; 0x25dc <vfprintf+0x174>
    25d6:	69 2d       	mov	r22, r9
    25d8:	70 e0       	ldi	r23, 0x00	; 0
    25da:	02 c0       	rjmp	.+4      	; 0x25e0 <vfprintf+0x178>
    25dc:	6f ef       	ldi	r22, 0xFF	; 255
    25de:	7f ef       	ldi	r23, 0xFF	; 255
    25e0:	c5 01       	movw	r24, r10
    25e2:	0e 94 31 14 	call	0x2862	; 0x2862 <strnlen_P>
    25e6:	4c 01       	movw	r8, r24
    25e8:	f3 2d       	mov	r31, r3
    25ea:	f0 68       	ori	r31, 0x80	; 128
    25ec:	3f 2e       	mov	r3, r31
    25ee:	82 01       	movw	r16, r4
    25f0:	33 fc       	sbrc	r3, 3
    25f2:	1b c0       	rjmp	.+54     	; 0x262a <vfprintf+0x1c2>
    25f4:	82 2d       	mov	r24, r2
    25f6:	90 e0       	ldi	r25, 0x00	; 0
    25f8:	88 16       	cp	r8, r24
    25fa:	99 06       	cpc	r9, r25
    25fc:	b0 f4       	brcc	.+44     	; 0x262a <vfprintf+0x1c2>
    25fe:	b6 01       	movw	r22, r12
    2600:	80 e2       	ldi	r24, 0x20	; 32
    2602:	90 e0       	ldi	r25, 0x00	; 0
    2604:	0e 94 4e 14 	call	0x289c	; 0x289c <fputc>
    2608:	2a 94       	dec	r2
    260a:	f4 cf       	rjmp	.-24     	; 0x25f4 <vfprintf+0x18c>
    260c:	f5 01       	movw	r30, r10
    260e:	37 fc       	sbrc	r3, 7
    2610:	85 91       	lpm	r24, Z+
    2612:	37 fe       	sbrs	r3, 7
    2614:	81 91       	ld	r24, Z+
    2616:	5f 01       	movw	r10, r30
    2618:	b6 01       	movw	r22, r12
    261a:	90 e0       	ldi	r25, 0x00	; 0
    261c:	0e 94 4e 14 	call	0x289c	; 0x289c <fputc>
    2620:	21 10       	cpse	r2, r1
    2622:	2a 94       	dec	r2
    2624:	21 e0       	ldi	r18, 0x01	; 1
    2626:	82 1a       	sub	r8, r18
    2628:	91 08       	sbc	r9, r1
    262a:	81 14       	cp	r8, r1
    262c:	91 04       	cpc	r9, r1
    262e:	71 f7       	brne	.-36     	; 0x260c <vfprintf+0x1a4>
    2630:	e8 c0       	rjmp	.+464    	; 0x2802 <vfprintf+0x39a>
    2632:	84 36       	cpi	r24, 0x64	; 100
    2634:	11 f0       	breq	.+4      	; 0x263a <vfprintf+0x1d2>
    2636:	89 36       	cpi	r24, 0x69	; 105
    2638:	41 f5       	brne	.+80     	; 0x268a <vfprintf+0x222>
    263a:	f8 01       	movw	r30, r16
    263c:	37 fe       	sbrs	r3, 7
    263e:	07 c0       	rjmp	.+14     	; 0x264e <vfprintf+0x1e6>
    2640:	60 81       	ld	r22, Z
    2642:	71 81       	ldd	r23, Z+1	; 0x01
    2644:	82 81       	ldd	r24, Z+2	; 0x02
    2646:	93 81       	ldd	r25, Z+3	; 0x03
    2648:	0c 5f       	subi	r16, 0xFC	; 252
    264a:	1f 4f       	sbci	r17, 0xFF	; 255
    264c:	08 c0       	rjmp	.+16     	; 0x265e <vfprintf+0x1f6>
    264e:	60 81       	ld	r22, Z
    2650:	71 81       	ldd	r23, Z+1	; 0x01
    2652:	07 2e       	mov	r0, r23
    2654:	00 0c       	add	r0, r0
    2656:	88 0b       	sbc	r24, r24
    2658:	99 0b       	sbc	r25, r25
    265a:	0e 5f       	subi	r16, 0xFE	; 254
    265c:	1f 4f       	sbci	r17, 0xFF	; 255
    265e:	f3 2d       	mov	r31, r3
    2660:	ff 76       	andi	r31, 0x6F	; 111
    2662:	3f 2e       	mov	r3, r31
    2664:	97 ff       	sbrs	r25, 7
    2666:	09 c0       	rjmp	.+18     	; 0x267a <vfprintf+0x212>
    2668:	90 95       	com	r25
    266a:	80 95       	com	r24
    266c:	70 95       	com	r23
    266e:	61 95       	neg	r22
    2670:	7f 4f       	sbci	r23, 0xFF	; 255
    2672:	8f 4f       	sbci	r24, 0xFF	; 255
    2674:	9f 4f       	sbci	r25, 0xFF	; 255
    2676:	f0 68       	ori	r31, 0x80	; 128
    2678:	3f 2e       	mov	r3, r31
    267a:	2a e0       	ldi	r18, 0x0A	; 10
    267c:	30 e0       	ldi	r19, 0x00	; 0
    267e:	a3 01       	movw	r20, r6
    2680:	0e 94 8a 14 	call	0x2914	; 0x2914 <__ultoa_invert>
    2684:	88 2e       	mov	r8, r24
    2686:	86 18       	sub	r8, r6
    2688:	45 c0       	rjmp	.+138    	; 0x2714 <vfprintf+0x2ac>
    268a:	85 37       	cpi	r24, 0x75	; 117
    268c:	31 f4       	brne	.+12     	; 0x269a <vfprintf+0x232>
    268e:	23 2d       	mov	r18, r3
    2690:	2f 7e       	andi	r18, 0xEF	; 239
    2692:	b2 2e       	mov	r11, r18
    2694:	2a e0       	ldi	r18, 0x0A	; 10
    2696:	30 e0       	ldi	r19, 0x00	; 0
    2698:	25 c0       	rjmp	.+74     	; 0x26e4 <vfprintf+0x27c>
    269a:	93 2d       	mov	r25, r3
    269c:	99 7f       	andi	r25, 0xF9	; 249
    269e:	b9 2e       	mov	r11, r25
    26a0:	8f 36       	cpi	r24, 0x6F	; 111
    26a2:	c1 f0       	breq	.+48     	; 0x26d4 <vfprintf+0x26c>
    26a4:	18 f4       	brcc	.+6      	; 0x26ac <vfprintf+0x244>
    26a6:	88 35       	cpi	r24, 0x58	; 88
    26a8:	79 f0       	breq	.+30     	; 0x26c8 <vfprintf+0x260>
    26aa:	b5 c0       	rjmp	.+362    	; 0x2816 <vfprintf+0x3ae>
    26ac:	80 37       	cpi	r24, 0x70	; 112
    26ae:	19 f0       	breq	.+6      	; 0x26b6 <vfprintf+0x24e>
    26b0:	88 37       	cpi	r24, 0x78	; 120
    26b2:	21 f0       	breq	.+8      	; 0x26bc <vfprintf+0x254>
    26b4:	b0 c0       	rjmp	.+352    	; 0x2816 <vfprintf+0x3ae>
    26b6:	e9 2f       	mov	r30, r25
    26b8:	e0 61       	ori	r30, 0x10	; 16
    26ba:	be 2e       	mov	r11, r30
    26bc:	b4 fe       	sbrs	r11, 4
    26be:	0d c0       	rjmp	.+26     	; 0x26da <vfprintf+0x272>
    26c0:	fb 2d       	mov	r31, r11
    26c2:	f4 60       	ori	r31, 0x04	; 4
    26c4:	bf 2e       	mov	r11, r31
    26c6:	09 c0       	rjmp	.+18     	; 0x26da <vfprintf+0x272>
    26c8:	34 fe       	sbrs	r3, 4
    26ca:	0a c0       	rjmp	.+20     	; 0x26e0 <vfprintf+0x278>
    26cc:	29 2f       	mov	r18, r25
    26ce:	26 60       	ori	r18, 0x06	; 6
    26d0:	b2 2e       	mov	r11, r18
    26d2:	06 c0       	rjmp	.+12     	; 0x26e0 <vfprintf+0x278>
    26d4:	28 e0       	ldi	r18, 0x08	; 8
    26d6:	30 e0       	ldi	r19, 0x00	; 0
    26d8:	05 c0       	rjmp	.+10     	; 0x26e4 <vfprintf+0x27c>
    26da:	20 e1       	ldi	r18, 0x10	; 16
    26dc:	30 e0       	ldi	r19, 0x00	; 0
    26de:	02 c0       	rjmp	.+4      	; 0x26e4 <vfprintf+0x27c>
    26e0:	20 e1       	ldi	r18, 0x10	; 16
    26e2:	32 e0       	ldi	r19, 0x02	; 2
    26e4:	f8 01       	movw	r30, r16
    26e6:	b7 fe       	sbrs	r11, 7
    26e8:	07 c0       	rjmp	.+14     	; 0x26f8 <vfprintf+0x290>
    26ea:	60 81       	ld	r22, Z
    26ec:	71 81       	ldd	r23, Z+1	; 0x01
    26ee:	82 81       	ldd	r24, Z+2	; 0x02
    26f0:	93 81       	ldd	r25, Z+3	; 0x03
    26f2:	0c 5f       	subi	r16, 0xFC	; 252
    26f4:	1f 4f       	sbci	r17, 0xFF	; 255
    26f6:	06 c0       	rjmp	.+12     	; 0x2704 <vfprintf+0x29c>
    26f8:	60 81       	ld	r22, Z
    26fa:	71 81       	ldd	r23, Z+1	; 0x01
    26fc:	80 e0       	ldi	r24, 0x00	; 0
    26fe:	90 e0       	ldi	r25, 0x00	; 0
    2700:	0e 5f       	subi	r16, 0xFE	; 254
    2702:	1f 4f       	sbci	r17, 0xFF	; 255
    2704:	a3 01       	movw	r20, r6
    2706:	0e 94 8a 14 	call	0x2914	; 0x2914 <__ultoa_invert>
    270a:	88 2e       	mov	r8, r24
    270c:	86 18       	sub	r8, r6
    270e:	fb 2d       	mov	r31, r11
    2710:	ff 77       	andi	r31, 0x7F	; 127
    2712:	3f 2e       	mov	r3, r31
    2714:	36 fe       	sbrs	r3, 6
    2716:	0d c0       	rjmp	.+26     	; 0x2732 <vfprintf+0x2ca>
    2718:	23 2d       	mov	r18, r3
    271a:	2e 7f       	andi	r18, 0xFE	; 254
    271c:	a2 2e       	mov	r10, r18
    271e:	89 14       	cp	r8, r9
    2720:	58 f4       	brcc	.+22     	; 0x2738 <vfprintf+0x2d0>
    2722:	34 fe       	sbrs	r3, 4
    2724:	0b c0       	rjmp	.+22     	; 0x273c <vfprintf+0x2d4>
    2726:	32 fc       	sbrc	r3, 2
    2728:	09 c0       	rjmp	.+18     	; 0x273c <vfprintf+0x2d4>
    272a:	83 2d       	mov	r24, r3
    272c:	8e 7e       	andi	r24, 0xEE	; 238
    272e:	a8 2e       	mov	r10, r24
    2730:	05 c0       	rjmp	.+10     	; 0x273c <vfprintf+0x2d4>
    2732:	b8 2c       	mov	r11, r8
    2734:	a3 2c       	mov	r10, r3
    2736:	03 c0       	rjmp	.+6      	; 0x273e <vfprintf+0x2d6>
    2738:	b8 2c       	mov	r11, r8
    273a:	01 c0       	rjmp	.+2      	; 0x273e <vfprintf+0x2d6>
    273c:	b9 2c       	mov	r11, r9
    273e:	a4 fe       	sbrs	r10, 4
    2740:	0f c0       	rjmp	.+30     	; 0x2760 <vfprintf+0x2f8>
    2742:	fe 01       	movw	r30, r28
    2744:	e8 0d       	add	r30, r8
    2746:	f1 1d       	adc	r31, r1
    2748:	80 81       	ld	r24, Z
    274a:	80 33       	cpi	r24, 0x30	; 48
    274c:	21 f4       	brne	.+8      	; 0x2756 <vfprintf+0x2ee>
    274e:	9a 2d       	mov	r25, r10
    2750:	99 7e       	andi	r25, 0xE9	; 233
    2752:	a9 2e       	mov	r10, r25
    2754:	09 c0       	rjmp	.+18     	; 0x2768 <vfprintf+0x300>
    2756:	a2 fe       	sbrs	r10, 2
    2758:	06 c0       	rjmp	.+12     	; 0x2766 <vfprintf+0x2fe>
    275a:	b3 94       	inc	r11
    275c:	b3 94       	inc	r11
    275e:	04 c0       	rjmp	.+8      	; 0x2768 <vfprintf+0x300>
    2760:	8a 2d       	mov	r24, r10
    2762:	86 78       	andi	r24, 0x86	; 134
    2764:	09 f0       	breq	.+2      	; 0x2768 <vfprintf+0x300>
    2766:	b3 94       	inc	r11
    2768:	a3 fc       	sbrc	r10, 3
    276a:	11 c0       	rjmp	.+34     	; 0x278e <vfprintf+0x326>
    276c:	a0 fe       	sbrs	r10, 0
    276e:	06 c0       	rjmp	.+12     	; 0x277c <vfprintf+0x314>
    2770:	b2 14       	cp	r11, r2
    2772:	88 f4       	brcc	.+34     	; 0x2796 <vfprintf+0x32e>
    2774:	28 0c       	add	r2, r8
    2776:	92 2c       	mov	r9, r2
    2778:	9b 18       	sub	r9, r11
    277a:	0e c0       	rjmp	.+28     	; 0x2798 <vfprintf+0x330>
    277c:	b2 14       	cp	r11, r2
    277e:	60 f4       	brcc	.+24     	; 0x2798 <vfprintf+0x330>
    2780:	b6 01       	movw	r22, r12
    2782:	80 e2       	ldi	r24, 0x20	; 32
    2784:	90 e0       	ldi	r25, 0x00	; 0
    2786:	0e 94 4e 14 	call	0x289c	; 0x289c <fputc>
    278a:	b3 94       	inc	r11
    278c:	f7 cf       	rjmp	.-18     	; 0x277c <vfprintf+0x314>
    278e:	b2 14       	cp	r11, r2
    2790:	18 f4       	brcc	.+6      	; 0x2798 <vfprintf+0x330>
    2792:	2b 18       	sub	r2, r11
    2794:	02 c0       	rjmp	.+4      	; 0x279a <vfprintf+0x332>
    2796:	98 2c       	mov	r9, r8
    2798:	21 2c       	mov	r2, r1
    279a:	a4 fe       	sbrs	r10, 4
    279c:	10 c0       	rjmp	.+32     	; 0x27be <vfprintf+0x356>
    279e:	b6 01       	movw	r22, r12
    27a0:	80 e3       	ldi	r24, 0x30	; 48
    27a2:	90 e0       	ldi	r25, 0x00	; 0
    27a4:	0e 94 4e 14 	call	0x289c	; 0x289c <fputc>
    27a8:	a2 fe       	sbrs	r10, 2
    27aa:	17 c0       	rjmp	.+46     	; 0x27da <vfprintf+0x372>
    27ac:	a1 fc       	sbrc	r10, 1
    27ae:	03 c0       	rjmp	.+6      	; 0x27b6 <vfprintf+0x34e>
    27b0:	88 e7       	ldi	r24, 0x78	; 120
    27b2:	90 e0       	ldi	r25, 0x00	; 0
    27b4:	02 c0       	rjmp	.+4      	; 0x27ba <vfprintf+0x352>
    27b6:	88 e5       	ldi	r24, 0x58	; 88
    27b8:	90 e0       	ldi	r25, 0x00	; 0
    27ba:	b6 01       	movw	r22, r12
    27bc:	0c c0       	rjmp	.+24     	; 0x27d6 <vfprintf+0x36e>
    27be:	8a 2d       	mov	r24, r10
    27c0:	86 78       	andi	r24, 0x86	; 134
    27c2:	59 f0       	breq	.+22     	; 0x27da <vfprintf+0x372>
    27c4:	a1 fe       	sbrs	r10, 1
    27c6:	02 c0       	rjmp	.+4      	; 0x27cc <vfprintf+0x364>
    27c8:	8b e2       	ldi	r24, 0x2B	; 43
    27ca:	01 c0       	rjmp	.+2      	; 0x27ce <vfprintf+0x366>
    27cc:	80 e2       	ldi	r24, 0x20	; 32
    27ce:	a7 fc       	sbrc	r10, 7
    27d0:	8d e2       	ldi	r24, 0x2D	; 45
    27d2:	b6 01       	movw	r22, r12
    27d4:	90 e0       	ldi	r25, 0x00	; 0
    27d6:	0e 94 4e 14 	call	0x289c	; 0x289c <fputc>
    27da:	89 14       	cp	r8, r9
    27dc:	38 f4       	brcc	.+14     	; 0x27ec <vfprintf+0x384>
    27de:	b6 01       	movw	r22, r12
    27e0:	80 e3       	ldi	r24, 0x30	; 48
    27e2:	90 e0       	ldi	r25, 0x00	; 0
    27e4:	0e 94 4e 14 	call	0x289c	; 0x289c <fputc>
    27e8:	9a 94       	dec	r9
    27ea:	f7 cf       	rjmp	.-18     	; 0x27da <vfprintf+0x372>
    27ec:	8a 94       	dec	r8
    27ee:	f3 01       	movw	r30, r6
    27f0:	e8 0d       	add	r30, r8
    27f2:	f1 1d       	adc	r31, r1
    27f4:	80 81       	ld	r24, Z
    27f6:	b6 01       	movw	r22, r12
    27f8:	90 e0       	ldi	r25, 0x00	; 0
    27fa:	0e 94 4e 14 	call	0x289c	; 0x289c <fputc>
    27fe:	81 10       	cpse	r8, r1
    2800:	f5 cf       	rjmp	.-22     	; 0x27ec <vfprintf+0x384>
    2802:	22 20       	and	r2, r2
    2804:	09 f4       	brne	.+2      	; 0x2808 <vfprintf+0x3a0>
    2806:	42 ce       	rjmp	.-892    	; 0x248c <vfprintf+0x24>
    2808:	b6 01       	movw	r22, r12
    280a:	80 e2       	ldi	r24, 0x20	; 32
    280c:	90 e0       	ldi	r25, 0x00	; 0
    280e:	0e 94 4e 14 	call	0x289c	; 0x289c <fputc>
    2812:	2a 94       	dec	r2
    2814:	f6 cf       	rjmp	.-20     	; 0x2802 <vfprintf+0x39a>
    2816:	f6 01       	movw	r30, r12
    2818:	86 81       	ldd	r24, Z+6	; 0x06
    281a:	97 81       	ldd	r25, Z+7	; 0x07
    281c:	02 c0       	rjmp	.+4      	; 0x2822 <vfprintf+0x3ba>
    281e:	8f ef       	ldi	r24, 0xFF	; 255
    2820:	9f ef       	ldi	r25, 0xFF	; 255
    2822:	2b 96       	adiw	r28, 0x0b	; 11
    2824:	e2 e1       	ldi	r30, 0x12	; 18
    2826:	0c 94 04 15 	jmp	0x2a08	; 0x2a08 <__epilogue_restores__>

0000282a <calloc>:
    282a:	0f 93       	push	r16
    282c:	1f 93       	push	r17
    282e:	cf 93       	push	r28
    2830:	df 93       	push	r29
    2832:	86 9f       	mul	r24, r22
    2834:	80 01       	movw	r16, r0
    2836:	87 9f       	mul	r24, r23
    2838:	10 0d       	add	r17, r0
    283a:	96 9f       	mul	r25, r22
    283c:	10 0d       	add	r17, r0
    283e:	11 24       	eor	r1, r1
    2840:	c8 01       	movw	r24, r16
    2842:	0e 94 d1 0f 	call	0x1fa2	; 0x1fa2 <malloc>
    2846:	ec 01       	movw	r28, r24
    2848:	00 97       	sbiw	r24, 0x00	; 0
    284a:	29 f0       	breq	.+10     	; 0x2856 <calloc+0x2c>
    284c:	a8 01       	movw	r20, r16
    284e:	60 e0       	ldi	r22, 0x00	; 0
    2850:	70 e0       	ldi	r23, 0x00	; 0
    2852:	0e 94 3c 14 	call	0x2878	; 0x2878 <memset>
    2856:	ce 01       	movw	r24, r28
    2858:	df 91       	pop	r29
    285a:	cf 91       	pop	r28
    285c:	1f 91       	pop	r17
    285e:	0f 91       	pop	r16
    2860:	08 95       	ret

00002862 <strnlen_P>:
    2862:	fc 01       	movw	r30, r24
    2864:	05 90       	lpm	r0, Z+
    2866:	61 50       	subi	r22, 0x01	; 1
    2868:	70 40       	sbci	r23, 0x00	; 0
    286a:	01 10       	cpse	r0, r1
    286c:	d8 f7       	brcc	.-10     	; 0x2864 <strnlen_P+0x2>
    286e:	80 95       	com	r24
    2870:	90 95       	com	r25
    2872:	8e 0f       	add	r24, r30
    2874:	9f 1f       	adc	r25, r31
    2876:	08 95       	ret

00002878 <memset>:
    2878:	dc 01       	movw	r26, r24
    287a:	01 c0       	rjmp	.+2      	; 0x287e <memset+0x6>
    287c:	6d 93       	st	X+, r22
    287e:	41 50       	subi	r20, 0x01	; 1
    2880:	50 40       	sbci	r21, 0x00	; 0
    2882:	e0 f7       	brcc	.-8      	; 0x287c <memset+0x4>
    2884:	08 95       	ret

00002886 <strnlen>:
    2886:	fc 01       	movw	r30, r24
    2888:	61 50       	subi	r22, 0x01	; 1
    288a:	70 40       	sbci	r23, 0x00	; 0
    288c:	01 90       	ld	r0, Z+
    288e:	01 10       	cpse	r0, r1
    2890:	d8 f7       	brcc	.-10     	; 0x2888 <strnlen+0x2>
    2892:	80 95       	com	r24
    2894:	90 95       	com	r25
    2896:	8e 0f       	add	r24, r30
    2898:	9f 1f       	adc	r25, r31
    289a:	08 95       	ret

0000289c <fputc>:
    289c:	0f 93       	push	r16
    289e:	1f 93       	push	r17
    28a0:	cf 93       	push	r28
    28a2:	df 93       	push	r29
    28a4:	fb 01       	movw	r30, r22
    28a6:	23 81       	ldd	r18, Z+3	; 0x03
    28a8:	21 fd       	sbrc	r18, 1
    28aa:	03 c0       	rjmp	.+6      	; 0x28b2 <fputc+0x16>
    28ac:	8f ef       	ldi	r24, 0xFF	; 255
    28ae:	9f ef       	ldi	r25, 0xFF	; 255
    28b0:	2c c0       	rjmp	.+88     	; 0x290a <fputc+0x6e>
    28b2:	22 ff       	sbrs	r18, 2
    28b4:	16 c0       	rjmp	.+44     	; 0x28e2 <fputc+0x46>
    28b6:	46 81       	ldd	r20, Z+6	; 0x06
    28b8:	57 81       	ldd	r21, Z+7	; 0x07
    28ba:	24 81       	ldd	r18, Z+4	; 0x04
    28bc:	35 81       	ldd	r19, Z+5	; 0x05
    28be:	42 17       	cp	r20, r18
    28c0:	53 07       	cpc	r21, r19
    28c2:	44 f4       	brge	.+16     	; 0x28d4 <fputc+0x38>
    28c4:	a0 81       	ld	r26, Z
    28c6:	b1 81       	ldd	r27, Z+1	; 0x01
    28c8:	9d 01       	movw	r18, r26
    28ca:	2f 5f       	subi	r18, 0xFF	; 255
    28cc:	3f 4f       	sbci	r19, 0xFF	; 255
    28ce:	31 83       	std	Z+1, r19	; 0x01
    28d0:	20 83       	st	Z, r18
    28d2:	8c 93       	st	X, r24
    28d4:	26 81       	ldd	r18, Z+6	; 0x06
    28d6:	37 81       	ldd	r19, Z+7	; 0x07
    28d8:	2f 5f       	subi	r18, 0xFF	; 255
    28da:	3f 4f       	sbci	r19, 0xFF	; 255
    28dc:	37 83       	std	Z+7, r19	; 0x07
    28de:	26 83       	std	Z+6, r18	; 0x06
    28e0:	14 c0       	rjmp	.+40     	; 0x290a <fputc+0x6e>
    28e2:	8b 01       	movw	r16, r22
    28e4:	ec 01       	movw	r28, r24
    28e6:	fb 01       	movw	r30, r22
    28e8:	00 84       	ldd	r0, Z+8	; 0x08
    28ea:	f1 85       	ldd	r31, Z+9	; 0x09
    28ec:	e0 2d       	mov	r30, r0
    28ee:	09 95       	icall
    28f0:	89 2b       	or	r24, r25
    28f2:	e1 f6       	brne	.-72     	; 0x28ac <fputc+0x10>
    28f4:	d8 01       	movw	r26, r16
    28f6:	16 96       	adiw	r26, 0x06	; 6
    28f8:	8d 91       	ld	r24, X+
    28fa:	9c 91       	ld	r25, X
    28fc:	17 97       	sbiw	r26, 0x07	; 7
    28fe:	01 96       	adiw	r24, 0x01	; 1
    2900:	17 96       	adiw	r26, 0x07	; 7
    2902:	9c 93       	st	X, r25
    2904:	8e 93       	st	-X, r24
    2906:	16 97       	sbiw	r26, 0x06	; 6
    2908:	ce 01       	movw	r24, r28
    290a:	df 91       	pop	r29
    290c:	cf 91       	pop	r28
    290e:	1f 91       	pop	r17
    2910:	0f 91       	pop	r16
    2912:	08 95       	ret

00002914 <__ultoa_invert>:
    2914:	fa 01       	movw	r30, r20
    2916:	aa 27       	eor	r26, r26
    2918:	28 30       	cpi	r18, 0x08	; 8
    291a:	51 f1       	breq	.+84     	; 0x2970 <__ultoa_invert+0x5c>
    291c:	20 31       	cpi	r18, 0x10	; 16
    291e:	81 f1       	breq	.+96     	; 0x2980 <__ultoa_invert+0x6c>
    2920:	e8 94       	clt
    2922:	6f 93       	push	r22
    2924:	6e 7f       	andi	r22, 0xFE	; 254
    2926:	6e 5f       	subi	r22, 0xFE	; 254
    2928:	7f 4f       	sbci	r23, 0xFF	; 255
    292a:	8f 4f       	sbci	r24, 0xFF	; 255
    292c:	9f 4f       	sbci	r25, 0xFF	; 255
    292e:	af 4f       	sbci	r26, 0xFF	; 255
    2930:	b1 e0       	ldi	r27, 0x01	; 1
    2932:	3e d0       	rcall	.+124    	; 0x29b0 <__ultoa_invert+0x9c>
    2934:	b4 e0       	ldi	r27, 0x04	; 4
    2936:	3c d0       	rcall	.+120    	; 0x29b0 <__ultoa_invert+0x9c>
    2938:	67 0f       	add	r22, r23
    293a:	78 1f       	adc	r23, r24
    293c:	89 1f       	adc	r24, r25
    293e:	9a 1f       	adc	r25, r26
    2940:	a1 1d       	adc	r26, r1
    2942:	68 0f       	add	r22, r24
    2944:	79 1f       	adc	r23, r25
    2946:	8a 1f       	adc	r24, r26
    2948:	91 1d       	adc	r25, r1
    294a:	a1 1d       	adc	r26, r1
    294c:	6a 0f       	add	r22, r26
    294e:	71 1d       	adc	r23, r1
    2950:	81 1d       	adc	r24, r1
    2952:	91 1d       	adc	r25, r1
    2954:	a1 1d       	adc	r26, r1
    2956:	20 d0       	rcall	.+64     	; 0x2998 <__ultoa_invert+0x84>
    2958:	09 f4       	brne	.+2      	; 0x295c <__ultoa_invert+0x48>
    295a:	68 94       	set
    295c:	3f 91       	pop	r19
    295e:	2a e0       	ldi	r18, 0x0A	; 10
    2960:	26 9f       	mul	r18, r22
    2962:	11 24       	eor	r1, r1
    2964:	30 19       	sub	r19, r0
    2966:	30 5d       	subi	r19, 0xD0	; 208
    2968:	31 93       	st	Z+, r19
    296a:	de f6       	brtc	.-74     	; 0x2922 <__ultoa_invert+0xe>
    296c:	cf 01       	movw	r24, r30
    296e:	08 95       	ret
    2970:	46 2f       	mov	r20, r22
    2972:	47 70       	andi	r20, 0x07	; 7
    2974:	40 5d       	subi	r20, 0xD0	; 208
    2976:	41 93       	st	Z+, r20
    2978:	b3 e0       	ldi	r27, 0x03	; 3
    297a:	0f d0       	rcall	.+30     	; 0x299a <__ultoa_invert+0x86>
    297c:	c9 f7       	brne	.-14     	; 0x2970 <__ultoa_invert+0x5c>
    297e:	f6 cf       	rjmp	.-20     	; 0x296c <__ultoa_invert+0x58>
    2980:	46 2f       	mov	r20, r22
    2982:	4f 70       	andi	r20, 0x0F	; 15
    2984:	40 5d       	subi	r20, 0xD0	; 208
    2986:	4a 33       	cpi	r20, 0x3A	; 58
    2988:	18 f0       	brcs	.+6      	; 0x2990 <__ultoa_invert+0x7c>
    298a:	49 5d       	subi	r20, 0xD9	; 217
    298c:	31 fd       	sbrc	r19, 1
    298e:	40 52       	subi	r20, 0x20	; 32
    2990:	41 93       	st	Z+, r20
    2992:	02 d0       	rcall	.+4      	; 0x2998 <__ultoa_invert+0x84>
    2994:	a9 f7       	brne	.-22     	; 0x2980 <__ultoa_invert+0x6c>
    2996:	ea cf       	rjmp	.-44     	; 0x296c <__ultoa_invert+0x58>
    2998:	b4 e0       	ldi	r27, 0x04	; 4
    299a:	a6 95       	lsr	r26
    299c:	97 95       	ror	r25
    299e:	87 95       	ror	r24
    29a0:	77 95       	ror	r23
    29a2:	67 95       	ror	r22
    29a4:	ba 95       	dec	r27
    29a6:	c9 f7       	brne	.-14     	; 0x299a <__ultoa_invert+0x86>
    29a8:	00 97       	sbiw	r24, 0x00	; 0
    29aa:	61 05       	cpc	r22, r1
    29ac:	71 05       	cpc	r23, r1
    29ae:	08 95       	ret
    29b0:	9b 01       	movw	r18, r22
    29b2:	ac 01       	movw	r20, r24
    29b4:	0a 2e       	mov	r0, r26
    29b6:	06 94       	lsr	r0
    29b8:	57 95       	ror	r21
    29ba:	47 95       	ror	r20
    29bc:	37 95       	ror	r19
    29be:	27 95       	ror	r18
    29c0:	ba 95       	dec	r27
    29c2:	c9 f7       	brne	.-14     	; 0x29b6 <__ultoa_invert+0xa2>
    29c4:	62 0f       	add	r22, r18
    29c6:	73 1f       	adc	r23, r19
    29c8:	84 1f       	adc	r24, r20
    29ca:	95 1f       	adc	r25, r21
    29cc:	a0 1d       	adc	r26, r0
    29ce:	08 95       	ret

000029d0 <__prologue_saves__>:
    29d0:	2f 92       	push	r2
    29d2:	3f 92       	push	r3
    29d4:	4f 92       	push	r4
    29d6:	5f 92       	push	r5
    29d8:	6f 92       	push	r6
    29da:	7f 92       	push	r7
    29dc:	8f 92       	push	r8
    29de:	9f 92       	push	r9
    29e0:	af 92       	push	r10
    29e2:	bf 92       	push	r11
    29e4:	cf 92       	push	r12
    29e6:	df 92       	push	r13
    29e8:	ef 92       	push	r14
    29ea:	ff 92       	push	r15
    29ec:	0f 93       	push	r16
    29ee:	1f 93       	push	r17
    29f0:	cf 93       	push	r28
    29f2:	df 93       	push	r29
    29f4:	cd b7       	in	r28, 0x3d	; 61
    29f6:	de b7       	in	r29, 0x3e	; 62
    29f8:	ca 1b       	sub	r28, r26
    29fa:	db 0b       	sbc	r29, r27
    29fc:	0f b6       	in	r0, 0x3f	; 63
    29fe:	f8 94       	cli
    2a00:	de bf       	out	0x3e, r29	; 62
    2a02:	0f be       	out	0x3f, r0	; 63
    2a04:	cd bf       	out	0x3d, r28	; 61
    2a06:	09 94       	ijmp

00002a08 <__epilogue_restores__>:
    2a08:	2a 88       	ldd	r2, Y+18	; 0x12
    2a0a:	39 88       	ldd	r3, Y+17	; 0x11
    2a0c:	48 88       	ldd	r4, Y+16	; 0x10
    2a0e:	5f 84       	ldd	r5, Y+15	; 0x0f
    2a10:	6e 84       	ldd	r6, Y+14	; 0x0e
    2a12:	7d 84       	ldd	r7, Y+13	; 0x0d
    2a14:	8c 84       	ldd	r8, Y+12	; 0x0c
    2a16:	9b 84       	ldd	r9, Y+11	; 0x0b
    2a18:	aa 84       	ldd	r10, Y+10	; 0x0a
    2a1a:	b9 84       	ldd	r11, Y+9	; 0x09
    2a1c:	c8 84       	ldd	r12, Y+8	; 0x08
    2a1e:	df 80       	ldd	r13, Y+7	; 0x07
    2a20:	ee 80       	ldd	r14, Y+6	; 0x06
    2a22:	fd 80       	ldd	r15, Y+5	; 0x05
    2a24:	0c 81       	ldd	r16, Y+4	; 0x04
    2a26:	1b 81       	ldd	r17, Y+3	; 0x03
    2a28:	aa 81       	ldd	r26, Y+2	; 0x02
    2a2a:	b9 81       	ldd	r27, Y+1	; 0x01
    2a2c:	ce 0f       	add	r28, r30
    2a2e:	d1 1d       	adc	r29, r1
    2a30:	0f b6       	in	r0, 0x3f	; 63
    2a32:	f8 94       	cli
    2a34:	de bf       	out	0x3e, r29	; 62
    2a36:	0f be       	out	0x3f, r0	; 63
    2a38:	cd bf       	out	0x3d, r28	; 61
    2a3a:	ed 01       	movw	r28, r26
    2a3c:	08 95       	ret

00002a3e <_exit>:
    2a3e:	f8 94       	cli

00002a40 <__stop_program>:
    2a40:	ff cf       	rjmp	.-2      	; 0x2a40 <__stop_program>
