
Byggern2.elf:     file format elf32-avr

Sections:
Idx Name          Size      VMA       LMA       File off  Algn
  0 .data         000000b6  00800100  00002e2e  00002ec2  2**0
                  CONTENTS, ALLOC, LOAD, DATA
  1 .text         00002e2e  00000000  00000000  00000094  2**1
                  CONTENTS, ALLOC, LOAD, READONLY, CODE
  2 .bss          0000001e  008001b6  008001b6  00002f78  2**0
                  ALLOC
  3 .comment      0000005c  00000000  00000000  00002f78  2**0
                  CONTENTS, READONLY
  4 .note.gnu.avr.deviceinfo 0000003c  00000000  00000000  00002fd4  2**2
                  CONTENTS, READONLY
  5 .debug_aranges 000003a0  00000000  00000000  00003010  2**0
                  CONTENTS, READONLY, DEBUGGING
  6 .debug_info   00004e59  00000000  00000000  000033b0  2**0
                  CONTENTS, READONLY, DEBUGGING
  7 .debug_abbrev 00001979  00000000  00000000  00008209  2**0
                  CONTENTS, READONLY, DEBUGGING
  8 .debug_line   00002084  00000000  00000000  00009b82  2**0
                  CONTENTS, READONLY, DEBUGGING
  9 .debug_frame  0000095c  00000000  00000000  0000bc08  2**2
                  CONTENTS, READONLY, DEBUGGING
 10 .debug_str    00000ff4  00000000  00000000  0000c564  2**0
                  CONTENTS, READONLY, DEBUGGING
 11 .debug_loc    000024ca  00000000  00000000  0000d558  2**0
                  CONTENTS, READONLY, DEBUGGING
 12 .debug_ranges 00000330  00000000  00000000  0000fa22  2**0
                  CONTENTS, READONLY, DEBUGGING

Disassembly of section .text:

00000000 <__vectors>:
       0:	0c 94 23 06 	jmp	0xc46	; 0xc46 <__ctors_end>
       4:	0c 94 d0 06 	jmp	0xda0	; 0xda0 <__vector_1>
       8:	0c 94 40 06 	jmp	0xc80	; 0xc80 <__bad_interrupt>
       c:	0c 94 40 06 	jmp	0xc80	; 0xc80 <__bad_interrupt>
      10:	0c 94 40 06 	jmp	0xc80	; 0xc80 <__bad_interrupt>
      14:	0c 94 40 06 	jmp	0xc80	; 0xc80 <__bad_interrupt>
      18:	0c 94 40 06 	jmp	0xc80	; 0xc80 <__bad_interrupt>
      1c:	0c 94 40 06 	jmp	0xc80	; 0xc80 <__bad_interrupt>
      20:	0c 94 40 06 	jmp	0xc80	; 0xc80 <__bad_interrupt>
      24:	0c 94 40 06 	jmp	0xc80	; 0xc80 <__bad_interrupt>
      28:	0c 94 89 10 	jmp	0x2112	; 0x2112 <__vector_10>
      2c:	0c 94 40 06 	jmp	0xc80	; 0xc80 <__bad_interrupt>
      30:	0c 94 40 06 	jmp	0xc80	; 0xc80 <__bad_interrupt>
      34:	0c 94 40 06 	jmp	0xc80	; 0xc80 <__bad_interrupt>
      38:	0c 94 40 06 	jmp	0xc80	; 0xc80 <__bad_interrupt>
      3c:	0c 94 40 06 	jmp	0xc80	; 0xc80 <__bad_interrupt>
      40:	0c 94 fc 0f 	jmp	0x1ff8	; 0x1ff8 <__vector_16>
      44:	0c 94 40 06 	jmp	0xc80	; 0xc80 <__bad_interrupt>
      48:	0c 94 40 06 	jmp	0xc80	; 0xc80 <__bad_interrupt>
      4c:	0c 94 40 06 	jmp	0xc80	; 0xc80 <__bad_interrupt>
      50:	0c 94 40 06 	jmp	0xc80	; 0xc80 <__bad_interrupt>
      54:	0c 94 40 06 	jmp	0xc80	; 0xc80 <__bad_interrupt>
      58:	0c 94 40 06 	jmp	0xc80	; 0xc80 <__bad_interrupt>
      5c:	0c 94 40 06 	jmp	0xc80	; 0xc80 <__bad_interrupt>
      60:	0c 94 40 06 	jmp	0xc80	; 0xc80 <__bad_interrupt>
      64:	0c 94 40 06 	jmp	0xc80	; 0xc80 <__bad_interrupt>
      68:	0c 94 40 06 	jmp	0xc80	; 0xc80 <__bad_interrupt>
      6c:	0c 94 40 06 	jmp	0xc80	; 0xc80 <__bad_interrupt>

00000070 <__trampolines_end>:
	...
      78:	00 06       	cpc	r0, r16
      7a:	5f 5f       	subi	r21, 0xFF	; 255
      7c:	06 00       	.word	0x0006	; ????
      7e:	00 00       	nop
      80:	00 07       	cpc	r16, r16
      82:	07 00       	.word	0x0007	; ????
      84:	07 07       	cpc	r16, r23
      86:	00 00       	nop
      88:	14 7f       	andi	r17, 0xF4	; 244
      8a:	7f 14       	cp	r7, r15
      8c:	7f 7f       	andi	r23, 0xFF	; 255
      8e:	14 00       	.word	0x0014	; ????
      90:	24 2e       	mov	r2, r20
      92:	6b 6b       	ori	r22, 0xBB	; 187
      94:	3a 12       	cpse	r3, r26
      96:	00 00       	nop
      98:	46 66       	ori	r20, 0x66	; 102
      9a:	30 18       	sub	r3, r0
      9c:	0c 66       	ori	r16, 0x6C	; 108
      9e:	62 00       	.word	0x0062	; ????
      a0:	30 7a       	andi	r19, 0xA0	; 160
      a2:	4f 5d       	subi	r20, 0xDF	; 223
      a4:	37 7a       	andi	r19, 0xA7	; 167
      a6:	48 00       	.word	0x0048	; ????
      a8:	04 07       	cpc	r16, r20
      aa:	03 00       	.word	0x0003	; ????
      ac:	00 00       	nop
      ae:	00 00       	nop
      b0:	00 1c       	adc	r0, r0
      b2:	3e 63       	ori	r19, 0x3E	; 62
      b4:	41 00       	.word	0x0041	; ????
      b6:	00 00       	nop
      b8:	00 41       	sbci	r16, 0x10	; 16
      ba:	63 3e       	cpi	r22, 0xE3	; 227
      bc:	1c 00       	.word	0x001c	; ????
      be:	00 00       	nop
      c0:	08 2a       	or	r0, r24
      c2:	3e 1c       	adc	r3, r14
      c4:	1c 3e       	cpi	r17, 0xEC	; 236
      c6:	2a 08       	sbc	r2, r10
      c8:	08 08       	sbc	r0, r8
      ca:	3e 3e       	cpi	r19, 0xEE	; 238
      cc:	08 08       	sbc	r0, r8
      ce:	00 00       	nop
      d0:	00 a0       	ldd	r0, Z+32	; 0x20
      d2:	e0 60       	ori	r30, 0x00	; 0
      d4:	00 00       	nop
      d6:	00 00       	nop
      d8:	08 08       	sbc	r0, r8
      da:	08 08       	sbc	r0, r8
      dc:	08 08       	sbc	r0, r8
      de:	00 00       	nop
      e0:	00 00       	nop
      e2:	60 60       	ori	r22, 0x00	; 0
      e4:	00 00       	nop
      e6:	00 00       	nop
      e8:	60 30       	cpi	r22, 0x00	; 0
      ea:	18 0c       	add	r1, r8
      ec:	06 03       	mulsu	r16, r22
      ee:	01 00       	.word	0x0001	; ????
      f0:	3e 7f       	andi	r19, 0xFE	; 254
      f2:	59 4d       	sbci	r21, 0xD9	; 217
      f4:	7f 3e       	cpi	r23, 0xEF	; 239
      f6:	00 00       	nop
      f8:	42 42       	sbci	r20, 0x22	; 34
      fa:	7f 7f       	andi	r23, 0xFF	; 255
      fc:	40 40       	sbci	r20, 0x00	; 0
      fe:	00 00       	nop
     100:	62 73       	andi	r22, 0x32	; 50
     102:	59 49       	sbci	r21, 0x99	; 153
     104:	6f 66       	ori	r22, 0x6F	; 111
     106:	00 00       	nop
     108:	22 63       	ori	r18, 0x32	; 50
     10a:	49 49       	sbci	r20, 0x99	; 153
     10c:	7f 36       	cpi	r23, 0x6F	; 111
     10e:	00 00       	nop
     110:	18 1c       	adc	r1, r8
     112:	16 13       	cpse	r17, r22
     114:	7f 7f       	andi	r23, 0xFF	; 255
     116:	10 00       	.word	0x0010	; ????
     118:	27 67       	ori	r18, 0x77	; 119
     11a:	45 45       	sbci	r20, 0x55	; 85
     11c:	7d 39       	cpi	r23, 0x9D	; 157
     11e:	00 00       	nop
     120:	3c 7e       	andi	r19, 0xEC	; 236
     122:	4b 49       	sbci	r20, 0x9B	; 155
     124:	79 30       	cpi	r23, 0x09	; 9
     126:	00 00       	nop
     128:	03 63       	ori	r16, 0x33	; 51
     12a:	71 19       	sub	r23, r1
     12c:	0f 07       	cpc	r16, r31
     12e:	00 00       	nop
     130:	36 7f       	andi	r19, 0xF6	; 246
     132:	49 49       	sbci	r20, 0x99	; 153
     134:	7f 36       	cpi	r23, 0x6F	; 111
     136:	00 00       	nop
     138:	06 4f       	sbci	r16, 0xF6	; 246
     13a:	49 69       	ori	r20, 0x99	; 153
     13c:	3f 1e       	adc	r3, r31
     13e:	00 00       	nop
     140:	00 00       	nop
     142:	6c 6c       	ori	r22, 0xCC	; 204
     144:	00 00       	nop
     146:	00 00       	nop
     148:	00 a0       	ldd	r0, Z+32	; 0x20
     14a:	ec 6c       	ori	r30, 0xCC	; 204
     14c:	00 00       	nop
     14e:	00 00       	nop
     150:	18 24       	eor	r1, r8
     152:	42 99       	sbic	0x08, 2	; 8
     154:	24 42       	sbci	r18, 0x24	; 36
     156:	81 00       	.word	0x0081	; ????
     158:	14 14       	cp	r1, r4
     15a:	14 14       	cp	r1, r4
     15c:	14 14       	cp	r1, r4
     15e:	00 00       	nop
     160:	81 42       	sbci	r24, 0x21	; 33
     162:	24 99       	sbic	0x04, 4	; 4
     164:	42 24       	eor	r4, r2
     166:	18 00       	.word	0x0018	; ????
     168:	02 03       	mulsu	r16, r18
     16a:	51 59       	subi	r21, 0x91	; 145
     16c:	0f 06       	cpc	r0, r31
     16e:	00 00       	nop
     170:	3e 7f       	andi	r19, 0xFE	; 254
     172:	41 5d       	subi	r20, 0xD1	; 209
     174:	5d 1f       	adc	r21, r29
     176:	1e 00       	.word	0x001e	; ????
     178:	ff 3e       	cpi	r31, 0xEF	; 239
     17a:	00 00       	nop
     17c:	00 00       	nop
     17e:	00 00       	nop
     180:	ff 08       	sbc	r15, r15
     182:	3e 00       	.word	0x003e	; ????
     184:	00 00       	nop
     186:	00 00       	nop
     188:	ff 08       	sbc	r15, r15
     18a:	08 3e       	cpi	r16, 0xE8	; 232
     18c:	00 00       	nop
     18e:	00 00       	nop
     190:	ff 08       	sbc	r15, r15
     192:	08 08       	sbc	r0, r8
     194:	3e 00       	.word	0x003e	; ????
     196:	00 00       	nop
     198:	ff 08       	sbc	r15, r15
     19a:	08 08       	sbc	r0, r8
     19c:	08 3e       	cpi	r16, 0xE8	; 232
     19e:	00 00       	nop
     1a0:	ff 08       	sbc	r15, r15
     1a2:	08 08       	sbc	r0, r8
     1a4:	08 08       	sbc	r0, r8
     1a6:	3e 00       	.word	0x003e	; ????
     1a8:	ff 08       	sbc	r15, r15
     1aa:	08 08       	sbc	r0, r8
     1ac:	08 08       	sbc	r0, r8
     1ae:	08 3e       	cpi	r16, 0xE8	; 232
	...
     1b8:	3c 7e       	andi	r19, 0xEC	; 236
     1ba:	ff ff       	.word	0xffff	; ????
     1bc:	ff ff       	.word	0xffff	; ????
     1be:	7e 3c       	cpi	r23, 0xCE	; 206
     1c0:	00 00       	nop
     1c2:	00 00       	nop
     1c4:	00 00       	nop
     1c6:	3e ff       	.word	0xff3e	; ????
     1c8:	00 00       	nop
     1ca:	00 00       	nop
     1cc:	00 3e       	cpi	r16, 0xE0	; 224
     1ce:	08 ff       	.word	0xff08	; ????
     1d0:	00 00       	nop
     1d2:	00 00       	nop
     1d4:	3e 08       	sbc	r3, r14
     1d6:	08 ff       	.word	0xff08	; ????
     1d8:	00 00       	nop
     1da:	00 3e       	cpi	r16, 0xE0	; 224
     1dc:	08 08       	sbc	r0, r8
     1de:	08 ff       	.word	0xff08	; ????
     1e0:	00 00       	nop
     1e2:	3e 08       	sbc	r3, r14
     1e4:	08 08       	sbc	r0, r8
     1e6:	08 ff       	.word	0xff08	; ????
     1e8:	00 3e       	cpi	r16, 0xE0	; 224
     1ea:	08 08       	sbc	r0, r8
     1ec:	08 08       	sbc	r0, r8
     1ee:	08 ff       	.word	0xff08	; ????
     1f0:	3e 08       	sbc	r3, r14
     1f2:	08 08       	sbc	r0, r8
     1f4:	08 08       	sbc	r0, r8
     1f6:	08 ff       	.word	0xff08	; ????
	...
     26c:	00 00       	nop
     26e:	00 80       	ld	r0, Z
	...
     2a4:	03 00       	.word	0x0003	; ????
     2a6:	00 00       	nop
     2a8:	00 00       	nop
     2aa:	00 00       	nop
     2ac:	f8 00       	.word	0x00f8	; ????
     2ae:	00 00       	nop
     2b0:	00 00       	nop
     2b2:	00 00       	nop
     2b4:	04 00       	.word	0x0004	; ????
     2b6:	00 00       	nop
     2b8:	00 44       	sbci	r16, 0x40	; 64
     2ba:	00 00       	nop
     2bc:	40 00       	.word	0x0040	; ????
     2be:	00 00       	nop
     2c0:	00 c4       	rjmp	.+2048   	; 0xac2 <table+0xac>
     2c2:	00 fd       	sbrc	r16, 0
     2c4:	7d 00       	.word	0x007d	; ????
     2c6:	00 00       	nop
     2c8:	41 7f       	andi	r20, 0xF1	; 241
     2ca:	7f 10       	cpse	r7, r15
     2cc:	38 6c       	ori	r19, 0xC8	; 200
     2ce:	44 00       	.word	0x0044	; ????
     2d0:	00 41       	sbci	r16, 0x10	; 16
     2d2:	7f 7f       	andi	r23, 0xFF	; 255
     2d4:	40 00       	.word	0x0040	; ????
     2d6:	00 00       	nop
     2d8:	7c 7c       	andi	r23, 0xCC	; 204
     2da:	0c 18       	sub	r0, r12
     2dc:	0c 7c       	andi	r16, 0xCC	; 204
     2de:	78 00       	.word	0x0078	; ????
     2e0:	7c 7c       	andi	r23, 0xCC	; 204
     2e2:	04 04       	cpc	r0, r4
     2e4:	7c 78       	andi	r23, 0x8C	; 140
     2e6:	00 00       	nop
     2e8:	38 7c       	andi	r19, 0xC8	; 200
     2ea:	44 44       	sbci	r20, 0x44	; 68
     2ec:	7c 38       	cpi	r23, 0x8C	; 140
     2ee:	00 00       	nop
     2f0:	84 fc       	sbrc	r8, 4
     2f2:	f8 a4       	ldd	r15, Y+40	; 0x28
     2f4:	24 3c       	cpi	r18, 0xC4	; 196
     2f6:	18 00       	.word	0x0018	; ????
     2f8:	18 3c       	cpi	r17, 0xC8	; 200
     2fa:	24 a4       	ldd	r2, Z+44	; 0x2c
     2fc:	f8 fc       	.word	0xfcf8	; ????
     2fe:	84 00       	.word	0x0084	; ????
     300:	44 7c       	andi	r20, 0xC4	; 196
     302:	78 44       	sbci	r23, 0x48	; 72
     304:	1c 18       	sub	r1, r12
     306:	00 00       	nop
     308:	48 5c       	subi	r20, 0xC8	; 200
     30a:	54 54       	subi	r21, 0x44	; 68
     30c:	74 24       	eor	r7, r4
     30e:	00 00       	nop
     310:	00 04       	cpc	r0, r0
     312:	3e 7f       	andi	r19, 0xFE	; 254
     314:	44 24       	eor	r4, r4
     316:	00 00       	nop
     318:	3c 7c       	andi	r19, 0xCC	; 204
     31a:	40 40       	sbci	r20, 0x00	; 0
     31c:	3c 7c       	andi	r19, 0xCC	; 204
     31e:	40 00       	.word	0x0040	; ????
     320:	1c 3c       	cpi	r17, 0xCC	; 204
     322:	60 60       	ori	r22, 0x00	; 0
     324:	3c 1c       	adc	r3, r12
     326:	00 00       	nop
     328:	3c 7c       	andi	r19, 0xCC	; 204
     32a:	60 30       	cpi	r22, 0x00	; 0
     32c:	60 7c       	andi	r22, 0xC0	; 192
     32e:	3c 00       	.word	0x003c	; ????
     330:	44 6c       	ori	r20, 0xC4	; 196
     332:	38 10       	cpse	r3, r8
     334:	38 6c       	ori	r19, 0xC8	; 200
     336:	44 00       	.word	0x0044	; ????
     338:	9c bc       	out	0x2c, r9	; 44
     33a:	a0 a0       	ldd	r10, Z+32	; 0x20
     33c:	fc 7c       	andi	r31, 0xCC	; 204
     33e:	00 00       	nop
     340:	4c 64       	ori	r20, 0x4C	; 76
     342:	74 5c       	subi	r23, 0xC4	; 196
     344:	4c 64       	ori	r20, 0x4C	; 76
     346:	00 00       	nop
     348:	08 08       	sbc	r0, r8
     34a:	3e 77       	andi	r19, 0x7E	; 126
     34c:	41 41       	sbci	r20, 0x11	; 17
     34e:	00 00       	nop
     350:	00 00       	nop
     352:	00 77       	andi	r16, 0x70	; 112
     354:	77 00       	.word	0x0077	; ????
     356:	00 00       	nop
     358:	41 41       	sbci	r20, 0x11	; 17
     35a:	77 3e       	cpi	r23, 0xE7	; 231
     35c:	08 08       	sbc	r0, r8
     35e:	00 00       	nop
     360:	02 03       	mulsu	r16, r18
     362:	01 03       	mulsu	r16, r17
     364:	02 03       	mulsu	r16, r18
     366:	01 00       	.word	0x0001	; ????

00000368 <font4>:
     368:	00 00 00 00 00 5c 00 00 0c 00 0c 00 7c 28 7c 28     .....\......|(|(
     378:	58 dc 68 00 24 10 48 00 28 54 28 40 00 0c 00 00     X.h.$.H.(T(@....
     388:	00 78 84 00 84 78 00 00 54 38 54 00 10 7c 10 00     .x...x..T8T..|..
     398:	80 40 00 00 10 10 10 00 00 40 00 00 60 10 0c 00     .@.......@..`...
     3a8:	38 54 38 00 48 7c 40 00 48 64 58 00 44 54 2c 00     8T8.H|@.HdX.DT,.
     3b8:	1c 10 7c 00 5c 54 24 00 38 54 24 00 64 14 0c 00     ..|.\T$.8T$.d...
     3c8:	68 54 2c 00 48 54 38 00 00 48 00 00 80 48 00 00     hT,.HT8..H...H..
     3d8:	10 28 44 00 28 28 28 00 44 28 10 00 04 54 08 00     .(D.(((.D(...T..
     3e8:	38 44 5c 00 78 14 78 00 7c 54 28 00 38 44 28 00     8D\.x.x.|T(.8D(.
     3f8:	7c 44 38 00 7c 54 44 00 7c 14 04 00 38 44 74 00     |D8.|TD.|...8Dt.
     408:	7c 10 7c 00 44 7c 44 00 20 40 3c 00 7c 10 6c 00     |.|.D|D. @<.|.l.
     418:	7c 40 40 00 7c 18 7c 00 78 10 3c 00 38 44 38 00     |@@.|.|.x.<.8D8.
     428:	7c 14 08 00 38 44 b8 00 7c 14 68 00 48 54 24 00     |...8D..|.h.HT$.
     438:	04 7c 04 00 7c 40 7c 00 3c 60 3c 00 7c 30 7c 00     .|..|@|.<`<.|0|.
     448:	6c 10 6c 00 0c 70 0c 00 64 54 4c 00 00 7c 44 00     l.l..p..dTL..|D.
     458:	0c 10 60 00 44 7c 00 00 08 04 08 00 80 80 80 00     ..`.D|..........
     468:	00 04 08 00 30 48 78 00 7c 48 30 00 30 48 48 00     ....0Hx.|H0.0HH.
     478:	30 48 7c 00 30 68 50 00 10 78 14 00 90 a8 78 00     0H|.0hP..x....x.
     488:	7c 08 70 00 50 74 40 00 80 80 74 00 7c 10 68 00     |.p.Pt@...t.|.h.
     498:	44 7c 40 00 78 10 78 00 78 08 70 00 30 48 30 00     D|@.x.x.x.p.0H0.
     4a8:	f8 28 10 00 30 48 f8 00 78 10 08 00 50 58 28 00     .(..0H..x...PX(.
     4b8:	08 3c 48 00 38 40 78 00 38 40 38 00 78 20 78 00     .<H.8@x.8@8.x x.
     4c8:	48 30 48 00 98 a0 78 00 48 68 58 00 10 78 84 00     H0H...x.HhX..x..
     4d8:	00 7c 00 00 84 78 10 00 08 04 08 04                 .|...x......

000004e4 <font6>:
	...
     4ec:	5f 00 00 00 00 07 00 07 00 00 14 7f 14 7f 14 00     _...............
     4fc:	24 2a 7f 2a 12 00 23 13 08 64 62 00 36 49 55 22     $*.*..#..db.6IU"
     50c:	50 00 00 05 03 00 00 00 00 1c 22 41 00 00 00 41     P........."A...A
     51c:	22 1c 00 00 08 2a 1c 2a 08 00 08 08 3e 08 08 00     "....*.*....>...
     52c:	00 50 30 00 00 00 08 08 08 08 08 00 00 60 60 00     .P0..........``.
     53c:	00 00 20 10 08 04 02 00 3e 51 49 45 3e 00 00 42     .. .....>QIE>..B
     54c:	7f 40 00 00 42 61 51 49 46 00 21 41 45 4b 31 00     .@..BaQIF.!AEK1.
     55c:	18 14 12 7f 10 00 27 45 45 45 39 00 3c 4a 49 49     ......'EEE9.<JII
     56c:	30 00 01 71 09 05 03 00 36 49 49 49 36 00 06 49     0..q....6III6..I
     57c:	49 29 1e 00 00 36 36 00 00 00 00 56 36 00 00 00     I)...66....V6...
     58c:	08 1c 2a 08 08 00 14 14 14 14 14 00 08 08 2a 1c     ..*...........*.
     59c:	08 00 02 01 51 09 06 00 32 49 79 41 3e 00 7e 11     ....Q...2IyA>.~.
     5ac:	11 11 7e 00 7f 49 49 49 36 00 3e 41 41 41 22 00     ..~..III6.>AAA".
     5bc:	7f 41 41 22 1c 00 7f 49 49 49 41 00 7f 09 09 01     .AA"...IIIA.....
     5cc:	01 00 3e 41 41 51 32 00 7f 08 08 08 7f 00 00 41     ..>AAQ2........A
     5dc:	7f 41 00 00 20 40 41 3f 01 00 7f 08 14 22 41 00     .A.. @A?....."A.
     5ec:	7f 40 40 40 40 00 7f 02 04 02 7f 00 7f 04 08 10     .@@@@...........
     5fc:	7f 00 3e 41 41 41 3e 00 7f 09 09 09 06 00 3e 41     ..>AAA>.......>A
     60c:	51 21 5e 00 7f 09 19 29 46 00 46 49 49 49 31 00     Q!^....)F.FIII1.
     61c:	01 01 7f 01 01 00 3f 40 40 40 3f 00 1f 20 40 20     ......?@@@?.. @ 
     62c:	1f 00 7f 20 18 20 7f 00 63 14 08 14 63 00 03 04     ... . ..c...c...
     63c:	78 04 03 00 61 51 49 45 43 00 00 00 7f 41 41 00     x...aQIEC....AA.
     64c:	02 04 08 10 20 00 41 41 7f 00 00 00 04 02 01 02     .... .AA........
     65c:	04 00 40 40 40 40 40 00 00 01 02 04 00 00 20 54     ..@@@@@....... T
     66c:	54 54 78 00 7f 48 44 44 38 00 38 44 44 44 20 00     TTx..HDD8.8DDD .
     67c:	38 44 44 48 7f 00 38 54 54 54 18 00 08 7e 09 01     8DDH..8TTT...~..
     68c:	02 00 08 14 54 54 3c 00 7f 08 04 04 78 00 00 44     ....TT<.....x..D
     69c:	7d 40 00 00 20 40 44 3d 00 00 00 7f 10 28 44 00     }@.. @D=.....(D.
     6ac:	00 41 7f 40 00 00 7c 04 18 04 78 00 7c 08 04 04     .A.@..|...x.|...
     6bc:	78 00 38 44 44 44 38 00 7c 14 14 14 08 00 08 14     x.8DDD8.|.......
     6cc:	14 18 7c 00 7c 08 04 04 08 00 48 54 54 54 20 00     ..|.|.....HTTT .
     6dc:	04 3f 44 40 20 00 3c 40 40 20 7c 00 1c 20 40 20     .?D@ .<@@ |.. @ 
     6ec:	1c 00 3c 40 30 40 3c 00 44 28 10 28 44 00 0c 50     ..<@0@<.D(.(D..P
     6fc:	50 50 3c 00 44 64 54 4c 44 00 00 08 36 41 00 00     PP<.DdTLD...6A..
     70c:	00 00 7f 00 00 00 00 41 36 08 00 00 02 01 03 02     .......A6.......
     71c:	01 00                                               ..

0000071e <font8>:
	...
     726:	00 06 5f 5f 06 00 00 00 00 07 07 00 07 07 00 00     ..__............
     736:	14 7f 7f 14 7f 7f 14 00 24 2e 6b 6b 3a 12 00 00     ........$.kk:...
     746:	46 66 30 18 0c 66 62 00 30 7a 4f 5d 37 7a 48 00     Ff0..fb.0zO]7zH.
     756:	04 07 03 00 00 00 00 00 00 1c 3e 63 41 00 00 00     ..........>cA...
     766:	00 41 63 3e 1c 00 00 00 08 2a 3e 1c 1c 3e 2a 08     .Ac>.....*>..>*.
     776:	08 08 3e 3e 08 08 00 00 00 a0 e0 60 00 00 00 00     ..>>.......`....
     786:	08 08 08 08 08 08 00 00 00 00 60 60 00 00 00 00     ..........``....
     796:	60 30 18 0c 06 03 01 00 3e 7f 59 4d 7f 3e 00 00     `0......>.YM.>..
     7a6:	42 42 7f 7f 40 40 00 00 62 73 59 49 6f 66 00 00     BB..@@..bsYIof..
     7b6:	22 63 49 49 7f 36 00 00 18 1c 16 13 7f 7f 10 00     "cII.6..........
     7c6:	27 67 45 45 7d 39 00 00 3c 7e 4b 49 79 30 00 00     'gEE}9..<~KIy0..
     7d6:	03 63 71 19 0f 07 00 00 36 7f 49 49 7f 36 00 00     .cq.....6.II.6..
     7e6:	06 4f 49 69 3f 1e 00 00 00 00 6c 6c 00 00 00 00     .OIi?.....ll....
     7f6:	00 a0 ec 6c 00 00 00 00 18 24 42 99 24 42 81 00     ...l.....$B.$B..
     806:	14 14 14 14 14 14 00 00 81 42 24 99 42 24 18 00     .........B$.B$..
     816:	02 03 51 59 0f 06 00 00 3e 7f 41 5d 5d 1f 1e 00     ..QY....>.A]]...
     826:	7c 7e 13 13 7e 7c 00 00 41 7f 7f 49 49 7f 36 00     |~..~|..A..II.6.
     836:	1c 3e 63 41 41 63 22 00 41 7f 7f 41 63 7f 1c 00     .>cAAc".A..Ac...
     846:	41 7f 7f 49 5d 41 63 00 41 7f 7f 49 1d 01 03 00     A..I]Ac.A..I....
     856:	1c 3e 63 41 51 73 72 00 7f 7f 08 08 7f 7f 00 00     .>cAQsr.........
     866:	00 41 7f 7f 41 00 00 00 30 70 40 41 7f 3f 01 00     .A..A...0p@A.?..
     876:	41 7f 7f 08 1c 77 63 00 41 7f 7f 41 40 60 70 00     A....wc.A..A@`p.
     886:	7f 7f 06 0c 06 7f 7f 00 7f 7f 06 0c 18 7f 7f 00     ................
     896:	1c 3e 63 41 63 3e 1c 00 41 7f 7f 49 09 0f 06 00     .>cAc>..A..I....
     8a6:	1e 3f 21 71 7f 5e 00 00 41 7f 7f 19 39 6f 46 00     .?!q.^..A...9oF.
     8b6:	26 67 4d 59 7b 32 00 00 03 41 7f 7f 41 03 00 00     &gMY{2...A..A...
     8c6:	7f 7f 40 40 7f 7f 00 00 1f 3f 60 60 3f 1f 00 00     ..@@.....?``?...
     8d6:	7f 7f 30 18 30 7f 7f 00 63 77 1c 08 1c 77 63 00     ..0.0...cw...wc.
     8e6:	07 4f 78 78 4f 07 00 00 67 73 59 4d 47 63 71 00     .OxxO...gsYMGcq.
     8f6:	00 7f 7f 41 41 00 00 00 01 03 06 0c 18 30 60 00     ...AA........0`.
     906:	00 41 41 7f 7f 00 00 00 08 0c 06 03 06 0c 08 00     .AA.............
     916:	80 80 80 80 80 80 80 80 00 00 03 07 04 00 00 00     ................
     926:	20 74 54 54 3c 78 40 00 41 3f 7f 44 44 7c 38 00      tTT<x@.A?.DD|8.
     936:	38 7c 44 44 6c 28 00 00 30 78 48 49 3f 7f 40 00     8|DDl(..0xHI?.@.
     946:	38 7c 54 54 5c 18 00 00 48 7e 7f 49 03 02 00 00     8|TT\...H~.I....
     956:	98 bc a4 a4 f8 7c 04 00 41 7f 7f 08 04 7c 78 00     .....|..A....|x.
     966:	00 44 7d 7d 40 00 00 00 40 c4 84 fd 7d 00 00 00     .D}}@...@...}...
     976:	41 7f 7f 10 38 6c 44 00 00 41 7f 7f 40 00 00 00     A...8lD..A..@...
     986:	7c 7c 0c 18 0c 7c 78 00 7c 7c 04 04 7c 78 00 00     ||...|x.||..|x..
     996:	38 7c 44 44 7c 38 00 00 84 fc f8 a4 24 3c 18 00     8|DD|8......$<..
     9a6:	18 3c 24 a4 f8 fc 84 00 44 7c 78 44 1c 18 00 00     .<$.....D|xD....
     9b6:	48 5c 54 54 74 24 00 00 00 04 3e 7f 44 24 00 00     H\TTt$....>.D$..
     9c6:	3c 7c 40 40 3c 7c 40 00 1c 3c 60 60 3c 1c 00 00     <|@@<|@..<``<...
     9d6:	3c 7c 60 30 60 7c 3c 00 44 6c 38 10 38 6c 44 00     <|`0`|<.Dl8.8lD.
     9e6:	9c bc a0 a0 fc 7c 00 00 4c 64 74 5c 4c 64 00 00     .....|..Ldt\Ld..
     9f6:	08 08 3e 77 41 41 00 00 00 00 00 77 77 00 00 00     ..>wAA.....ww...
     a06:	41 41 77 3e 08 08 00 00 02 03 01 03 02 03 01 00     AAw>............

00000a16 <table>:
     a16:	3c 0c 3b 0c 33 0c 2b 0c 20 0c 16 0c 0c 0c 0b 0c     <.;.3.+. .......
     a26:	0a 0c 09 0c ff 0b f5 0b e8 0b dc 0b d0 0b cf 0b     ................
     a36:	ce 0b c3 0b b7 0b b6 0b aa 0b 9a 0b 99 0b 98 0b     ................
     a46:	97 0b 90 0b 8b 0b 8a 0b 89 0b 88 0b 87 0b 86 0b     ................
     a56:	7b 0b 7a 0b 71 0b 6a 0b 69 0b 68 0b 67 0b 66 0b     {.z.q.j.i.h.g.f.
     a66:	65 0b 64 0b 59 0b 50 0b 4f 0b 4e 0b 4d 0b 4c 0b     e.d.Y.P.O.N.M.L.
     a76:	4b 0b 4a 0b 41 0b 3a 0b 39 0b 38 0b 37 0b 36 0b     K.J.A.:.9.8.7.6.
     a86:	35 0b 34 0b 2d 0b 26 0b 25 0b 24 0b 23 0b 22 0b     5.4.-.&.%.$.#.".
     a96:	21 0b 20 0b 14 0b 13 0b 06 0b f7 0a f6 0a f5 0a     !. .............
     aa6:	eb 0a ea 0a e9 0a e8 0a e7 0a e6 0a e5 0a e4 0a     ................
     ab6:	e3 0a d9 0a d8 0a ca 0a c9 0a c8 0a c7 0a c6 0a     ................

00000ac6 <gameover_8>:
	...

00000ac7 <gameover_7>:
	...

00000ac8 <gameover_6>:
	...

00000ac9 <gameover_5>:
	...

00000aca <gameover_4>:
     aca:	53 45 43 4f 4e 44 53 20 55 53 45 44 3a 00           SECONDS USED:.

00000ad8 <gameover_3>:
	...

00000ad9 <gameover_2>:
     ad9:	47 41 4d 45 20 4f 56 45 52 00                       GAME OVER.

00000ae3 <gameover_1>:
	...

00000ae4 <animation_8>:
	...

00000ae5 <animation_7>:
	...

00000ae6 <animation_6>:
	...

00000ae7 <animation_5>:
	...

00000ae8 <animation_4>:
	...

00000ae9 <animation_3>:
	...

00000aea <animation_2>:
	...

00000aeb <animation_1>:
     aeb:	41 4e 49 4d 41 54 49 4f 4e 00                       ANIMATION.

00000af5 <calibrate_8>:
	...

00000af6 <calibrate_7>:
	...

00000af7 <calibrate_6>:
     af7:	54 48 45 20 43 4f 4e 54 52 4f 4c 4c 45 52 00        THE CONTROLLER.

00000b06 <calibrate_5>:
     b06:	44 4f 20 4e 4f 54 20 54 4f 55 43 48 00              DO NOT TOUCH.

00000b13 <calibrate_4>:
	...

00000b14 <calibrate_3>:
     b14:	43 41 4c 49 42 52 41 54 49 4e 47 00                 CALIBRATING.

00000b20 <calibrate_2>:
	...

00000b21 <calibrate_1>:
	...

00000b22 <slider_8>:
	...

00000b23 <slider_7>:
	...

00000b24 <slider_6>:
	...

00000b25 <slider_5>:
	...

00000b26 <slider_4>:
     b26:	43 48 4f 53 45 4e 00                                CHOSEN.

00000b2d <slider_3>:
     b2d:	53 4c 49 44 45 52 00                                SLIDER.

00000b34 <slider_2>:
	...

00000b35 <slider_1>:
	...

00000b36 <joystick_8>:
	...

00000b37 <joystick_7>:
	...

00000b38 <joystick_6>:
	...

00000b39 <joystick_5>:
	...

00000b3a <joystick_4>:
     b3a:	43 48 4f 53 45 4e 00                                CHOSEN.

00000b41 <joystick_3>:
     b41:	4a 4f 59 53 54 49 43 4b 00                          JOYSTICK.

00000b4a <joystick_2>:
	...

00000b4b <joystick_1>:
	...

00000b4c <controllerP_8>:
	...

00000b4d <controllerP_7>:
	...

00000b4e <controllerP_6>:
	...

00000b4f <controllerP_5>:
	...

00000b50 <controllerP_4>:
     b50:	3e 53 4c 49 44 45 52 3c 00                          >SLIDER<.

00000b59 <controllerP_3>:
     b59:	3e 4a 4f 59 53 54 49 43 4b 3c 00                    >JOYSTICK<.

00000b64 <controllerP_2>:
	...

00000b65 <controllerP_1>:
	...

00000b66 <controller_8>:
	...

00000b67 <controller_7>:
	...

00000b68 <controller_6>:
	...

00000b69 <controller_5>:
	...

00000b6a <controller_4>:
     b6a:	53 4c 49 44 45 52 00                                SLIDER.

00000b71 <controller_3>:
     b71:	4a 4f 59 53 54 49 43 4b 00                          JOYSTICK.

00000b7a <controller_2>:
	...

00000b7b <controller_1>:
     b7b:	43 4f 4e 54 52 4f 4c 4c 45 52 00                    CONTROLLER.

00000b86 <p2_8>:
	...

00000b87 <p2_7>:
	...

00000b88 <p2_6>:
	...

00000b89 <p2_5>:
	...

00000b8a <p2_4>:
	...

00000b8b <p2_3>:
     b8b:	53 4f 4f 4e 00                                      SOON.

00000b90 <p2_2>:
     b90:	43 4f 4d 49 4e 47 00                                COMING.

00000b97 <p2_1>:
	...

00000b98 <p1_8>:
	...

00000b99 <p1_7>:
	...

00000b9a <p1_6>:
     b9a:	42 55 54 54 4f 4e 20 54 4f 20 53 54 41 52 54 00     BUTTON TO START.

00000baa <p1_5>:
     baa:	50 52 45 53 53 20 52 49 47 48 54 00                 PRESS RIGHT.

00000bb6 <p1_4>:
	...

00000bb7 <p1_3>:
     bb7:	4f 4e 20 53 4f 4c 45 4e 4f 49 44 00                 ON SOLENOID.

00000bc3 <p1_2>:
     bc3:	50 4c 41 43 45 20 42 41 4c 4c 00                    PLACE BALL.

00000bce <p1_1>:
	...

00000bcf <mainP_8>:
	...

00000bd0 <mainP_7>:
     bd0:	3e 41 4e 49 4d 41 54 49 4f 4e 3c 00                 >ANIMATION<.

00000bdc <mainP_6>:
     bdc:	3e 43 41 4c 49 42 52 41 54 45 3c 00                 >CALIBRATE<.

00000be8 <mainP_5>:
     be8:	3e 43 4f 4e 54 52 4f 4c 4c 45 52 3c 00              >CONTROLLER<.

00000bf5 <mainP_4>:
     bf5:	3e 32 50 4c 41 59 45 52 3c 00                       >2PLAYER<.

00000bff <mainP_3>:
     bff:	3e 31 50 4c 41 59 45 52 3c 00                       >1PLAYER<.

00000c09 <mainP_2>:
	...

00000c0a <mainP_1>:
	...

00000c0b <main_8>:
	...

00000c0c <main_7>:
     c0c:	41 4e 49 4d 41 54 49 4f 4e 00                       ANIMATION.

00000c16 <main_6>:
     c16:	43 41 4c 49 42 52 41 54 45 00                       CALIBRATE.

00000c20 <main_5>:
     c20:	43 4f 4e 54 52 4f 4c 4c 45 52 00                    CONTROLLER.

00000c2b <main_4>:
     c2b:	32 50 4c 41 59 45 52 00                             2PLAYER.

00000c33 <main_3>:
     c33:	31 50 4c 41 59 45 52 00                             1PLAYER.

00000c3b <main_2>:
	...

00000c3c <main_1>:
     c3c:	50 49 4e 47 50 4f 4e 47 00 00                       PINGPONG..

00000c46 <__ctors_end>:
     c46:	11 24       	eor	r1, r1
     c48:	1f be       	out	0x3f, r1	; 63
     c4a:	cf ef       	ldi	r28, 0xFF	; 255
     c4c:	d4 e0       	ldi	r29, 0x04	; 4
     c4e:	de bf       	out	0x3e, r29	; 62
     c50:	cd bf       	out	0x3d, r28	; 61

00000c52 <__do_copy_data>:
     c52:	11 e0       	ldi	r17, 0x01	; 1
     c54:	a0 e0       	ldi	r26, 0x00	; 0
     c56:	b1 e0       	ldi	r27, 0x01	; 1
     c58:	ee e2       	ldi	r30, 0x2E	; 46
     c5a:	fe e2       	ldi	r31, 0x2E	; 46
     c5c:	02 c0       	rjmp	.+4      	; 0xc62 <__do_copy_data+0x10>
     c5e:	05 90       	lpm	r0, Z+
     c60:	0d 92       	st	X+, r0
     c62:	a6 3b       	cpi	r26, 0xB6	; 182
     c64:	b1 07       	cpc	r27, r17
     c66:	d9 f7       	brne	.-10     	; 0xc5e <__do_copy_data+0xc>

00000c68 <__do_clear_bss>:
     c68:	21 e0       	ldi	r18, 0x01	; 1
     c6a:	a6 eb       	ldi	r26, 0xB6	; 182
     c6c:	b1 e0       	ldi	r27, 0x01	; 1
     c6e:	01 c0       	rjmp	.+2      	; 0xc72 <.do_clear_bss_start>

00000c70 <.do_clear_bss_loop>:
     c70:	1d 92       	st	X+, r1

00000c72 <.do_clear_bss_start>:
     c72:	a4 3d       	cpi	r26, 0xD4	; 212
     c74:	b2 07       	cpc	r27, r18
     c76:	e1 f7       	brne	.-8      	; 0xc70 <.do_clear_bss_loop>
     c78:	0e 94 44 11 	call	0x2288	; 0x2288 <main>
     c7c:	0c 94 15 17 	jmp	0x2e2a	; 0x2e2a <_exit>

00000c80 <__bad_interrupt>:
     c80:	0c 94 00 00 	jmp	0	; 0x0 <__vectors>

00000c84 <clock_init>:
     c84:	8c 9a       	sbi	0x11, 4	; 17
     c86:	f8 94       	cli
     c88:	eb e8       	ldi	r30, 0x8B	; 139
     c8a:	f0 e0       	ldi	r31, 0x00	; 0
     c8c:	80 81       	ld	r24, Z
     c8e:	80 64       	ori	r24, 0x40	; 64
     c90:	80 83       	st	Z, r24
     c92:	ea e8       	ldi	r30, 0x8A	; 138
     c94:	f0 e0       	ldi	r31, 0x00	; 0
     c96:	80 81       	ld	r24, Z
     c98:	81 60       	ori	r24, 0x01	; 1
     c9a:	80 83       	st	Z, r24
     c9c:	80 81       	ld	r24, Z
     c9e:	88 60       	ori	r24, 0x08	; 8
     ca0:	80 83       	st	Z, r24
     ca2:	81 e0       	ldi	r24, 0x01	; 1
     ca4:	90 e0       	ldi	r25, 0x00	; 0
     ca6:	90 93 87 00 	sts	0x0087, r25	; 0x800087 <__TEXT_REGION_LENGTH__+0x7e0087>
     caa:	80 93 86 00 	sts	0x0086, r24	; 0x800086 <__TEXT_REGION_LENGTH__+0x7e0086>
     cae:	78 94       	sei
     cb0:	08 95       	ret

00000cb2 <adc_init>:
     cb2:	0e 94 42 06 	call	0xc84	; 0xc84 <clock_init>
     cb6:	08 95       	ret

00000cb8 <adc_read>:
     cb8:	cf 93       	push	r28
     cba:	c8 2f       	mov	r28, r24
     cbc:	0e 94 ce 10 	call	0x219c	; 0x219c <xmem_init>
     cc0:	60 e0       	ldi	r22, 0x00	; 0
     cc2:	74 e0       	ldi	r23, 0x04	; 4
     cc4:	8c 2f       	mov	r24, r28
     cc6:	80 68       	ori	r24, 0x80	; 128
     cc8:	0e 94 d5 10 	call	0x21aa	; 0x21aa <xmem_write>
	#else
		//round up by default
		__ticks_dc = (uint32_t)(ceil(fabs(__tmp)));
	#endif

	__builtin_avr_delay_cycles(__ticks_dc);
     ccc:	80 e1       	ldi	r24, 0x10	; 16
     cce:	8a 95       	dec	r24
     cd0:	f1 f7       	brne	.-4      	; 0xcce <adc_read+0x16>
     cd2:	00 c0       	rjmp	.+0      	; 0xcd4 <adc_read+0x1c>
     cd4:	80 e0       	ldi	r24, 0x00	; 0
     cd6:	94 e0       	ldi	r25, 0x04	; 4
     cd8:	0e 94 d9 10 	call	0x21b2	; 0x21b2 <xmem_read>
     cdc:	90 e1       	ldi	r25, 0x10	; 16
     cde:	9a 95       	dec	r25
     ce0:	f1 f7       	brne	.-4      	; 0xcde <adc_read+0x26>
     ce2:	00 c0       	rjmp	.+0      	; 0xce4 <adc_read+0x2c>
     ce4:	90 e0       	ldi	r25, 0x00	; 0
     ce6:	cf 91       	pop	r28
     ce8:	08 95       	ret

00000cea <can_init>:
     cea:	0e 94 26 11 	call	0x224c	; 0x224c <mcp_init>
     cee:	61 e0       	ldi	r22, 0x01	; 1
     cf0:	88 e2       	ldi	r24, 0x28	; 40
     cf2:	0e 94 eb 10 	call	0x21d6	; 0x21d6 <mcp_write>
     cf6:	65 eb       	ldi	r22, 0xB5	; 181
     cf8:	89 e2       	ldi	r24, 0x29	; 41
     cfa:	0e 94 eb 10 	call	0x21d6	; 0x21d6 <mcp_write>
     cfe:	63 e4       	ldi	r22, 0x43	; 67
     d00:	8a e2       	ldi	r24, 0x2A	; 42
     d02:	0e 94 eb 10 	call	0x21d6	; 0x21d6 <mcp_write>
     d06:	60 e0       	ldi	r22, 0x00	; 0
     d08:	8f e0       	ldi	r24, 0x0F	; 15
     d0a:	0e 94 eb 10 	call	0x21d6	; 0x21d6 <mcp_write>
     d0e:	f8 94       	cli
     d10:	85 b7       	in	r24, 0x35	; 53
     d12:	82 60       	ori	r24, 0x02	; 2
     d14:	85 bf       	out	0x35, r24	; 53
     d16:	85 b7       	in	r24, 0x35	; 53
     d18:	8e 7f       	andi	r24, 0xFE	; 254
     d1a:	85 bf       	out	0x35, r24	; 53
     d1c:	8b b7       	in	r24, 0x3b	; 59
     d1e:	80 64       	ori	r24, 0x40	; 64
     d20:	8b bf       	out	0x3b, r24	; 59
     d22:	78 94       	sei
     d24:	61 e0       	ldi	r22, 0x01	; 1
     d26:	8b e2       	ldi	r24, 0x2B	; 43
     d28:	0e 94 eb 10 	call	0x21d6	; 0x21d6 <mcp_write>
     d2c:	08 95       	ret

00000d2e <can_send_message>:
     d2e:	ff 92       	push	r15
     d30:	0f 93       	push	r16
     d32:	1f 93       	push	r17
     d34:	cf 93       	push	r28
     d36:	df 93       	push	r29
     d38:	ec 01       	movw	r28, r24
     d3a:	08 81       	ld	r16, Y
     d3c:	19 81       	ldd	r17, Y+1	; 0x01
     d3e:	b8 01       	movw	r22, r16
     d40:	76 95       	lsr	r23
     d42:	67 95       	ror	r22
     d44:	76 95       	lsr	r23
     d46:	67 95       	ror	r22
     d48:	76 95       	lsr	r23
     d4a:	67 95       	ror	r22
     d4c:	81 e3       	ldi	r24, 0x31	; 49
     d4e:	0e 94 eb 10 	call	0x21d6	; 0x21d6 <mcp_write>
     d52:	60 2f       	mov	r22, r16
     d54:	62 95       	swap	r22
     d56:	66 0f       	add	r22, r22
     d58:	60 7e       	andi	r22, 0xE0	; 224
     d5a:	82 e3       	ldi	r24, 0x32	; 50
     d5c:	0e 94 eb 10 	call	0x21d6	; 0x21d6 <mcp_write>
     d60:	fa 80       	ldd	r15, Y+2	; 0x02
     d62:	6f 2d       	mov	r22, r15
     d64:	6f 70       	andi	r22, 0x0F	; 15
     d66:	85 e3       	ldi	r24, 0x35	; 53
     d68:	0e 94 eb 10 	call	0x21d6	; 0x21d6 <mcp_write>
     d6c:	ff 20       	and	r15, r15
     d6e:	79 f0       	breq	.+30     	; 0xd8e <can_send_message+0x60>
     d70:	8e 01       	movw	r16, r28
     d72:	0d 5f       	subi	r16, 0xFD	; 253
     d74:	1f 4f       	sbci	r17, 0xFF	; 255
     d76:	d6 e3       	ldi	r29, 0x36	; 54
     d78:	df 0d       	add	r29, r15
     d7a:	c6 e3       	ldi	r28, 0x36	; 54
     d7c:	f8 01       	movw	r30, r16
     d7e:	61 91       	ld	r22, Z+
     d80:	8f 01       	movw	r16, r30
     d82:	8c 2f       	mov	r24, r28
     d84:	0e 94 eb 10 	call	0x21d6	; 0x21d6 <mcp_write>
     d88:	cf 5f       	subi	r28, 0xFF	; 255
     d8a:	cd 13       	cpse	r28, r29
     d8c:	f7 cf       	rjmp	.-18     	; 0xd7c <can_send_message+0x4e>
     d8e:	81 e8       	ldi	r24, 0x81	; 129
     d90:	0e 94 fd 10 	call	0x21fa	; 0x21fa <mcp_req_to_send>
     d94:	df 91       	pop	r29
     d96:	cf 91       	pop	r28
     d98:	1f 91       	pop	r17
     d9a:	0f 91       	pop	r16
     d9c:	ff 90       	pop	r15
     d9e:	08 95       	ret

00000da0 <__vector_1>:
     da0:	1f 92       	push	r1
     da2:	0f 92       	push	r0
     da4:	0f b6       	in	r0, 0x3f	; 63
     da6:	0f 92       	push	r0
     da8:	11 24       	eor	r1, r1
     daa:	8f 93       	push	r24
     dac:	81 e0       	ldi	r24, 0x01	; 1
     dae:	80 93 b6 01 	sts	0x01B6, r24	; 0x8001b6 <__data_end>
     db2:	8f 91       	pop	r24
     db4:	0f 90       	pop	r0
     db6:	0f be       	out	0x3f, r0	; 63
     db8:	0f 90       	pop	r0
     dba:	1f 90       	pop	r1
     dbc:	18 95       	reti

00000dbe <can_clearIfInterrupted>:
     dbe:	80 91 b6 01 	lds	r24, 0x01B6	; 0x8001b6 <__data_end>
     dc2:	81 30       	cpi	r24, 0x01	; 1
     dc4:	51 f4       	brne	.+20     	; 0xdda <can_clearIfInterrupted+0x1c>
     dc6:	10 92 b6 01 	sts	0x01B6, r1	; 0x8001b6 <__data_end>
     dca:	40 e0       	ldi	r20, 0x00	; 0
     dcc:	61 e0       	ldi	r22, 0x01	; 1
     dce:	8c e2       	ldi	r24, 0x2C	; 44
     dd0:	0e 94 02 11 	call	0x2204	; 0x2204 <mcp_bit_modify>
     dd4:	81 e0       	ldi	r24, 0x01	; 1
     dd6:	90 e0       	ldi	r25, 0x00	; 0
     dd8:	08 95       	ret
     dda:	80 e0       	ldi	r24, 0x00	; 0
     ddc:	90 e0       	ldi	r25, 0x00	; 0
     dde:	08 95       	ret

00000de0 <joystick_calibrate>:
     de0:	cf 92       	push	r12
     de2:	df 92       	push	r13
     de4:	ef 92       	push	r14
     de6:	ff 92       	push	r15
     de8:	0f 93       	push	r16
     dea:	1f 93       	push	r17
     dec:	cf 93       	push	r28
     dee:	df 93       	push	r29
     df0:	cd b7       	in	r28, 0x3d	; 61
     df2:	de b7       	in	r29, 0x3e	; 62
     df4:	c0 59       	subi	r28, 0x90	; 144
     df6:	d1 40       	sbci	r29, 0x01	; 1
     df8:	0f b6       	in	r0, 0x3f	; 63
     dfa:	f8 94       	cli
     dfc:	de bf       	out	0x3e, r29	; 62
     dfe:	0f be       	out	0x3f, r0	; 63
     e00:	cd bf       	out	0x3d, r28	; 61
     e02:	8e 01       	movw	r16, r28
     e04:	07 53       	subi	r16, 0x37	; 55
     e06:	1f 4f       	sbci	r17, 0xFF	; 255
     e08:	ce 01       	movw	r24, r28
     e0a:	01 96       	adiw	r24, 0x01	; 1
     e0c:	7c 01       	movw	r14, r24
     e0e:	6e 01       	movw	r12, r28
     e10:	9f e6       	ldi	r25, 0x6F	; 111
     e12:	c9 1a       	sub	r12, r25
     e14:	9e ef       	ldi	r25, 0xFE	; 254
     e16:	d9 0a       	sbc	r13, r25
     e18:	81 e0       	ldi	r24, 0x01	; 1
     e1a:	90 e0       	ldi	r25, 0x00	; 0
     e1c:	0e 94 5c 06 	call	0xcb8	; 0xcb8 <adc_read>
     e20:	f8 01       	movw	r30, r16
     e22:	81 93       	st	Z+, r24
     e24:	91 93       	st	Z+, r25
     e26:	8f 01       	movw	r16, r30
     e28:	80 e0       	ldi	r24, 0x00	; 0
     e2a:	90 e0       	ldi	r25, 0x00	; 0
     e2c:	0e 94 5c 06 	call	0xcb8	; 0xcb8 <adc_read>
     e30:	f7 01       	movw	r30, r14
     e32:	81 93       	st	Z+, r24
     e34:	91 93       	st	Z+, r25
     e36:	7f 01       	movw	r14, r30
     e38:	0c 15       	cp	r16, r12
     e3a:	1d 05       	cpc	r17, r13
     e3c:	69 f7       	brne	.-38     	; 0xe18 <joystick_calibrate+0x38>
     e3e:	64 e6       	ldi	r22, 0x64	; 100
     e40:	70 e0       	ldi	r23, 0x00	; 0
     e42:	ce 01       	movw	r24, r28
     e44:	87 53       	subi	r24, 0x37	; 55
     e46:	9f 4f       	sbci	r25, 0xFF	; 255
     e48:	0e 94 87 11 	call	0x230e	; 0x230e <util_median>
     e4c:	80 93 c3 01 	sts	0x01C3, r24	; 0x8001c3 <x_offset>
     e50:	64 e6       	ldi	r22, 0x64	; 100
     e52:	70 e0       	ldi	r23, 0x00	; 0
     e54:	ce 01       	movw	r24, r28
     e56:	01 96       	adiw	r24, 0x01	; 1
     e58:	0e 94 87 11 	call	0x230e	; 0x230e <util_median>
     e5c:	80 93 c2 01 	sts	0x01C2, r24	; 0x8001c2 <y_offset>
     e60:	c0 57       	subi	r28, 0x70	; 112
     e62:	de 4f       	sbci	r29, 0xFE	; 254
     e64:	0f b6       	in	r0, 0x3f	; 63
     e66:	f8 94       	cli
     e68:	de bf       	out	0x3e, r29	; 62
     e6a:	0f be       	out	0x3f, r0	; 63
     e6c:	cd bf       	out	0x3d, r28	; 61
     e6e:	df 91       	pop	r29
     e70:	cf 91       	pop	r28
     e72:	1f 91       	pop	r17
     e74:	0f 91       	pop	r16
     e76:	ff 90       	pop	r15
     e78:	ef 90       	pop	r14
     e7a:	df 90       	pop	r13
     e7c:	cf 90       	pop	r12
     e7e:	08 95       	ret

00000e80 <joystick_getPosition>:
     e80:	1f 93       	push	r17
     e82:	cf 93       	push	r28
     e84:	df 93       	push	r29
     e86:	81 e0       	ldi	r24, 0x01	; 1
     e88:	90 e0       	ldi	r25, 0x00	; 0
     e8a:	0e 94 5c 06 	call	0xcb8	; 0xcb8 <adc_read>
     e8e:	ec 01       	movw	r28, r24
     e90:	80 e0       	ldi	r24, 0x00	; 0
     e92:	90 e0       	ldi	r25, 0x00	; 0
     e94:	0e 94 5c 06 	call	0xcb8	; 0xcb8 <adc_read>
     e98:	9c 01       	movw	r18, r24
     e9a:	48 2f       	mov	r20, r24
     e9c:	80 91 c3 01 	lds	r24, 0x01C3	; 0x8001c3 <x_offset>
     ea0:	8c 17       	cp	r24, r28
     ea2:	a8 f4       	brcc	.+42     	; 0xece <joystick_getPosition+0x4e>
     ea4:	80 91 c3 01 	lds	r24, 0x01C3	; 0x8001c3 <x_offset>
     ea8:	50 91 c3 01 	lds	r21, 0x01C3	; 0x8001c3 <x_offset>
     eac:	dd 27       	eor	r29, r29
     eae:	c8 1b       	sub	r28, r24
     eb0:	d1 09       	sbc	r29, r1
     eb2:	64 e6       	ldi	r22, 0x64	; 100
     eb4:	6c 9f       	mul	r22, r28
     eb6:	c0 01       	movw	r24, r0
     eb8:	6d 9f       	mul	r22, r29
     eba:	90 0d       	add	r25, r0
     ebc:	11 24       	eor	r1, r1
     ebe:	6f ef       	ldi	r22, 0xFF	; 255
     ec0:	70 e0       	ldi	r23, 0x00	; 0
     ec2:	65 1b       	sub	r22, r21
     ec4:	71 09       	sbc	r23, r1
     ec6:	0e 94 9f 11 	call	0x233e	; 0x233e <__divmodhi4>
     eca:	fb 01       	movw	r30, r22
     ecc:	18 c0       	rjmp	.+48     	; 0xefe <joystick_getPosition+0x7e>
     ece:	80 91 c3 01 	lds	r24, 0x01C3	; 0x8001c3 <x_offset>
     ed2:	c8 17       	cp	r28, r24
     ed4:	90 f4       	brcc	.+36     	; 0xefa <joystick_getPosition+0x7a>
     ed6:	80 91 c3 01 	lds	r24, 0x01C3	; 0x8001c3 <x_offset>
     eda:	60 91 c3 01 	lds	r22, 0x01C3	; 0x8001c3 <x_offset>
     ede:	dd 27       	eor	r29, r29
     ee0:	c8 1b       	sub	r28, r24
     ee2:	d1 09       	sbc	r29, r1
     ee4:	54 e6       	ldi	r21, 0x64	; 100
     ee6:	5c 9f       	mul	r21, r28
     ee8:	c0 01       	movw	r24, r0
     eea:	5d 9f       	mul	r21, r29
     eec:	90 0d       	add	r25, r0
     eee:	11 24       	eor	r1, r1
     ef0:	70 e0       	ldi	r23, 0x00	; 0
     ef2:	0e 94 9f 11 	call	0x233e	; 0x233e <__divmodhi4>
     ef6:	fb 01       	movw	r30, r22
     ef8:	02 c0       	rjmp	.+4      	; 0xefe <joystick_getPosition+0x7e>
     efa:	e0 e0       	ldi	r30, 0x00	; 0
     efc:	f0 e0       	ldi	r31, 0x00	; 0
     efe:	80 91 c2 01 	lds	r24, 0x01C2	; 0x8001c2 <y_offset>
     f02:	84 17       	cp	r24, r20
     f04:	a8 f4       	brcc	.+42     	; 0xf30 <joystick_getPosition+0xb0>
     f06:	80 91 c2 01 	lds	r24, 0x01C2	; 0x8001c2 <y_offset>
     f0a:	40 91 c2 01 	lds	r20, 0x01C2	; 0x8001c2 <y_offset>
     f0e:	33 27       	eor	r19, r19
     f10:	28 1b       	sub	r18, r24
     f12:	31 09       	sbc	r19, r1
     f14:	54 e6       	ldi	r21, 0x64	; 100
     f16:	52 9f       	mul	r21, r18
     f18:	c0 01       	movw	r24, r0
     f1a:	53 9f       	mul	r21, r19
     f1c:	90 0d       	add	r25, r0
     f1e:	11 24       	eor	r1, r1
     f20:	6f ef       	ldi	r22, 0xFF	; 255
     f22:	70 e0       	ldi	r23, 0x00	; 0
     f24:	64 1b       	sub	r22, r20
     f26:	71 09       	sbc	r23, r1
     f28:	0e 94 9f 11 	call	0x233e	; 0x233e <__divmodhi4>
     f2c:	9b 01       	movw	r18, r22
     f2e:	18 c0       	rjmp	.+48     	; 0xf60 <joystick_getPosition+0xe0>
     f30:	80 91 c2 01 	lds	r24, 0x01C2	; 0x8001c2 <y_offset>
     f34:	48 17       	cp	r20, r24
     f36:	90 f4       	brcc	.+36     	; 0xf5c <joystick_getPosition+0xdc>
     f38:	80 91 c2 01 	lds	r24, 0x01C2	; 0x8001c2 <y_offset>
     f3c:	60 91 c2 01 	lds	r22, 0x01C2	; 0x8001c2 <y_offset>
     f40:	33 27       	eor	r19, r19
     f42:	28 1b       	sub	r18, r24
     f44:	31 09       	sbc	r19, r1
     f46:	44 e6       	ldi	r20, 0x64	; 100
     f48:	42 9f       	mul	r20, r18
     f4a:	c0 01       	movw	r24, r0
     f4c:	43 9f       	mul	r20, r19
     f4e:	90 0d       	add	r25, r0
     f50:	11 24       	eor	r1, r1
     f52:	70 e0       	ldi	r23, 0x00	; 0
     f54:	0e 94 9f 11 	call	0x233e	; 0x233e <__divmodhi4>
     f58:	9b 01       	movw	r18, r22
     f5a:	02 c0       	rjmp	.+4      	; 0xf60 <joystick_getPosition+0xe0>
     f5c:	20 e0       	ldi	r18, 0x00	; 0
     f5e:	30 e0       	ldi	r19, 0x00	; 0
     f60:	bf 01       	movw	r22, r30
     f62:	c9 01       	movw	r24, r18
     f64:	df 91       	pop	r29
     f66:	cf 91       	pop	r28
     f68:	1f 91       	pop	r17
     f6a:	08 95       	ret

00000f6c <joystick_getDirection>:
     f6c:	0e 94 40 07 	call	0xe80	; 0xe80 <joystick_getPosition>
     f70:	6e 3c       	cpi	r22, 0xCE	; 206
     f72:	ef ef       	ldi	r30, 0xFF	; 255
     f74:	7e 07       	cpc	r23, r30
     f76:	84 f0       	brlt	.+32     	; 0xf98 <joystick_getDirection+0x2c>
     f78:	63 33       	cpi	r22, 0x33	; 51
     f7a:	71 05       	cpc	r23, r1
     f7c:	7c f4       	brge	.+30     	; 0xf9c <joystick_getDirection+0x30>
     f7e:	8e 3c       	cpi	r24, 0xCE	; 206
     f80:	2f ef       	ldi	r18, 0xFF	; 255
     f82:	92 07       	cpc	r25, r18
     f84:	6c f0       	brlt	.+26     	; 0xfa0 <joystick_getDirection+0x34>
     f86:	c3 97       	sbiw	r24, 0x33	; 51
     f88:	6c f4       	brge	.+26     	; 0xfa4 <joystick_getDirection+0x38>
     f8a:	6e 5c       	subi	r22, 0xCE	; 206
     f8c:	7f 4f       	sbci	r23, 0xFF	; 255
     f8e:	65 36       	cpi	r22, 0x65	; 101
     f90:	71 05       	cpc	r23, r1
     f92:	50 f0       	brcs	.+20     	; 0xfa8 <joystick_getDirection+0x3c>
     f94:	80 e0       	ldi	r24, 0x00	; 0
     f96:	08 95       	ret
     f98:	80 e0       	ldi	r24, 0x00	; 0
     f9a:	08 95       	ret
     f9c:	81 e0       	ldi	r24, 0x01	; 1
     f9e:	08 95       	ret
     fa0:	82 e0       	ldi	r24, 0x02	; 2
     fa2:	08 95       	ret
     fa4:	83 e0       	ldi	r24, 0x03	; 3
     fa6:	08 95       	ret
     fa8:	84 e0       	ldi	r24, 0x04	; 4
     faa:	08 95       	ret

00000fac <joystick_sendPositionButtonCan>:
     fac:	cf 93       	push	r28
     fae:	df 93       	push	r29
     fb0:	cd b7       	in	r28, 0x3d	; 61
     fb2:	de b7       	in	r29, 0x3e	; 62
     fb4:	2b 97       	sbiw	r28, 0x0b	; 11
     fb6:	0f b6       	in	r0, 0x3f	; 63
     fb8:	f8 94       	cli
     fba:	de bf       	out	0x3e, r29	; 62
     fbc:	0f be       	out	0x3f, r0	; 63
     fbe:	cd bf       	out	0x3d, r28	; 61
     fc0:	21 e0       	ldi	r18, 0x01	; 1
     fc2:	30 e0       	ldi	r19, 0x00	; 0
     fc4:	3a 83       	std	Y+2, r19	; 0x02
     fc6:	29 83       	std	Y+1, r18	; 0x01
     fc8:	93 e0       	ldi	r25, 0x03	; 3
     fca:	9b 83       	std	Y+3, r25	; 0x03
     fcc:	6c 83       	std	Y+4, r22	; 0x04
     fce:	8d 83       	std	Y+5, r24	; 0x05
     fd0:	86 b3       	in	r24, 0x16	; 22
     fd2:	81 70       	andi	r24, 0x01	; 1
     fd4:	8e 83       	std	Y+6, r24	; 0x06
     fd6:	ce 01       	movw	r24, r28
     fd8:	01 96       	adiw	r24, 0x01	; 1
     fda:	0e 94 97 06 	call	0xd2e	; 0xd2e <can_send_message>
     fde:	2b 96       	adiw	r28, 0x0b	; 11
     fe0:	0f b6       	in	r0, 0x3f	; 63
     fe2:	f8 94       	cli
     fe4:	de bf       	out	0x3e, r29	; 62
     fe6:	0f be       	out	0x3f, r0	; 63
     fe8:	cd bf       	out	0x3d, r28	; 61
     fea:	df 91       	pop	r29
     fec:	cf 91       	pop	r28
     fee:	08 95       	ret

00000ff0 <f_controller>:
	pos_child=0;
	(*curr_menu->function)(main_menu->name);
}

void f_controller(){
	oled_reset();
     ff0:	0e 94 98 0b 	call	0x1730	; 0x1730 <oled_reset>
	oled_print_screen_progmem(s_controller);
     ff4:	80 e2       	ldi	r24, 0x20	; 32
     ff6:	90 e0       	ldi	r25, 0x00	; 0
     ff8:	0e 94 a0 0e 	call	0x1d40	; 0x1d40 <oled_print_screen_progmem>
	oled_print_page_progmem(s_controllerP,header_pages);
     ffc:	62 e0       	ldi	r22, 0x02	; 2
     ffe:	70 e0       	ldi	r23, 0x00	; 0
    1000:	88 e2       	ldi	r24, 0x28	; 40
    1002:	90 e0       	ldi	r25, 0x00	; 0
    1004:	0e 94 d6 0e 	call	0x1dac	; 0x1dac <oled_print_page_progmem>
    1008:	08 95       	ret

0000100a <f_2player>:
		pos_child=0;
		(*curr_menu->function)(main_menu->name);
}

void f_2player(){
	oled_reset();
    100a:	0e 94 98 0b 	call	0x1730	; 0x1730 <oled_reset>
	oled_print_screen_progmem(s_p2);
    100e:	88 e1       	ldi	r24, 0x18	; 24
    1010:	90 e0       	ldi	r25, 0x00	; 0
    1012:	0e 94 a0 0e 	call	0x1d40	; 0x1d40 <oled_print_screen_progmem>
	#else
		//round up by default
		__ticks_dc = (uint32_t)(ceil(fabs(__tmp)));
	#endif

	__builtin_avr_delay_cycles(__ticks_dc);
    1016:	2f ef       	ldi	r18, 0xFF	; 255
    1018:	83 ed       	ldi	r24, 0xD3	; 211
    101a:	90 e3       	ldi	r25, 0x30	; 48
    101c:	21 50       	subi	r18, 0x01	; 1
    101e:	80 40       	sbci	r24, 0x00	; 0
    1020:	90 40       	sbci	r25, 0x00	; 0
    1022:	e1 f7       	brne	.-8      	; 0x101c <f_2player+0x12>
    1024:	00 c0       	rjmp	.+0      	; 0x1026 <f_2player+0x1c>
    1026:	00 00       	nop
	
	_delay_ms(1000);
	curr_menu=main_menu;
    1028:	a0 91 c8 01 	lds	r26, 0x01C8	; 0x8001c8 <main_menu>
    102c:	b0 91 c9 01 	lds	r27, 0x01C9	; 0x8001c9 <main_menu+0x1>
    1030:	b0 93 b8 01 	sts	0x01B8, r27	; 0x8001b8 <curr_menu+0x1>
    1034:	a0 93 b7 01 	sts	0x01B7, r26	; 0x8001b7 <curr_menu>
	pos_child=0;
    1038:	10 92 ba 01 	sts	0x01BA, r1	; 0x8001ba <pos_child+0x1>
    103c:	10 92 b9 01 	sts	0x01B9, r1	; 0x8001b9 <pos_child>
	(*curr_menu->function)(main_menu->name);
    1040:	12 96       	adiw	r26, 0x02	; 2
    1042:	ed 91       	ld	r30, X+
    1044:	fc 91       	ld	r31, X
    1046:	13 97       	sbiw	r26, 0x03	; 3
    1048:	1a 96       	adiw	r26, 0x0a	; 10
    104a:	8d 91       	ld	r24, X+
    104c:	9c 91       	ld	r25, X
    104e:	1b 97       	sbiw	r26, 0x0b	; 11
    1050:	09 95       	icall
    1052:	08 95       	ret

00001054 <f_1player>:
	
	return new_submenu;
}


void f_1player(){
    1054:	0f 93       	push	r16
    1056:	1f 93       	push	r17
    1058:	cf 93       	push	r28
    105a:	df 93       	push	r29
    105c:	cd b7       	in	r28, 0x3d	; 61
    105e:	de b7       	in	r29, 0x3e	; 62
    1060:	2b 97       	sbiw	r28, 0x0b	; 11
    1062:	0f b6       	in	r0, 0x3f	; 63
    1064:	f8 94       	cli
    1066:	de bf       	out	0x3e, r29	; 62
    1068:	0f be       	out	0x3f, r0	; 63
    106a:	cd bf       	out	0x3d, r28	; 61

	oled_reset();
    106c:	0e 94 98 0b 	call	0x1730	; 0x1730 <oled_reset>
	oled_print_screen_progmem(s_p1);
    1070:	80 e1       	ldi	r24, 0x10	; 16
    1072:	90 e0       	ldi	r25, 0x00	; 0
    1074:	0e 94 a0 0e 	call	0x1d40	; 0x1d40 <oled_print_screen_progmem>
	joystick_sendPositionButtonCan(joystick_getPosition());//send motor to mid before start
    1078:	0e 94 40 07 	call	0xe80	; 0xe80 <joystick_getPosition>
    107c:	0e 94 d6 07 	call	0xfac	; 0xfac <joystick_sendPositionButtonCan>
	while(!(PINB & (1<<0))){
    1080:	b0 99       	sbic	0x16, 0	; 22
    1082:	63 c0       	rjmp	.+198    	; 0x114a <f_1player+0xf6>
		printf("--");
    1084:	0c e0       	ldi	r16, 0x0C	; 12
    1086:	11 e0       	ldi	r17, 0x01	; 1
    1088:	1f 93       	push	r17
    108a:	0f 93       	push	r16
    108c:	0e 94 14 14 	call	0x2828	; 0x2828 <printf>
void f_1player(){

	oled_reset();
	oled_print_screen_progmem(s_p1);
	joystick_sendPositionButtonCan(joystick_getPosition());//send motor to mid before start
	while(!(PINB & (1<<0))){
    1090:	0f 90       	pop	r0
    1092:	0f 90       	pop	r0
    1094:	b0 9b       	sbis	0x16, 0	; 22
    1096:	f8 cf       	rjmp	.-16     	; 0x1088 <f_1player+0x34>
    1098:	58 c0       	rjmp	.+176    	; 0x114a <f_1player+0xf6>
		uint8_t ctrl = xmem_read(0x800); //read variable from SRAM joystick/slider.
		
		if(!(ctrl ==1 || ctrl ==0)){
			ctrl=0;
		}
		timer2_set_ctrl(ctrl);
    109a:	81 2f       	mov	r24, r17
    109c:	0e 94 86 10 	call	0x210c	; 0x210c <timer2_set_ctrl>
		timer_init();
    10a0:	0e 94 d4 0f 	call	0x1fa8	; 0x1fa8 <timer_init>
		timer2_init();
    10a4:	0e 94 64 10 	call	0x20c8	; 0x20c8 <timer2_init>
		timer2_stop();
    10a8:	0e 94 77 10 	call	0x20ee	; 0x20ee <timer2_stop>
		
				
	switch(ctrl){
    10ac:	11 23       	and	r17, r17
    10ae:	19 f0       	breq	.+6      	; 0x10b6 <f_1player+0x62>
    10b0:	11 30       	cpi	r17, 0x01	; 1
    10b2:	99 f0       	breq	.+38     	; 0x10da <f_1player+0x86>
    10b4:	23 c0       	rjmp	.+70     	; 0x10fc <f_1player+0xa8>
		case JOYSTICK:
			timer2_start();
    10b6:	0e 94 7f 10 	call	0x20fe	; 0x20fe <timer2_start>
			while (!can_clearIfInterrupted()){
				printf("--");
    10ba:	0c e0       	ldi	r16, 0x0C	; 12
    10bc:	11 e0       	ldi	r17, 0x01	; 1
		
				
	switch(ctrl){
		case JOYSTICK:
			timer2_start();
			while (!can_clearIfInterrupted()){
    10be:	06 c0       	rjmp	.+12     	; 0x10cc <f_1player+0x78>
				printf("--");
    10c0:	1f 93       	push	r17
    10c2:	0f 93       	push	r16
    10c4:	0e 94 14 14 	call	0x2828	; 0x2828 <printf>
    10c8:	0f 90       	pop	r0
    10ca:	0f 90       	pop	r0
		
				
	switch(ctrl){
		case JOYSTICK:
			timer2_start();
			while (!can_clearIfInterrupted()){
    10cc:	0e 94 df 06 	call	0xdbe	; 0xdbe <can_clearIfInterrupted>
    10d0:	89 2b       	or	r24, r25
    10d2:	b1 f3       	breq	.-20     	; 0x10c0 <f_1player+0x6c>
				printf("--");
			}
			timer2_stop();
    10d4:	0e 94 77 10 	call	0x20ee	; 0x20ee <timer2_stop>

		break;
    10d8:	11 c0       	rjmp	.+34     	; 0x10fc <f_1player+0xa8>
		case SLIDER:
			timer2_start();
    10da:	0e 94 7f 10 	call	0x20fe	; 0x20fe <timer2_start>
			while (!can_clearIfInterrupted()){	
				printf("--");
    10de:	0c e0       	ldi	r16, 0x0C	; 12
    10e0:	11 e0       	ldi	r17, 0x01	; 1
			timer2_stop();

		break;
		case SLIDER:
			timer2_start();
			while (!can_clearIfInterrupted()){	
    10e2:	06 c0       	rjmp	.+12     	; 0x10f0 <f_1player+0x9c>
				printf("--");
    10e4:	1f 93       	push	r17
    10e6:	0f 93       	push	r16
    10e8:	0e 94 14 14 	call	0x2828	; 0x2828 <printf>
    10ec:	0f 90       	pop	r0
    10ee:	0f 90       	pop	r0
			timer2_stop();

		break;
		case SLIDER:
			timer2_start();
			while (!can_clearIfInterrupted()){	
    10f0:	0e 94 df 06 	call	0xdbe	; 0xdbe <can_clearIfInterrupted>
    10f4:	89 2b       	or	r24, r25
    10f6:	b1 f3       	breq	.-20     	; 0x10e4 <f_1player+0x90>
				printf("--");
			}
			timer2_stop();
    10f8:	0e 94 77 10 	call	0x20ee	; 0x20ee <timer2_stop>
		break;
	}	
	
		oled_reset();
    10fc:	0e 94 98 0b 	call	0x1730	; 0x1730 <oled_reset>
		oled_print_screen_progmem(s_gameover);
    1100:	80 e5       	ldi	r24, 0x50	; 80
    1102:	90 e0       	ldi	r25, 0x00	; 0
    1104:	0e 94 a0 0e 	call	0x1d40	; 0x1d40 <oled_print_screen_progmem>
		
		oled_print_time_used();
    1108:	0e 94 09 0f 	call	0x1e12	; 0x1e12 <oled_print_time_used>
    110c:	2f ef       	ldi	r18, 0xFF	; 255
    110e:	83 ed       	ldi	r24, 0xD3	; 211
    1110:	90 e3       	ldi	r25, 0x30	; 48
    1112:	21 50       	subi	r18, 0x01	; 1
    1114:	80 40       	sbci	r24, 0x00	; 0
    1116:	90 40       	sbci	r25, 0x00	; 0
    1118:	e1 f7       	brne	.-8      	; 0x1112 <f_1player+0xbe>
    111a:	00 c0       	rjmp	.+0      	; 0x111c <f_1player+0xc8>
    111c:	00 00       	nop
		
		_delay_ms(1000);
		
		curr_menu=main_menu;
    111e:	a0 91 c8 01 	lds	r26, 0x01C8	; 0x8001c8 <main_menu>
    1122:	b0 91 c9 01 	lds	r27, 0x01C9	; 0x8001c9 <main_menu+0x1>
    1126:	b0 93 b8 01 	sts	0x01B8, r27	; 0x8001b8 <curr_menu+0x1>
    112a:	a0 93 b7 01 	sts	0x01B7, r26	; 0x8001b7 <curr_menu>
		pos_child=0;
    112e:	10 92 ba 01 	sts	0x01BA, r1	; 0x8001ba <pos_child+0x1>
    1132:	10 92 b9 01 	sts	0x01B9, r1	; 0x8001b9 <pos_child>
		(*curr_menu->function)(main_menu->name);
    1136:	12 96       	adiw	r26, 0x02	; 2
    1138:	ed 91       	ld	r30, X+
    113a:	fc 91       	ld	r31, X
    113c:	13 97       	sbiw	r26, 0x03	; 3
    113e:	1a 96       	adiw	r26, 0x0a	; 10
    1140:	8d 91       	ld	r24, X+
    1142:	9c 91       	ld	r25, X
    1144:	1b 97       	sbiw	r26, 0x0b	; 11
    1146:	09 95       	icall
}
    1148:	28 c0       	rjmp	.+80     	; 0x119a <f_1player+0x146>
	joystick_sendPositionButtonCan(joystick_getPosition());//send motor to mid before start
	while(!(PINB & (1<<0))){
		printf("--");
	}
		for(unsigned char i=0; i<5; i++){
			can_clearIfInterrupted();
    114a:	0e 94 df 06 	call	0xdbe	; 0xdbe <can_clearIfInterrupted>
    114e:	0e 94 df 06 	call	0xdbe	; 0xdbe <can_clearIfInterrupted>
    1152:	0e 94 df 06 	call	0xdbe	; 0xdbe <can_clearIfInterrupted>
    1156:	0e 94 df 06 	call	0xdbe	; 0xdbe <can_clearIfInterrupted>
    115a:	0e 94 df 06 	call	0xdbe	; 0xdbe <can_clearIfInterrupted>
		}
		//several times because of race condition
		
		can_message msg;
		msg.id=1;
    115e:	81 e0       	ldi	r24, 0x01	; 1
    1160:	90 e0       	ldi	r25, 0x00	; 0
    1162:	9a 83       	std	Y+2, r25	; 0x02
    1164:	89 83       	std	Y+1, r24	; 0x01
		msg.length=3;
    1166:	83 e0       	ldi	r24, 0x03	; 3
    1168:	8b 83       	std	Y+3, r24	; 0x03
		msg.data[2]=(char)1;
    116a:	81 e0       	ldi	r24, 0x01	; 1
    116c:	8e 83       	std	Y+6, r24	; 0x06
		can_send_message(&msg); //solenoide hit
    116e:	ce 01       	movw	r24, r28
    1170:	01 96       	adiw	r24, 0x01	; 1
    1172:	0e 94 97 06 	call	0xd2e	; 0xd2e <can_send_message>
		
		uint8_t ctrl = xmem_read(0x800); //read variable from SRAM joystick/slider.
    1176:	80 e0       	ldi	r24, 0x00	; 0
    1178:	98 e0       	ldi	r25, 0x08	; 8
    117a:	0e 94 d9 10 	call	0x21b2	; 0x21b2 <xmem_read>
    117e:	18 2f       	mov	r17, r24
		
		if(!(ctrl ==1 || ctrl ==0)){
    1180:	82 30       	cpi	r24, 0x02	; 2
    1182:	08 f4       	brcc	.+2      	; 0x1186 <f_1player+0x132>
    1184:	8a cf       	rjmp	.-236    	; 0x109a <f_1player+0x46>
			ctrl=0;
		}
		timer2_set_ctrl(ctrl);
    1186:	80 e0       	ldi	r24, 0x00	; 0
    1188:	0e 94 86 10 	call	0x210c	; 0x210c <timer2_set_ctrl>
		timer_init();
    118c:	0e 94 d4 0f 	call	0x1fa8	; 0x1fa8 <timer_init>
		timer2_init();
    1190:	0e 94 64 10 	call	0x20c8	; 0x20c8 <timer2_init>
		timer2_stop();
    1194:	0e 94 77 10 	call	0x20ee	; 0x20ee <timer2_stop>
    1198:	8e cf       	rjmp	.-228    	; 0x10b6 <f_1player+0x62>
		_delay_ms(1000);
		
		curr_menu=main_menu;
		pos_child=0;
		(*curr_menu->function)(main_menu->name);
}
    119a:	2b 96       	adiw	r28, 0x0b	; 11
    119c:	0f b6       	in	r0, 0x3f	; 63
    119e:	f8 94       	cli
    11a0:	de bf       	out	0x3e, r29	; 62
    11a2:	0f be       	out	0x3f, r0	; 63
    11a4:	cd bf       	out	0x3d, r28	; 61
    11a6:	df 91       	pop	r29
    11a8:	cf 91       	pop	r28
    11aa:	1f 91       	pop	r17
    11ac:	0f 91       	pop	r16
    11ae:	08 95       	ret

000011b0 <f_joystick>:
	oled_print_page_progmem(s_controllerP,header_pages);

}

void f_joystick(){
	oled_reset();
    11b0:	0e 94 98 0b 	call	0x1730	; 0x1730 <oled_reset>
	oled_print_screen_progmem(s_joystick);
    11b4:	80 e3       	ldi	r24, 0x30	; 48
    11b6:	90 e0       	ldi	r25, 0x00	; 0
    11b8:	0e 94 a0 0e 	call	0x1d40	; 0x1d40 <oled_print_screen_progmem>
	cli();
    11bc:	f8 94       	cli
	controller ctrl = JOYSTICK;
	xmem_write(ctrl,0x800); //Lagrer i SRAM
    11be:	60 e0       	ldi	r22, 0x00	; 0
    11c0:	78 e0       	ldi	r23, 0x08	; 8
    11c2:	80 e0       	ldi	r24, 0x00	; 0
    11c4:	90 e0       	ldi	r25, 0x00	; 0
    11c6:	0e 94 d5 10 	call	0x21aa	; 0x21aa <xmem_write>
	sei();
    11ca:	78 94       	sei
    11cc:	2f ef       	ldi	r18, 0xFF	; 255
    11ce:	83 ed       	ldi	r24, 0xD3	; 211
    11d0:	90 e3       	ldi	r25, 0x30	; 48
    11d2:	21 50       	subi	r18, 0x01	; 1
    11d4:	80 40       	sbci	r24, 0x00	; 0
    11d6:	90 40       	sbci	r25, 0x00	; 0
    11d8:	e1 f7       	brne	.-8      	; 0x11d2 <f_joystick+0x22>
    11da:	00 c0       	rjmp	.+0      	; 0x11dc <f_joystick+0x2c>
    11dc:	00 00       	nop
	_delay_ms(1000);
	
	curr_menu=main_menu;
    11de:	a0 91 c8 01 	lds	r26, 0x01C8	; 0x8001c8 <main_menu>
    11e2:	b0 91 c9 01 	lds	r27, 0x01C9	; 0x8001c9 <main_menu+0x1>
    11e6:	b0 93 b8 01 	sts	0x01B8, r27	; 0x8001b8 <curr_menu+0x1>
    11ea:	a0 93 b7 01 	sts	0x01B7, r26	; 0x8001b7 <curr_menu>
	pos_child=0;
    11ee:	10 92 ba 01 	sts	0x01BA, r1	; 0x8001ba <pos_child+0x1>
    11f2:	10 92 b9 01 	sts	0x01B9, r1	; 0x8001b9 <pos_child>
	(*curr_menu->function)(main_menu->name);
    11f6:	12 96       	adiw	r26, 0x02	; 2
    11f8:	ed 91       	ld	r30, X+
    11fa:	fc 91       	ld	r31, X
    11fc:	13 97       	sbiw	r26, 0x03	; 3
    11fe:	1a 96       	adiw	r26, 0x0a	; 10
    1200:	8d 91       	ld	r24, X+
    1202:	9c 91       	ld	r25, X
    1204:	1b 97       	sbiw	r26, 0x0b	; 11
    1206:	09 95       	icall
    1208:	08 95       	ret

0000120a <f_slider>:
		
	
}
void f_slider(){
	oled_reset();
    120a:	0e 94 98 0b 	call	0x1730	; 0x1730 <oled_reset>
	oled_print_screen_progmem(s_slider);
    120e:	88 e3       	ldi	r24, 0x38	; 56
    1210:	90 e0       	ldi	r25, 0x00	; 0
    1212:	0e 94 a0 0e 	call	0x1d40	; 0x1d40 <oled_print_screen_progmem>
	cli();
    1216:	f8 94       	cli
	controller ctrl = SLIDER;
	xmem_write(ctrl,0x800); //Lagrer i SRAM
    1218:	60 e0       	ldi	r22, 0x00	; 0
    121a:	78 e0       	ldi	r23, 0x08	; 8
    121c:	81 e0       	ldi	r24, 0x01	; 1
    121e:	90 e0       	ldi	r25, 0x00	; 0
    1220:	0e 94 d5 10 	call	0x21aa	; 0x21aa <xmem_write>
	sei();
    1224:	78 94       	sei
    1226:	2f ef       	ldi	r18, 0xFF	; 255
    1228:	83 ed       	ldi	r24, 0xD3	; 211
    122a:	90 e3       	ldi	r25, 0x30	; 48
    122c:	21 50       	subi	r18, 0x01	; 1
    122e:	80 40       	sbci	r24, 0x00	; 0
    1230:	90 40       	sbci	r25, 0x00	; 0
    1232:	e1 f7       	brne	.-8      	; 0x122c <f_slider+0x22>
    1234:	00 c0       	rjmp	.+0      	; 0x1236 <f_slider+0x2c>
    1236:	00 00       	nop
	_delay_ms(1000);
	
	curr_menu=main_menu;
    1238:	a0 91 c8 01 	lds	r26, 0x01C8	; 0x8001c8 <main_menu>
    123c:	b0 91 c9 01 	lds	r27, 0x01C9	; 0x8001c9 <main_menu+0x1>
    1240:	b0 93 b8 01 	sts	0x01B8, r27	; 0x8001b8 <curr_menu+0x1>
    1244:	a0 93 b7 01 	sts	0x01B7, r26	; 0x8001b7 <curr_menu>
	pos_child=0;
    1248:	10 92 ba 01 	sts	0x01BA, r1	; 0x8001ba <pos_child+0x1>
    124c:	10 92 b9 01 	sts	0x01B9, r1	; 0x8001b9 <pos_child>
	(*curr_menu->function)(main_menu->name);
    1250:	12 96       	adiw	r26, 0x02	; 2
    1252:	ed 91       	ld	r30, X+
    1254:	fc 91       	ld	r31, X
    1256:	13 97       	sbiw	r26, 0x03	; 3
    1258:	1a 96       	adiw	r26, 0x0a	; 10
    125a:	8d 91       	ld	r24, X+
    125c:	9c 91       	ld	r25, X
    125e:	1b 97       	sbiw	r26, 0x0b	; 11
    1260:	09 95       	icall
    1262:	08 95       	ret

00001264 <f_calibrate>:
	
}

void f_calibrate(){
	oled_reset();
    1264:	0e 94 98 0b 	call	0x1730	; 0x1730 <oled_reset>
	oled_print_screen_progmem(s_calibrate);
    1268:	80 e4       	ldi	r24, 0x40	; 64
    126a:	90 e0       	ldi	r25, 0x00	; 0
    126c:	0e 94 a0 0e 	call	0x1d40	; 0x1d40 <oled_print_screen_progmem>
    1270:	2f ef       	ldi	r18, 0xFF	; 255
    1272:	8d e2       	ldi	r24, 0x2D	; 45
    1274:	92 e2       	ldi	r25, 0x22	; 34
    1276:	21 50       	subi	r18, 0x01	; 1
    1278:	80 40       	sbci	r24, 0x00	; 0
    127a:	90 40       	sbci	r25, 0x00	; 0
    127c:	e1 f7       	brne	.-8      	; 0x1276 <f_calibrate+0x12>
    127e:	00 c0       	rjmp	.+0      	; 0x1280 <f_calibrate+0x1c>
    1280:	00 00       	nop
	
	_delay_ms(700);
	joystick_calibrate();
    1282:	0e 94 f0 06 	call	0xde0	; 0xde0 <joystick_calibrate>
    1286:	2f ef       	ldi	r18, 0xFF	; 255
    1288:	85 ea       	ldi	r24, 0xA5	; 165
    128a:	9e e0       	ldi	r25, 0x0E	; 14
    128c:	21 50       	subi	r18, 0x01	; 1
    128e:	80 40       	sbci	r24, 0x00	; 0
    1290:	90 40       	sbci	r25, 0x00	; 0
    1292:	e1 f7       	brne	.-8      	; 0x128c <f_calibrate+0x28>
    1294:	00 c0       	rjmp	.+0      	; 0x1296 <f_calibrate+0x32>
    1296:	00 00       	nop
	
	_delay_ms(300);
		
	curr_menu=main_menu;
    1298:	a0 91 c8 01 	lds	r26, 0x01C8	; 0x8001c8 <main_menu>
    129c:	b0 91 c9 01 	lds	r27, 0x01C9	; 0x8001c9 <main_menu+0x1>
    12a0:	b0 93 b8 01 	sts	0x01B8, r27	; 0x8001b8 <curr_menu+0x1>
    12a4:	a0 93 b7 01 	sts	0x01B7, r26	; 0x8001b7 <curr_menu>
	pos_child=0;
    12a8:	10 92 ba 01 	sts	0x01BA, r1	; 0x8001ba <pos_child+0x1>
    12ac:	10 92 b9 01 	sts	0x01B9, r1	; 0x8001b9 <pos_child>
	(*curr_menu->function)(main_menu->name);
    12b0:	12 96       	adiw	r26, 0x02	; 2
    12b2:	ed 91       	ld	r30, X+
    12b4:	fc 91       	ld	r31, X
    12b6:	13 97       	sbiw	r26, 0x03	; 3
    12b8:	1a 96       	adiw	r26, 0x0a	; 10
    12ba:	8d 91       	ld	r24, X+
    12bc:	9c 91       	ld	r25, X
    12be:	1b 97       	sbiw	r26, 0x0b	; 11
    12c0:	09 95       	icall
    12c2:	08 95       	ret

000012c4 <f_animation>:
	
	
}

void f_animation(){
	oled_reset();
    12c4:	0e 94 98 0b 	call	0x1730	; 0x1730 <oled_reset>
	oled_print_screen_progmem(s_animation);
    12c8:	88 e4       	ldi	r24, 0x48	; 72
    12ca:	90 e0       	ldi	r25, 0x00	; 0
    12cc:	0e 94 a0 0e 	call	0x1d40	; 0x1d40 <oled_print_screen_progmem>
	oled_animation(4);
    12d0:	84 e0       	ldi	r24, 0x04	; 4
    12d2:	90 e0       	ldi	r25, 0x00	; 0
    12d4:	0e 94 fb 0c 	call	0x19f6	; 0x19f6 <oled_animation>
	
	curr_menu=main_menu;
    12d8:	a0 91 c8 01 	lds	r26, 0x01C8	; 0x8001c8 <main_menu>
    12dc:	b0 91 c9 01 	lds	r27, 0x01C9	; 0x8001c9 <main_menu+0x1>
    12e0:	b0 93 b8 01 	sts	0x01B8, r27	; 0x8001b8 <curr_menu+0x1>
    12e4:	a0 93 b7 01 	sts	0x01B7, r26	; 0x8001b7 <curr_menu>
	pos_child=0;
    12e8:	10 92 ba 01 	sts	0x01BA, r1	; 0x8001ba <pos_child+0x1>
    12ec:	10 92 b9 01 	sts	0x01B9, r1	; 0x8001b9 <pos_child>
	(*curr_menu->function)(main_menu->name);
    12f0:	12 96       	adiw	r26, 0x02	; 2
    12f2:	ed 91       	ld	r30, X+
    12f4:	fc 91       	ld	r31, X
    12f6:	13 97       	sbiw	r26, 0x03	; 3
    12f8:	1a 96       	adiw	r26, 0x0a	; 10
    12fa:	8d 91       	ld	r24, X+
    12fc:	9c 91       	ld	r25, X
    12fe:	1b 97       	sbiw	r26, 0x0b	; 11
    1300:	09 95       	icall
    1302:	08 95       	ret

00001304 <Menu_new_submenu>:
	
	curr_menu = main_menu;
	
}

menu_item* Menu_new_submenu(menu_item* self, char* name, void (*function)(char*), int oledOffset){
    1304:	af 92       	push	r10
    1306:	bf 92       	push	r11
    1308:	cf 92       	push	r12
    130a:	df 92       	push	r13
    130c:	ef 92       	push	r14
    130e:	ff 92       	push	r15
    1310:	0f 93       	push	r16
    1312:	1f 93       	push	r17
    1314:	cf 93       	push	r28
    1316:	df 93       	push	r29
    1318:	8c 01       	movw	r16, r24
    131a:	7b 01       	movw	r14, r22
    131c:	5a 01       	movw	r10, r20
    131e:	69 01       	movw	r12, r18
	menu_item* new_submenu = malloc(sizeof(menu_item));
    1320:	8e e0       	ldi	r24, 0x0E	; 14
    1322:	90 e0       	ldi	r25, 0x00	; 0
    1324:	0e 94 c7 11 	call	0x238e	; 0x238e <malloc>
    1328:	ec 01       	movw	r28, r24

	new_submenu->parent=self;
    132a:	19 83       	std	Y+1, r17	; 0x01
    132c:	08 83       	st	Y, r16
	new_submenu->children=NULL;
    132e:	1d 82       	std	Y+5, r1	; 0x05
    1330:	1c 82       	std	Y+4, r1	; 0x04
	new_submenu->numOfChildren=0;
    1332:	1f 82       	std	Y+7, r1	; 0x07
    1334:	1e 82       	std	Y+6, r1	; 0x06
	new_submenu->name=name;
    1336:	fb 86       	std	Y+11, r15	; 0x0b
    1338:	ea 86       	std	Y+10, r14	; 0x0a
	new_submenu->nameArrow=oled_arrow(name);
    133a:	c7 01       	movw	r24, r14
    133c:	0e 94 b2 0c 	call	0x1964	; 0x1964 <oled_arrow>
    1340:	9d 87       	std	Y+13, r25	; 0x0d
    1342:	8c 87       	std	Y+12, r24	; 0x0c
	new_submenu->function = function;
    1344:	bb 82       	std	Y+3, r11	; 0x03
    1346:	aa 82       	std	Y+2, r10	; 0x02
	new_submenu->oledOffset=oledOffset;
    1348:	d9 86       	std	Y+9, r13	; 0x09
    134a:	c8 86       	std	Y+8, r12	; 0x08
		
	self->children=realloc(self->children, (self->numOfChildren+1)*sizeof(menu_item*));
    134c:	f8 01       	movw	r30, r16
    134e:	66 81       	ldd	r22, Z+6	; 0x06
    1350:	77 81       	ldd	r23, Z+7	; 0x07
    1352:	6f 5f       	subi	r22, 0xFF	; 255
    1354:	7f 4f       	sbci	r23, 0xFF	; 255
    1356:	66 0f       	add	r22, r22
    1358:	77 1f       	adc	r23, r23
    135a:	84 81       	ldd	r24, Z+4	; 0x04
    135c:	95 81       	ldd	r25, Z+5	; 0x05
    135e:	0e 94 e8 12 	call	0x25d0	; 0x25d0 <realloc>
    1362:	f8 01       	movw	r30, r16
    1364:	95 83       	std	Z+5, r25	; 0x05
    1366:	84 83       	std	Z+4, r24	; 0x04
	self->children[self->numOfChildren]=new_submenu;
    1368:	26 81       	ldd	r18, Z+6	; 0x06
    136a:	37 81       	ldd	r19, Z+7	; 0x07
    136c:	a9 01       	movw	r20, r18
    136e:	44 0f       	add	r20, r20
    1370:	55 1f       	adc	r21, r21
    1372:	fc 01       	movw	r30, r24
    1374:	e4 0f       	add	r30, r20
    1376:	f5 1f       	adc	r31, r21
    1378:	d1 83       	std	Z+1, r29	; 0x01
    137a:	c0 83       	st	Z, r28
	self->numOfChildren++;
    137c:	2f 5f       	subi	r18, 0xFF	; 255
    137e:	3f 4f       	sbci	r19, 0xFF	; 255
    1380:	f8 01       	movw	r30, r16
    1382:	37 83       	std	Z+7, r19	; 0x07
    1384:	26 83       	std	Z+6, r18	; 0x06
	
	return new_submenu;
}
    1386:	ce 01       	movw	r24, r28
    1388:	df 91       	pop	r29
    138a:	cf 91       	pop	r28
    138c:	1f 91       	pop	r17
    138e:	0f 91       	pop	r16
    1390:	ff 90       	pop	r15
    1392:	ef 90       	pop	r14
    1394:	df 90       	pop	r13
    1396:	cf 90       	pop	r12
    1398:	bf 90       	pop	r11
    139a:	af 90       	pop	r10
    139c:	08 95       	ret

0000139e <menu_init>:
menu_item* main_menu;
static menu_item* curr_menu;
static int header_pages=2;


void menu_init(){
    139e:	0f 93       	push	r16
    13a0:	1f 93       	push	r17
    13a2:	cf 93       	push	r28
    13a4:	df 93       	push	r29
	
	menu_item* main_menu = malloc(sizeof(menu_item));
    13a6:	8e e0       	ldi	r24, 0x0E	; 14
    13a8:	90 e0       	ldi	r25, 0x00	; 0
    13aa:	0e 94 c7 11 	call	0x238e	; 0x238e <malloc>
    13ae:	ec 01       	movw	r28, r24
	main_menu->name = "Main Menu";
    13b0:	8f e0       	ldi	r24, 0x0F	; 15
    13b2:	91 e0       	ldi	r25, 0x01	; 1
    13b4:	9b 87       	std	Y+11, r25	; 0x0b
    13b6:	8a 87       	std	Y+10, r24	; 0x0a
	main_menu->nameArrow= NULL;
    13b8:	1d 86       	std	Y+13, r1	; 0x0d
    13ba:	1c 86       	std	Y+12, r1	; 0x0c
	main_menu->numOfChildren = 0;
    13bc:	1f 82       	std	Y+7, r1	; 0x07
    13be:	1e 82       	std	Y+6, r1	; 0x06
	main_menu->parent = NULL;
    13c0:	19 82       	std	Y+1, r1	; 0x01
    13c2:	18 82       	st	Y, r1
	main_menu->function = NULL;
    13c4:	1b 82       	std	Y+3, r1	; 0x03
    13c6:	1a 82       	std	Y+2, r1	; 0x02
	main_menu->oledOffset=s_main;
    13c8:	19 86       	std	Y+9, r1	; 0x09
    13ca:	18 86       	std	Y+8, r1	; 0x08
	
	menu_item* player_menu=Menu_new_submenu(main_menu, "1PLAYER", &f_1player, s_p1);
    13cc:	20 e1       	ldi	r18, 0x10	; 16
    13ce:	30 e0       	ldi	r19, 0x00	; 0
    13d0:	4a e2       	ldi	r20, 0x2A	; 42
    13d2:	58 e0       	ldi	r21, 0x08	; 8
    13d4:	69 e1       	ldi	r22, 0x19	; 25
    13d6:	71 e0       	ldi	r23, 0x01	; 1
    13d8:	ce 01       	movw	r24, r28
    13da:	0e 94 82 09 	call	0x1304	; 0x1304 <Menu_new_submenu>
	Menu_new_submenu(main_menu, "2PLAYER", &f_2player, s_p2);
    13de:	28 e1       	ldi	r18, 0x18	; 24
    13e0:	30 e0       	ldi	r19, 0x00	; 0
    13e2:	45 e0       	ldi	r20, 0x05	; 5
    13e4:	58 e0       	ldi	r21, 0x08	; 8
    13e6:	61 e2       	ldi	r22, 0x21	; 33
    13e8:	71 e0       	ldi	r23, 0x01	; 1
    13ea:	ce 01       	movw	r24, r28
    13ec:	0e 94 82 09 	call	0x1304	; 0x1304 <Menu_new_submenu>
	menu_item* controller_menu=Menu_new_submenu(main_menu, "CONTROLLER", &f_controller,s_controller);
    13f0:	20 e2       	ldi	r18, 0x20	; 32
    13f2:	30 e0       	ldi	r19, 0x00	; 0
    13f4:	48 ef       	ldi	r20, 0xF8	; 248
    13f6:	57 e0       	ldi	r21, 0x07	; 7
    13f8:	69 e2       	ldi	r22, 0x29	; 41
    13fa:	71 e0       	ldi	r23, 0x01	; 1
    13fc:	ce 01       	movw	r24, r28
    13fe:	0e 94 82 09 	call	0x1304	; 0x1304 <Menu_new_submenu>
    1402:	8c 01       	movw	r16, r24
	Menu_new_submenu(controller_menu, "JOYSTICK", &f_joystick,s_joystick);
    1404:	20 e3       	ldi	r18, 0x30	; 48
    1406:	30 e0       	ldi	r19, 0x00	; 0
    1408:	48 ed       	ldi	r20, 0xD8	; 216
    140a:	58 e0       	ldi	r21, 0x08	; 8
    140c:	64 e3       	ldi	r22, 0x34	; 52
    140e:	71 e0       	ldi	r23, 0x01	; 1
    1410:	0e 94 82 09 	call	0x1304	; 0x1304 <Menu_new_submenu>
	Menu_new_submenu(controller_menu, "SLIDER", &f_slider,s_slider);
    1414:	28 e3       	ldi	r18, 0x38	; 56
    1416:	30 e0       	ldi	r19, 0x00	; 0
    1418:	45 e0       	ldi	r20, 0x05	; 5
    141a:	59 e0       	ldi	r21, 0x09	; 9
    141c:	6d e3       	ldi	r22, 0x3D	; 61
    141e:	71 e0       	ldi	r23, 0x01	; 1
    1420:	c8 01       	movw	r24, r16
    1422:	0e 94 82 09 	call	0x1304	; 0x1304 <Menu_new_submenu>
	Menu_new_submenu(main_menu, "CALIBRATE", &f_calibrate,s_calibrate);
    1426:	20 e4       	ldi	r18, 0x40	; 64
    1428:	30 e0       	ldi	r19, 0x00	; 0
    142a:	42 e3       	ldi	r20, 0x32	; 50
    142c:	59 e0       	ldi	r21, 0x09	; 9
    142e:	64 e4       	ldi	r22, 0x44	; 68
    1430:	71 e0       	ldi	r23, 0x01	; 1
    1432:	ce 01       	movw	r24, r28
    1434:	0e 94 82 09 	call	0x1304	; 0x1304 <Menu_new_submenu>
	Menu_new_submenu(main_menu, "ANIMATION", &f_animation,s_animation);
    1438:	28 e4       	ldi	r18, 0x48	; 72
    143a:	30 e0       	ldi	r19, 0x00	; 0
    143c:	42 e6       	ldi	r20, 0x62	; 98
    143e:	59 e0       	ldi	r21, 0x09	; 9
    1440:	6e e4       	ldi	r22, 0x4E	; 78
    1442:	71 e0       	ldi	r23, 0x01	; 1
    1444:	ce 01       	movw	r24, r28
    1446:	0e 94 82 09 	call	0x1304	; 0x1304 <Menu_new_submenu>
	

	oled_reset();
    144a:	0e 94 98 0b 	call	0x1730	; 0x1730 <oled_reset>
	oled_print_screen_progmem(s_main);
    144e:	80 e0       	ldi	r24, 0x00	; 0
    1450:	90 e0       	ldi	r25, 0x00	; 0
    1452:	0e 94 a0 0e 	call	0x1d40	; 0x1d40 <oled_print_screen_progmem>
	oled_print_page_progmem(s_mainP, header_pages);
    1456:	62 e0       	ldi	r22, 0x02	; 2
    1458:	70 e0       	ldi	r23, 0x00	; 0
    145a:	88 e0       	ldi	r24, 0x08	; 8
    145c:	90 e0       	ldi	r25, 0x00	; 0
    145e:	0e 94 d6 0e 	call	0x1dac	; 0x1dac <oled_print_page_progmem>
	
	curr_menu = main_menu;
    1462:	d0 93 b8 01 	sts	0x01B8, r29	; 0x8001b8 <curr_menu+0x1>
    1466:	c0 93 b7 01 	sts	0x01B7, r28	; 0x8001b7 <curr_menu>
	
}
    146a:	df 91       	pop	r29
    146c:	cf 91       	pop	r28
    146e:	1f 91       	pop	r17
    1470:	0f 91       	pop	r16
    1472:	08 95       	ret

00001474 <navigate>:
	(*curr_menu->function)(main_menu->name);
	
	
}

void navigate(){
    1474:	cf 93       	push	r28
    1476:	df 93       	push	r29
	
if(joystick_getDirection()!=NEUTRAL){
    1478:	0e 94 b6 07 	call	0xf6c	; 0xf6c <joystick_getDirection>
    147c:	84 30       	cpi	r24, 0x04	; 4
    147e:	09 f4       	brne	.+2      	; 0x1482 <navigate+0xe>
    1480:	97 c0       	rjmp	.+302    	; 0x15b0 <navigate+0x13c>
    1482:	2f ef       	ldi	r18, 0xFF	; 255
    1484:	87 ee       	ldi	r24, 0xE7	; 231
    1486:	93 e0       	ldi	r25, 0x03	; 3
    1488:	21 50       	subi	r18, 0x01	; 1
    148a:	80 40       	sbci	r24, 0x00	; 0
    148c:	90 40       	sbci	r25, 0x00	; 0
    148e:	e1 f7       	brne	.-8      	; 0x1488 <navigate+0x14>
    1490:	00 c0       	rjmp	.+0      	; 0x1492 <navigate+0x1e>
    1492:	00 00       	nop
			_delay_ms(80);
		
	switch (joystick_getDirection()){
    1494:	0e 94 b6 07 	call	0xf6c	; 0xf6c <joystick_getDirection>
    1498:	82 30       	cpi	r24, 0x02	; 2
    149a:	09 f4       	brne	.+2      	; 0x149e <navigate+0x2a>
    149c:	43 c0       	rjmp	.+134    	; 0x1524 <navigate+0xb0>
    149e:	83 30       	cpi	r24, 0x03	; 3
    14a0:	09 f0       	breq	.+2      	; 0x14a4 <navigate+0x30>
    14a2:	86 c0       	rjmp	.+268    	; 0x15b0 <navigate+0x13c>
		
		case UP:
		if(pos_child>0){
    14a4:	80 91 b9 01 	lds	r24, 0x01B9	; 0x8001b9 <pos_child>
    14a8:	90 91 ba 01 	lds	r25, 0x01BA	; 0x8001ba <pos_child+0x1>
    14ac:	18 16       	cp	r1, r24
    14ae:	19 06       	cpc	r1, r25
    14b0:	0c f0       	brlt	.+2      	; 0x14b4 <navigate+0x40>
    14b2:	7e c0       	rjmp	.+252    	; 0x15b0 <navigate+0x13c>
			oled_goto_page(pos_child+header_pages);
    14b4:	8e 5f       	subi	r24, 0xFE	; 254
    14b6:	0e 94 15 0b 	call	0x162a	; 0x162a <oled_goto_page>
			oled_clear_page(pos_child+header_pages);
    14ba:	c9 eb       	ldi	r28, 0xB9	; 185
    14bc:	d1 e0       	ldi	r29, 0x01	; 1
    14be:	88 81       	ld	r24, Y
    14c0:	8e 5f       	subi	r24, 0xFE	; 254
    14c2:	0e 94 5c 0b 	call	0x16b8	; 0x16b8 <oled_clear_page>
			oled_print_page_progmem(curr_menu->oledOffset,header_pages+pos_child);
    14c6:	60 91 b9 01 	lds	r22, 0x01B9	; 0x8001b9 <pos_child>
    14ca:	70 91 ba 01 	lds	r23, 0x01BA	; 0x8001ba <pos_child+0x1>
    14ce:	6e 5f       	subi	r22, 0xFE	; 254
    14d0:	7f 4f       	sbci	r23, 0xFF	; 255
    14d2:	e0 91 b7 01 	lds	r30, 0x01B7	; 0x8001b7 <curr_menu>
    14d6:	f0 91 b8 01 	lds	r31, 0x01B8	; 0x8001b8 <curr_menu+0x1>
    14da:	80 85       	ldd	r24, Z+8	; 0x08
    14dc:	91 85       	ldd	r25, Z+9	; 0x09
    14de:	0e 94 d6 0e 	call	0x1dac	; 0x1dac <oled_print_page_progmem>
			
			oled_goto_page(pos_child+header_pages-1);
    14e2:	88 81       	ld	r24, Y
    14e4:	8f 5f       	subi	r24, 0xFF	; 255
    14e6:	0e 94 15 0b 	call	0x162a	; 0x162a <oled_goto_page>
			oled_clear_page(pos_child+header_pages-1);
    14ea:	88 81       	ld	r24, Y
    14ec:	8f 5f       	subi	r24, 0xFF	; 255
    14ee:	0e 94 5c 0b 	call	0x16b8	; 0x16b8 <oled_clear_page>
			oled_print_page_progmem((curr_menu->oledOffset)+s_screen,header_pages+pos_child-1);
    14f2:	60 91 b9 01 	lds	r22, 0x01B9	; 0x8001b9 <pos_child>
    14f6:	70 91 ba 01 	lds	r23, 0x01BA	; 0x8001ba <pos_child+0x1>
    14fa:	6f 5f       	subi	r22, 0xFF	; 255
    14fc:	7f 4f       	sbci	r23, 0xFF	; 255
    14fe:	e0 91 b7 01 	lds	r30, 0x01B7	; 0x8001b7 <curr_menu>
    1502:	f0 91 b8 01 	lds	r31, 0x01B8	; 0x8001b8 <curr_menu+0x1>
    1506:	80 85       	ldd	r24, Z+8	; 0x08
    1508:	91 85       	ldd	r25, Z+9	; 0x09
    150a:	08 96       	adiw	r24, 0x08	; 8
    150c:	0e 94 d6 0e 	call	0x1dac	; 0x1dac <oled_print_page_progmem>
				
			pos_child -= 1;
    1510:	80 91 b9 01 	lds	r24, 0x01B9	; 0x8001b9 <pos_child>
    1514:	90 91 ba 01 	lds	r25, 0x01BA	; 0x8001ba <pos_child+0x1>
    1518:	01 97       	sbiw	r24, 0x01	; 1
    151a:	90 93 ba 01 	sts	0x01BA, r25	; 0x8001ba <pos_child+0x1>
    151e:	80 93 b9 01 	sts	0x01B9, r24	; 0x8001b9 <pos_child>
    1522:	46 c0       	rjmp	.+140    	; 0x15b0 <navigate+0x13c>
		}
		break;
		case DOWN:
		if(pos_child < curr_menu->numOfChildren-1){
    1524:	80 91 b9 01 	lds	r24, 0x01B9	; 0x8001b9 <pos_child>
    1528:	90 91 ba 01 	lds	r25, 0x01BA	; 0x8001ba <pos_child+0x1>
    152c:	e0 91 b7 01 	lds	r30, 0x01B7	; 0x8001b7 <curr_menu>
    1530:	f0 91 b8 01 	lds	r31, 0x01B8	; 0x8001b8 <curr_menu+0x1>
    1534:	26 81       	ldd	r18, Z+6	; 0x06
    1536:	37 81       	ldd	r19, Z+7	; 0x07
    1538:	21 50       	subi	r18, 0x01	; 1
    153a:	31 09       	sbc	r19, r1
    153c:	82 17       	cp	r24, r18
    153e:	93 07       	cpc	r25, r19
    1540:	bc f5       	brge	.+110    	; 0x15b0 <navigate+0x13c>
			oled_goto_page(pos_child+header_pages);
    1542:	8e 5f       	subi	r24, 0xFE	; 254
    1544:	0e 94 15 0b 	call	0x162a	; 0x162a <oled_goto_page>
			oled_clear_page(pos_child+header_pages);
    1548:	c9 eb       	ldi	r28, 0xB9	; 185
    154a:	d1 e0       	ldi	r29, 0x01	; 1
    154c:	88 81       	ld	r24, Y
    154e:	8e 5f       	subi	r24, 0xFE	; 254
    1550:	0e 94 5c 0b 	call	0x16b8	; 0x16b8 <oled_clear_page>
			oled_print_page_progmem(curr_menu->oledOffset,header_pages+pos_child);
    1554:	60 91 b9 01 	lds	r22, 0x01B9	; 0x8001b9 <pos_child>
    1558:	70 91 ba 01 	lds	r23, 0x01BA	; 0x8001ba <pos_child+0x1>
    155c:	6e 5f       	subi	r22, 0xFE	; 254
    155e:	7f 4f       	sbci	r23, 0xFF	; 255
    1560:	e0 91 b7 01 	lds	r30, 0x01B7	; 0x8001b7 <curr_menu>
    1564:	f0 91 b8 01 	lds	r31, 0x01B8	; 0x8001b8 <curr_menu+0x1>
    1568:	80 85       	ldd	r24, Z+8	; 0x08
    156a:	91 85       	ldd	r25, Z+9	; 0x09
    156c:	0e 94 d6 0e 	call	0x1dac	; 0x1dac <oled_print_page_progmem>
			
			oled_goto_page(pos_child+header_pages+1);
    1570:	88 81       	ld	r24, Y
    1572:	8d 5f       	subi	r24, 0xFD	; 253
    1574:	0e 94 15 0b 	call	0x162a	; 0x162a <oled_goto_page>
			oled_clear_page(pos_child+header_pages+1);
    1578:	88 81       	ld	r24, Y
    157a:	8d 5f       	subi	r24, 0xFD	; 253
    157c:	0e 94 5c 0b 	call	0x16b8	; 0x16b8 <oled_clear_page>
			oled_print_page_progmem((curr_menu->oledOffset)+s_screen,header_pages+pos_child+1);
    1580:	60 91 b9 01 	lds	r22, 0x01B9	; 0x8001b9 <pos_child>
    1584:	70 91 ba 01 	lds	r23, 0x01BA	; 0x8001ba <pos_child+0x1>
    1588:	6d 5f       	subi	r22, 0xFD	; 253
    158a:	7f 4f       	sbci	r23, 0xFF	; 255
    158c:	e0 91 b7 01 	lds	r30, 0x01B7	; 0x8001b7 <curr_menu>
    1590:	f0 91 b8 01 	lds	r31, 0x01B8	; 0x8001b8 <curr_menu+0x1>
    1594:	80 85       	ldd	r24, Z+8	; 0x08
    1596:	91 85       	ldd	r25, Z+9	; 0x09
    1598:	08 96       	adiw	r24, 0x08	; 8
    159a:	0e 94 d6 0e 	call	0x1dac	; 0x1dac <oled_print_page_progmem>
			
			pos_child += 1;
    159e:	80 91 b9 01 	lds	r24, 0x01B9	; 0x8001b9 <pos_child>
    15a2:	90 91 ba 01 	lds	r25, 0x01BA	; 0x8001ba <pos_child+0x1>
    15a6:	01 96       	adiw	r24, 0x01	; 1
    15a8:	90 93 ba 01 	sts	0x01BA, r25	; 0x8001ba <pos_child+0x1>
    15ac:	80 93 b9 01 	sts	0x01B9, r24	; 0x8001b9 <pos_child>
		}
		break;
	}
}
	if (!(PINB & (1<<PB2))){
    15b0:	b2 99       	sbic	0x16, 2	; 22
    15b2:	2c c0       	rjmp	.+88     	; 0x160c <navigate+0x198>
		if(curr_menu->children!= NULL){
    15b4:	e0 91 b7 01 	lds	r30, 0x01B7	; 0x8001b7 <curr_menu>
    15b8:	f0 91 b8 01 	lds	r31, 0x01B8	; 0x8001b8 <curr_menu+0x1>
    15bc:	84 81       	ldd	r24, Z+4	; 0x04
    15be:	95 81       	ldd	r25, Z+5	; 0x05
    15c0:	00 97       	sbiw	r24, 0x00	; 0
    15c2:	d9 f0       	breq	.+54     	; 0x15fa <navigate+0x186>
			curr_menu=curr_menu->children[pos_child];
    15c4:	e0 91 b9 01 	lds	r30, 0x01B9	; 0x8001b9 <pos_child>
    15c8:	f0 91 ba 01 	lds	r31, 0x01BA	; 0x8001ba <pos_child+0x1>
    15cc:	ee 0f       	add	r30, r30
    15ce:	ff 1f       	adc	r31, r31
    15d0:	e8 0f       	add	r30, r24
    15d2:	f9 1f       	adc	r31, r25
    15d4:	a0 81       	ld	r26, Z
    15d6:	b1 81       	ldd	r27, Z+1	; 0x01
    15d8:	b0 93 b8 01 	sts	0x01B8, r27	; 0x8001b8 <curr_menu+0x1>
    15dc:	a0 93 b7 01 	sts	0x01B7, r26	; 0x8001b7 <curr_menu>
			pos_child=0;
    15e0:	10 92 ba 01 	sts	0x01BA, r1	; 0x8001ba <pos_child+0x1>
    15e4:	10 92 b9 01 	sts	0x01B9, r1	; 0x8001b9 <pos_child>
			(*curr_menu->function)(curr_menu->name);
    15e8:	12 96       	adiw	r26, 0x02	; 2
    15ea:	ed 91       	ld	r30, X+
    15ec:	fc 91       	ld	r31, X
    15ee:	13 97       	sbiw	r26, 0x03	; 3
    15f0:	1a 96       	adiw	r26, 0x0a	; 10
    15f2:	8d 91       	ld	r24, X+
    15f4:	9c 91       	ld	r25, X
    15f6:	1b 97       	sbiw	r26, 0x0b	; 11
    15f8:	09 95       	icall
    15fa:	2f ef       	ldi	r18, 0xFF	; 255
    15fc:	83 ec       	ldi	r24, 0xC3	; 195
    15fe:	99 e0       	ldi	r25, 0x09	; 9
    1600:	21 50       	subi	r18, 0x01	; 1
    1602:	80 40       	sbci	r24, 0x00	; 0
    1604:	90 40       	sbci	r25, 0x00	; 0
    1606:	e1 f7       	brne	.-8      	; 0x1600 <navigate+0x18c>
    1608:	00 c0       	rjmp	.+0      	; 0x160a <navigate+0x196>
    160a:	00 00       	nop
		}
		_delay_ms(200);
	}
		
}
    160c:	df 91       	pop	r29
    160e:	cf 91       	pop	r28
    1610:	08 95       	ret

00001612 <oled_mode>:
	}
	oled_goto_pos(4,0);
	for (int j=0; j<1024; j++){
		ext_oled_data[j] = 0xff;
	}
	oled_mode(PAGE_MODE);
    1612:	e0 91 08 01 	lds	r30, 0x0108	; 0x800108 <ext_oled_command>
    1616:	f0 91 09 01 	lds	r31, 0x0109	; 0x800109 <ext_oled_command+0x1>
    161a:	90 e2       	ldi	r25, 0x20	; 32
    161c:	90 83       	st	Z, r25
    161e:	e0 91 08 01 	lds	r30, 0x0108	; 0x800108 <ext_oled_command>
    1622:	f0 91 09 01 	lds	r31, 0x0109	; 0x800109 <ext_oled_command+0x1>
    1626:	80 83       	st	Z, r24
    1628:	08 95       	ret

0000162a <oled_goto_page>:
    162a:	88 30       	cpi	r24, 0x08	; 8
    162c:	48 f0       	brcs	.+18     	; 0x1640 <oled_goto_page+0x16>
    162e:	88 e5       	ldi	r24, 0x58	; 88
    1630:	91 e0       	ldi	r25, 0x01	; 1
    1632:	9f 93       	push	r25
    1634:	8f 93       	push	r24
    1636:	0e 94 14 14 	call	0x2828	; 0x2828 <printf>
    163a:	0f 90       	pop	r0
    163c:	0f 90       	pop	r0
    163e:	08 95       	ret
    1640:	90 eb       	ldi	r25, 0xB0	; 176
    1642:	98 0f       	add	r25, r24
    1644:	e0 91 08 01 	lds	r30, 0x0108	; 0x800108 <ext_oled_command>
    1648:	f0 91 09 01 	lds	r31, 0x0109	; 0x800109 <ext_oled_command+0x1>
    164c:	90 83       	st	Z, r25
    164e:	90 e0       	ldi	r25, 0x00	; 0
    1650:	90 93 c5 01 	sts	0x01C5, r25	; 0x8001c5 <oled_position+0x1>
    1654:	80 93 c4 01 	sts	0x01C4, r24	; 0x8001c4 <oled_position>
    1658:	08 95       	ret

0000165a <oled_goto_col>:
    165a:	88 23       	and	r24, r24
    165c:	4c f4       	brge	.+18     	; 0x1670 <oled_goto_col+0x16>
    165e:	88 e5       	ldi	r24, 0x58	; 88
    1660:	91 e0       	ldi	r25, 0x01	; 1
    1662:	9f 93       	push	r25
    1664:	8f 93       	push	r24
    1666:	0e 94 14 14 	call	0x2828	; 0x2828 <printf>
    166a:	0f 90       	pop	r0
    166c:	0f 90       	pop	r0
    166e:	08 95       	ret
    1670:	28 2f       	mov	r18, r24
    1672:	2f 70       	andi	r18, 0x0F	; 15
    1674:	98 2f       	mov	r25, r24
    1676:	92 95       	swap	r25
    1678:	9f 70       	andi	r25, 0x0F	; 15
    167a:	90 5f       	subi	r25, 0xF0	; 240
    167c:	e0 91 08 01 	lds	r30, 0x0108	; 0x800108 <ext_oled_command>
    1680:	f0 91 09 01 	lds	r31, 0x0109	; 0x800109 <ext_oled_command+0x1>
    1684:	90 83       	st	Z, r25
    1686:	e0 91 08 01 	lds	r30, 0x0108	; 0x800108 <ext_oled_command>
    168a:	f0 91 09 01 	lds	r31, 0x0109	; 0x800109 <ext_oled_command+0x1>
    168e:	20 83       	st	Z, r18
    1690:	90 e0       	ldi	r25, 0x00	; 0
    1692:	90 93 c7 01 	sts	0x01C7, r25	; 0x8001c7 <oled_position+0x3>
    1696:	80 93 c6 01 	sts	0x01C6, r24	; 0x8001c6 <oled_position+0x2>
    169a:	08 95       	ret

0000169c <oled_goto_pos>:
    169c:	cf 93       	push	r28
    169e:	c6 2f       	mov	r28, r22
    16a0:	0e 94 15 0b 	call	0x162a	; 0x162a <oled_goto_page>
    16a4:	8c 2f       	mov	r24, r28
    16a6:	0e 94 2d 0b 	call	0x165a	; 0x165a <oled_goto_col>
    16aa:	cf 91       	pop	r28
    16ac:	08 95       	ret

000016ae <oled_home>:
    16ae:	60 e0       	ldi	r22, 0x00	; 0
    16b0:	80 e0       	ldi	r24, 0x00	; 0
    16b2:	0e 94 4e 0b 	call	0x169c	; 0x169c <oled_goto_pos>
    16b6:	08 95       	ret

000016b8 <oled_clear_page>:
    16b8:	60 e0       	ldi	r22, 0x00	; 0
    16ba:	0e 94 4e 0b 	call	0x169c	; 0x169c <oled_goto_pos>
    16be:	80 e0       	ldi	r24, 0x00	; 0
    16c0:	90 e0       	ldi	r25, 0x00	; 0
    16c2:	e0 91 06 01 	lds	r30, 0x0106	; 0x800106 <ext_oled_data>
    16c6:	f0 91 07 01 	lds	r31, 0x0107	; 0x800107 <ext_oled_data+0x1>
    16ca:	e8 0f       	add	r30, r24
    16cc:	f9 1f       	adc	r31, r25
    16ce:	10 82       	st	Z, r1
    16d0:	01 96       	adiw	r24, 0x01	; 1
    16d2:	80 38       	cpi	r24, 0x80	; 128
    16d4:	91 05       	cpc	r25, r1
    16d6:	a9 f7       	brne	.-22     	; 0x16c2 <oled_clear_page+0xa>
    16d8:	08 95       	ret

000016da <oled_clear_screen>:
    16da:	60 e0       	ldi	r22, 0x00	; 0
    16dc:	80 e0       	ldi	r24, 0x00	; 0
    16de:	0e 94 4e 0b 	call	0x169c	; 0x169c <oled_goto_pos>
    16e2:	80 e0       	ldi	r24, 0x00	; 0
    16e4:	0e 94 09 0b 	call	0x1612	; 0x1612 <oled_mode>
    16e8:	80 e0       	ldi	r24, 0x00	; 0
    16ea:	90 e0       	ldi	r25, 0x00	; 0
    16ec:	e0 91 06 01 	lds	r30, 0x0106	; 0x800106 <ext_oled_data>
    16f0:	f0 91 07 01 	lds	r31, 0x0107	; 0x800107 <ext_oled_data+0x1>
    16f4:	e8 0f       	add	r30, r24
    16f6:	f9 1f       	adc	r31, r25
    16f8:	10 82       	st	Z, r1
    16fa:	01 96       	adiw	r24, 0x01	; 1
    16fc:	81 15       	cp	r24, r1
    16fe:	24 e0       	ldi	r18, 0x04	; 4
    1700:	92 07       	cpc	r25, r18
    1702:	a1 f7       	brne	.-24     	; 0x16ec <oled_clear_screen+0x12>
    1704:	60 e0       	ldi	r22, 0x00	; 0
    1706:	84 e0       	ldi	r24, 0x04	; 4
    1708:	0e 94 4e 0b 	call	0x169c	; 0x169c <oled_goto_pos>
    170c:	80 e0       	ldi	r24, 0x00	; 0
    170e:	90 e0       	ldi	r25, 0x00	; 0
    1710:	e0 91 06 01 	lds	r30, 0x0106	; 0x800106 <ext_oled_data>
    1714:	f0 91 07 01 	lds	r31, 0x0107	; 0x800107 <ext_oled_data+0x1>
    1718:	e8 0f       	add	r30, r24
    171a:	f9 1f       	adc	r31, r25
    171c:	10 82       	st	Z, r1
    171e:	01 96       	adiw	r24, 0x01	; 1
    1720:	81 15       	cp	r24, r1
    1722:	24 e0       	ldi	r18, 0x04	; 4
    1724:	92 07       	cpc	r25, r18
    1726:	a1 f7       	brne	.-24     	; 0x1710 <oled_clear_screen+0x36>
    1728:	82 e0       	ldi	r24, 0x02	; 2
    172a:	0e 94 09 0b 	call	0x1612	; 0x1612 <oled_mode>
    172e:	08 95       	ret

00001730 <oled_reset>:
    1730:	0e 94 57 0b 	call	0x16ae	; 0x16ae <oled_home>
    1734:	0e 94 6d 0b 	call	0x16da	; 0x16da <oled_clear_screen>
    1738:	82 e0       	ldi	r24, 0x02	; 2
    173a:	0e 94 09 0b 	call	0x1612	; 0x1612 <oled_mode>
    173e:	08 95       	ret

00001740 <oled_write_char>:
}


void oled_write_char(char c, int fs){
	c=c-32;
    1740:	80 52       	subi	r24, 0x20	; 32
	
	switch(fs){
    1742:	64 30       	cpi	r22, 0x04	; 4
    1744:	71 05       	cpc	r23, r1
    1746:	09 f4       	brne	.+2      	; 0x174a <oled_write_char+0xa>
    1748:	70 c0       	rjmp	.+224    	; 0x182a <oled_write_char+0xea>
    174a:	1c f4       	brge	.+6      	; 0x1752 <oled_write_char+0x12>
    174c:	67 2b       	or	r22, r23
    174e:	89 f0       	breq	.+34     	; 0x1772 <oled_write_char+0x32>
    1750:	08 95       	ret
    1752:	66 30       	cpi	r22, 0x06	; 6
    1754:	71 05       	cpc	r23, r1
    1756:	09 f4       	brne	.+2      	; 0x175a <oled_write_char+0x1a>
    1758:	40 c0       	rjmp	.+128    	; 0x17da <oled_write_char+0x9a>
    175a:	68 30       	cpi	r22, 0x08	; 8
    175c:	71 05       	cpc	r23, r1
    175e:	09 f0       	breq	.+2      	; 0x1762 <oled_write_char+0x22>
    1760:	b3 c0       	rjmp	.+358    	; 0x18c8 <oled_write_char+0x188>
		case 8 :
			for(int i=0; i<fontsize;i++){
    1762:	20 91 0a 01 	lds	r18, 0x010A	; 0x80010a <fontsize>
    1766:	30 91 0b 01 	lds	r19, 0x010B	; 0x80010b <fontsize+0x1>
    176a:	12 16       	cp	r1, r18
    176c:	13 06       	cpc	r1, r19
    176e:	54 f0       	brlt	.+20     	; 0x1784 <oled_write_char+0x44>
    1770:	08 95       	ret
				oled_wrd(pgm_read_word(&font4[c][i]));
				oled_position.coloumn++;
			}
			break;
		case 0 :
			for(int i=0; i<fontsize;i++){
    1772:	20 91 0a 01 	lds	r18, 0x010A	; 0x80010a <fontsize>
    1776:	30 91 0b 01 	lds	r19, 0x010B	; 0x80010b <fontsize+0x1>
    177a:	12 16       	cp	r1, r18
    177c:	13 06       	cpc	r1, r19
    177e:	0c f4       	brge	.+2      	; 0x1782 <oled_write_char+0x42>
    1780:	79 c0       	rjmp	.+242    	; 0x1874 <oled_write_char+0x134>
    1782:	08 95       	ret
    1784:	90 e0       	ldi	r25, 0x00	; 0
    1786:	88 0f       	add	r24, r24
    1788:	99 1f       	adc	r25, r25
    178a:	88 0f       	add	r24, r24
    178c:	99 1f       	adc	r25, r25
    178e:	88 0f       	add	r24, r24
    1790:	99 1f       	adc	r25, r25
void oled_write_char(char c, int fs){
	c=c-32;
	
	switch(fs){
		case 8 :
			for(int i=0; i<fontsize;i++){
    1792:	20 e0       	ldi	r18, 0x00	; 0
    1794:	30 e0       	ldi	r19, 0x00	; 0
				oled_wrd(pgm_read_word(&font8[c][i]));
				oled_position.coloumn++;
    1796:	a4 ec       	ldi	r26, 0xC4	; 196
    1798:	b1 e0       	ldi	r27, 0x01	; 1
	c=c-32;
	
	switch(fs){
		case 8 :
			for(int i=0; i<fontsize;i++){
				oled_wrd(pgm_read_word(&font8[c][i]));
    179a:	f9 01       	movw	r30, r18
    179c:	e8 0f       	add	r30, r24
    179e:	f9 1f       	adc	r31, r25
    17a0:	e2 5e       	subi	r30, 0xE2	; 226
    17a2:	f8 4f       	sbci	r31, 0xF8	; 248
    17a4:	45 91       	lpm	r20, Z+
    17a6:	54 91       	lpm	r21, Z
void oled_wrc(uint8_t data){
	ext_oled_command[0] = data;
}
//oled write data
void oled_wrd(uint8_t data){
	ext_oled_data[0] = data;
    17a8:	e0 91 06 01 	lds	r30, 0x0106	; 0x800106 <ext_oled_data>
    17ac:	f0 91 07 01 	lds	r31, 0x0107	; 0x800107 <ext_oled_data+0x1>
    17b0:	40 83       	st	Z, r20
	
	switch(fs){
		case 8 :
			for(int i=0; i<fontsize;i++){
				oled_wrd(pgm_read_word(&font8[c][i]));
				oled_position.coloumn++;
    17b2:	12 96       	adiw	r26, 0x02	; 2
    17b4:	4d 91       	ld	r20, X+
    17b6:	5c 91       	ld	r21, X
    17b8:	13 97       	sbiw	r26, 0x03	; 3
    17ba:	4f 5f       	subi	r20, 0xFF	; 255
    17bc:	5f 4f       	sbci	r21, 0xFF	; 255
    17be:	13 96       	adiw	r26, 0x03	; 3
    17c0:	5c 93       	st	X, r21
    17c2:	4e 93       	st	-X, r20
    17c4:	12 97       	sbiw	r26, 0x02	; 2
void oled_write_char(char c, int fs){
	c=c-32;
	
	switch(fs){
		case 8 :
			for(int i=0; i<fontsize;i++){
    17c6:	2f 5f       	subi	r18, 0xFF	; 255
    17c8:	3f 4f       	sbci	r19, 0xFF	; 255
    17ca:	40 91 0a 01 	lds	r20, 0x010A	; 0x80010a <fontsize>
    17ce:	50 91 0b 01 	lds	r21, 0x010B	; 0x80010b <fontsize+0x1>
    17d2:	24 17       	cp	r18, r20
    17d4:	35 07       	cpc	r19, r21
    17d6:	0c f3       	brlt	.-62     	; 0x179a <oled_write_char+0x5a>
    17d8:	08 95       	ret
    17da:	90 e0       	ldi	r25, 0x00	; 0
    17dc:	9c 01       	movw	r18, r24
    17de:	22 0f       	add	r18, r18
    17e0:	33 1f       	adc	r19, r19
    17e2:	82 0f       	add	r24, r18
    17e4:	93 1f       	adc	r25, r19
    17e6:	88 0f       	add	r24, r24
    17e8:	99 1f       	adc	r25, r25


void oled_write_char(char c, int fs){
	c=c-32;
	
	switch(fs){
    17ea:	20 e0       	ldi	r18, 0x00	; 0
    17ec:	30 e0       	ldi	r19, 0x00	; 0
			}
			break;
		case 6 :
			for(int i=0; i<6;i++){
				oled_wrd(pgm_read_word(&font6[c][i]));
				oled_position.coloumn++;
    17ee:	a4 ec       	ldi	r26, 0xC4	; 196
    17f0:	b1 e0       	ldi	r27, 0x01	; 1
				oled_position.coloumn++;
			}
			break;
		case 6 :
			for(int i=0; i<6;i++){
				oled_wrd(pgm_read_word(&font6[c][i]));
    17f2:	f9 01       	movw	r30, r18
    17f4:	e8 0f       	add	r30, r24
    17f6:	f9 1f       	adc	r31, r25
    17f8:	ec 51       	subi	r30, 0x1C	; 28
    17fa:	fb 4f       	sbci	r31, 0xFB	; 251
    17fc:	45 91       	lpm	r20, Z+
    17fe:	54 91       	lpm	r21, Z
void oled_wrc(uint8_t data){
	ext_oled_command[0] = data;
}
//oled write data
void oled_wrd(uint8_t data){
	ext_oled_data[0] = data;
    1800:	e0 91 06 01 	lds	r30, 0x0106	; 0x800106 <ext_oled_data>
    1804:	f0 91 07 01 	lds	r31, 0x0107	; 0x800107 <ext_oled_data+0x1>
    1808:	40 83       	st	Z, r20
			}
			break;
		case 6 :
			for(int i=0; i<6;i++){
				oled_wrd(pgm_read_word(&font6[c][i]));
				oled_position.coloumn++;
    180a:	12 96       	adiw	r26, 0x02	; 2
    180c:	4d 91       	ld	r20, X+
    180e:	5c 91       	ld	r21, X
    1810:	13 97       	sbiw	r26, 0x03	; 3
    1812:	4f 5f       	subi	r20, 0xFF	; 255
    1814:	5f 4f       	sbci	r21, 0xFF	; 255
    1816:	13 96       	adiw	r26, 0x03	; 3
    1818:	5c 93       	st	X, r21
    181a:	4e 93       	st	-X, r20
    181c:	12 97       	sbiw	r26, 0x02	; 2
				oled_wrd(pgm_read_word(&font8[c][i]));
				oled_position.coloumn++;
			}
			break;
		case 6 :
			for(int i=0; i<6;i++){
    181e:	2f 5f       	subi	r18, 0xFF	; 255
    1820:	3f 4f       	sbci	r19, 0xFF	; 255
    1822:	26 30       	cpi	r18, 0x06	; 6
    1824:	31 05       	cpc	r19, r1
    1826:	29 f7       	brne	.-54     	; 0x17f2 <oled_write_char+0xb2>
    1828:	08 95       	ret
    182a:	90 e0       	ldi	r25, 0x00	; 0
    182c:	88 0f       	add	r24, r24
    182e:	99 1f       	adc	r25, r25
    1830:	88 0f       	add	r24, r24
    1832:	99 1f       	adc	r25, r25


void oled_write_char(char c, int fs){
	c=c-32;
	
	switch(fs){
    1834:	20 e0       	ldi	r18, 0x00	; 0
    1836:	30 e0       	ldi	r19, 0x00	; 0
			}
			break;
		case 4 :
			for(int i=0; i<4;i++){
				oled_wrd(pgm_read_word(&font4[c][i]));
				oled_position.coloumn++;
    1838:	a4 ec       	ldi	r26, 0xC4	; 196
    183a:	b1 e0       	ldi	r27, 0x01	; 1
				oled_position.coloumn++;
			}
			break;
		case 4 :
			for(int i=0; i<4;i++){
				oled_wrd(pgm_read_word(&font4[c][i]));
    183c:	f9 01       	movw	r30, r18
    183e:	e8 0f       	add	r30, r24
    1840:	f9 1f       	adc	r31, r25
    1842:	e8 59       	subi	r30, 0x98	; 152
    1844:	fc 4f       	sbci	r31, 0xFC	; 252
    1846:	45 91       	lpm	r20, Z+
    1848:	54 91       	lpm	r21, Z
void oled_wrc(uint8_t data){
	ext_oled_command[0] = data;
}
//oled write data
void oled_wrd(uint8_t data){
	ext_oled_data[0] = data;
    184a:	e0 91 06 01 	lds	r30, 0x0106	; 0x800106 <ext_oled_data>
    184e:	f0 91 07 01 	lds	r31, 0x0107	; 0x800107 <ext_oled_data+0x1>
    1852:	40 83       	st	Z, r20
			}
			break;
		case 4 :
			for(int i=0; i<4;i++){
				oled_wrd(pgm_read_word(&font4[c][i]));
				oled_position.coloumn++;
    1854:	12 96       	adiw	r26, 0x02	; 2
    1856:	4d 91       	ld	r20, X+
    1858:	5c 91       	ld	r21, X
    185a:	13 97       	sbiw	r26, 0x03	; 3
    185c:	4f 5f       	subi	r20, 0xFF	; 255
    185e:	5f 4f       	sbci	r21, 0xFF	; 255
    1860:	13 96       	adiw	r26, 0x03	; 3
    1862:	5c 93       	st	X, r21
    1864:	4e 93       	st	-X, r20
    1866:	12 97       	sbiw	r26, 0x02	; 2
				oled_wrd(pgm_read_word(&font6[c][i]));
				oled_position.coloumn++;
			}
			break;
		case 4 :
			for(int i=0; i<4;i++){
    1868:	2f 5f       	subi	r18, 0xFF	; 255
    186a:	3f 4f       	sbci	r19, 0xFF	; 255
    186c:	24 30       	cpi	r18, 0x04	; 4
    186e:	31 05       	cpc	r19, r1
    1870:	29 f7       	brne	.-54     	; 0x183c <oled_write_char+0xfc>
    1872:	08 95       	ret
    1874:	90 e0       	ldi	r25, 0x00	; 0
    1876:	88 0f       	add	r24, r24
    1878:	99 1f       	adc	r25, r25
    187a:	88 0f       	add	r24, r24
    187c:	99 1f       	adc	r25, r25
    187e:	88 0f       	add	r24, r24
    1880:	99 1f       	adc	r25, r25
				oled_wrd(pgm_read_word(&font4[c][i]));
				oled_position.coloumn++;
			}
			break;
		case 0 :
			for(int i=0; i<fontsize;i++){
    1882:	40 e0       	ldi	r20, 0x00	; 0
    1884:	50 e0       	ldi	r21, 0x00	; 0
				oled_wrd(pgm_read_word(&font_animation[c][i]));
				oled_position.coloumn++;
    1886:	a4 ec       	ldi	r26, 0xC4	; 196
    1888:	b1 e0       	ldi	r27, 0x01	; 1
				oled_position.coloumn++;
			}
			break;
		case 0 :
			for(int i=0; i<fontsize;i++){
				oled_wrd(pgm_read_word(&font_animation[c][i]));
    188a:	fa 01       	movw	r30, r20
    188c:	e8 0f       	add	r30, r24
    188e:	f9 1f       	adc	r31, r25
    1890:	e0 59       	subi	r30, 0x90	; 144
    1892:	ff 4f       	sbci	r31, 0xFF	; 255
    1894:	25 91       	lpm	r18, Z+
    1896:	34 91       	lpm	r19, Z
void oled_wrc(uint8_t data){
	ext_oled_command[0] = data;
}
//oled write data
void oled_wrd(uint8_t data){
	ext_oled_data[0] = data;
    1898:	e0 91 06 01 	lds	r30, 0x0106	; 0x800106 <ext_oled_data>
    189c:	f0 91 07 01 	lds	r31, 0x0107	; 0x800107 <ext_oled_data+0x1>
    18a0:	20 83       	st	Z, r18
			}
			break;
		case 0 :
			for(int i=0; i<fontsize;i++){
				oled_wrd(pgm_read_word(&font_animation[c][i]));
				oled_position.coloumn++;
    18a2:	12 96       	adiw	r26, 0x02	; 2
    18a4:	2d 91       	ld	r18, X+
    18a6:	3c 91       	ld	r19, X
    18a8:	13 97       	sbiw	r26, 0x03	; 3
    18aa:	2f 5f       	subi	r18, 0xFF	; 255
    18ac:	3f 4f       	sbci	r19, 0xFF	; 255
    18ae:	13 96       	adiw	r26, 0x03	; 3
    18b0:	3c 93       	st	X, r19
    18b2:	2e 93       	st	-X, r18
    18b4:	12 97       	sbiw	r26, 0x02	; 2
				oled_wrd(pgm_read_word(&font4[c][i]));
				oled_position.coloumn++;
			}
			break;
		case 0 :
			for(int i=0; i<fontsize;i++){
    18b6:	4f 5f       	subi	r20, 0xFF	; 255
    18b8:	5f 4f       	sbci	r21, 0xFF	; 255
    18ba:	20 91 0a 01 	lds	r18, 0x010A	; 0x80010a <fontsize>
    18be:	30 91 0b 01 	lds	r19, 0x010B	; 0x80010b <fontsize+0x1>
    18c2:	42 17       	cp	r20, r18
    18c4:	53 07       	cpc	r21, r19
    18c6:	0c f3       	brlt	.-62     	; 0x188a <oled_write_char+0x14a>
    18c8:	08 95       	ret

000018ca <oled_print>:
	
}



void oled_print(char* word, int fs){
    18ca:	cf 92       	push	r12
    18cc:	df 92       	push	r13
    18ce:	ef 92       	push	r14
    18d0:	ff 92       	push	r15
    18d2:	0f 93       	push	r16
    18d4:	1f 93       	push	r17
    18d6:	cf 93       	push	r28
    18d8:	df 93       	push	r29
    18da:	ec 01       	movw	r28, r24
    18dc:	7b 01       	movw	r14, r22
    18de:	8c 01       	movw	r16, r24
	for( int i = 0; i < strlen(word); i++){
    18e0:	c1 2c       	mov	r12, r1
    18e2:	d1 2c       	mov	r13, r1
    18e4:	09 c0       	rjmp	.+18     	; 0x18f8 <oled_print+0x2e>
		oled_write_char(word[i], fs);
    18e6:	b7 01       	movw	r22, r14
    18e8:	f8 01       	movw	r30, r16
    18ea:	81 91       	ld	r24, Z+
    18ec:	8f 01       	movw	r16, r30
    18ee:	0e 94 a0 0b 	call	0x1740	; 0x1740 <oled_write_char>
}



void oled_print(char* word, int fs){
	for( int i = 0; i < strlen(word); i++){
    18f2:	ff ef       	ldi	r31, 0xFF	; 255
    18f4:	cf 1a       	sub	r12, r31
    18f6:	df 0a       	sbc	r13, r31
    18f8:	fe 01       	movw	r30, r28
    18fa:	01 90       	ld	r0, Z+
    18fc:	00 20       	and	r0, r0
    18fe:	e9 f7       	brne	.-6      	; 0x18fa <oled_print+0x30>
    1900:	31 97       	sbiw	r30, 0x01	; 1
    1902:	ec 1b       	sub	r30, r28
    1904:	fd 0b       	sbc	r31, r29
    1906:	ce 16       	cp	r12, r30
    1908:	df 06       	cpc	r13, r31
    190a:	68 f3       	brcs	.-38     	; 0x18e6 <oled_print+0x1c>
		oled_write_char(word[i], fs);
	}
}
    190c:	df 91       	pop	r29
    190e:	cf 91       	pop	r28
    1910:	1f 91       	pop	r17
    1912:	0f 91       	pop	r16
    1914:	ff 90       	pop	r15
    1916:	ef 90       	pop	r14
    1918:	df 90       	pop	r13
    191a:	cf 90       	pop	r12
    191c:	08 95       	ret

0000191e <oled_center_print>:

void oled_center_print(char* word, int fs){
    191e:	0f 93       	push	r16
    1920:	1f 93       	push	r17
    1922:	cf 93       	push	r28
    1924:	df 93       	push	r29
    1926:	ec 01       	movw	r28, r24
    1928:	8b 01       	movw	r16, r22
	oled_goto_col(63-(strlen(word)*fs/2));
    192a:	fc 01       	movw	r30, r24
    192c:	01 90       	ld	r0, Z+
    192e:	00 20       	and	r0, r0
    1930:	e9 f7       	brne	.-6      	; 0x192c <oled_center_print+0xe>
    1932:	31 97       	sbiw	r30, 0x01	; 1
    1934:	e8 1b       	sub	r30, r24
    1936:	f9 0b       	sbc	r31, r25
    1938:	6e 9f       	mul	r22, r30
    193a:	90 01       	movw	r18, r0
    193c:	6f 9f       	mul	r22, r31
    193e:	30 0d       	add	r19, r0
    1940:	7e 9f       	mul	r23, r30
    1942:	30 0d       	add	r19, r0
    1944:	11 24       	eor	r1, r1
    1946:	36 95       	lsr	r19
    1948:	27 95       	ror	r18
    194a:	8f e3       	ldi	r24, 0x3F	; 63
    194c:	82 1b       	sub	r24, r18
    194e:	0e 94 2d 0b 	call	0x165a	; 0x165a <oled_goto_col>
	oled_print(word, fs);
    1952:	b8 01       	movw	r22, r16
    1954:	ce 01       	movw	r24, r28
    1956:	0e 94 65 0c 	call	0x18ca	; 0x18ca <oled_print>
}
    195a:	df 91       	pop	r29
    195c:	cf 91       	pop	r28
    195e:	1f 91       	pop	r17
    1960:	0f 91       	pop	r16
    1962:	08 95       	ret

00001964 <oled_arrow>:

char* oled_arrow(char* name){
    1964:	0f 93       	push	r16
    1966:	1f 93       	push	r17
    1968:	cf 93       	push	r28
    196a:	df 93       	push	r29
    196c:	8c 01       	movw	r16, r24
	char* str = malloc(sizeof(char)*20);
    196e:	84 e1       	ldi	r24, 0x14	; 20
    1970:	90 e0       	ldi	r25, 0x00	; 0
    1972:	0e 94 c7 11 	call	0x238e	; 0x238e <malloc>
    1976:	ec 01       	movw	r28, r24
	strcpy(str,">");
    1978:	8e e3       	ldi	r24, 0x3E	; 62
    197a:	90 e0       	ldi	r25, 0x00	; 0
    197c:	99 83       	std	Y+1, r25	; 0x01
    197e:	88 83       	st	Y, r24
	strcat(str,name);
    1980:	b8 01       	movw	r22, r16
    1982:	ce 01       	movw	r24, r28
    1984:	0e 94 be 13 	call	0x277c	; 0x277c <strcat>
	strcat(str,"<");
    1988:	fe 01       	movw	r30, r28
    198a:	01 90       	ld	r0, Z+
    198c:	00 20       	and	r0, r0
    198e:	e9 f7       	brne	.-6      	; 0x198a <oled_arrow+0x26>
    1990:	31 97       	sbiw	r30, 0x01	; 1
    1992:	8c e3       	ldi	r24, 0x3C	; 60
    1994:	90 e0       	ldi	r25, 0x00	; 0
    1996:	91 83       	std	Z+1, r25	; 0x01
    1998:	80 83       	st	Z, r24
	return str;
}
    199a:	ce 01       	movw	r24, r28
    199c:	df 91       	pop	r29
    199e:	cf 91       	pop	r28
    19a0:	1f 91       	pop	r17
    19a2:	0f 91       	pop	r16
    19a4:	08 95       	ret

000019a6 <oled_animation_frame>:

void oled_animation_frame(char c, int col,char c1,int col1){
    19a6:	1f 93       	push	r17
    19a8:	cf 93       	push	r28
    19aa:	df 93       	push	r29
    19ac:	18 2f       	mov	r17, r24
    19ae:	86 2f       	mov	r24, r22
    19b0:	d4 2f       	mov	r29, r20
    19b2:	c2 2f       	mov	r28, r18
	oled_goto_col(col);
    19b4:	0e 94 2d 0b 	call	0x165a	; 0x165a <oled_goto_col>
	oled_write_char(c,0);
    19b8:	60 e0       	ldi	r22, 0x00	; 0
    19ba:	70 e0       	ldi	r23, 0x00	; 0
    19bc:	81 2f       	mov	r24, r17
    19be:	0e 94 a0 0b 	call	0x1740	; 0x1740 <oled_write_char>
	oled_goto_col(col1);
    19c2:	8c 2f       	mov	r24, r28
    19c4:	0e 94 2d 0b 	call	0x165a	; 0x165a <oled_goto_col>
	oled_write_char(c1,0);
    19c8:	60 e0       	ldi	r22, 0x00	; 0
    19ca:	70 e0       	ldi	r23, 0x00	; 0
    19cc:	8d 2f       	mov	r24, r29
    19ce:	0e 94 a0 0b 	call	0x1740	; 0x1740 <oled_write_char>
    19d2:	83 ed       	ldi	r24, 0xD3	; 211
    19d4:	90 e3       	ldi	r25, 0x30	; 48
    19d6:	01 97       	sbiw	r24, 0x01	; 1
    19d8:	f1 f7       	brne	.-4      	; 0x19d6 <oled_animation_frame+0x30>
    19da:	00 c0       	rjmp	.+0      	; 0x19dc <oled_animation_frame+0x36>
    19dc:	00 00       	nop
	_delay_ms(50);
	oled_goto_col(col1);
    19de:	8c 2f       	mov	r24, r28
    19e0:	0e 94 2d 0b 	call	0x165a	; 0x165a <oled_goto_col>
	oled_write_char('H',0);
    19e4:	60 e0       	ldi	r22, 0x00	; 0
    19e6:	70 e0       	ldi	r23, 0x00	; 0
    19e8:	88 e4       	ldi	r24, 0x48	; 72
    19ea:	0e 94 a0 0b 	call	0x1740	; 0x1740 <oled_write_char>
}
    19ee:	df 91       	pop	r29
    19f0:	cf 91       	pop	r28
    19f2:	1f 91       	pop	r17
    19f4:	08 95       	ret

000019f6 <oled_animation>:

void oled_animation(int page){
    19f6:	0f 93       	push	r16
    19f8:	1f 93       	push	r17
    19fa:	cf 93       	push	r28
	oled_goto_page(page);
    19fc:	0e 94 15 0b 	call	0x162a	; 0x162a <oled_goto_page>
	oled_goto_col(120);
    1a00:	88 e7       	ldi	r24, 0x78	; 120
    1a02:	0e 94 2d 0b 	call	0x165a	; 0x165a <oled_goto_col>
	oled_write_char('J',0);
    1a06:	60 e0       	ldi	r22, 0x00	; 0
    1a08:	70 e0       	ldi	r23, 0x00	; 0
    1a0a:	8a e4       	ldi	r24, 0x4A	; 74
    1a0c:	0e 94 a0 0b 	call	0x1740	; 0x1740 <oled_write_char>
    1a10:	03 e0       	ldi	r16, 0x03	; 3
    1a12:	10 e0       	ldi	r17, 0x00	; 0
	for( int i = 0; i < 3; i++){
		oled_animation_frame('A',0,'I',2);
    1a14:	22 e0       	ldi	r18, 0x02	; 2
    1a16:	30 e0       	ldi	r19, 0x00	; 0
    1a18:	49 e4       	ldi	r20, 0x49	; 73
    1a1a:	60 e0       	ldi	r22, 0x00	; 0
    1a1c:	70 e0       	ldi	r23, 0x00	; 0
    1a1e:	81 e4       	ldi	r24, 0x41	; 65
    1a20:	0e 94 d3 0c 	call	0x19a6	; 0x19a6 <oled_animation_frame>
		oled_animation_frame('B',0,'I',3);
    1a24:	23 e0       	ldi	r18, 0x03	; 3
    1a26:	30 e0       	ldi	r19, 0x00	; 0
    1a28:	49 e4       	ldi	r20, 0x49	; 73
    1a2a:	60 e0       	ldi	r22, 0x00	; 0
    1a2c:	70 e0       	ldi	r23, 0x00	; 0
    1a2e:	82 e4       	ldi	r24, 0x42	; 66
    1a30:	0e 94 d3 0c 	call	0x19a6	; 0x19a6 <oled_animation_frame>
		oled_animation_frame('C',0,'I',4);
    1a34:	24 e0       	ldi	r18, 0x04	; 4
    1a36:	30 e0       	ldi	r19, 0x00	; 0
    1a38:	49 e4       	ldi	r20, 0x49	; 73
    1a3a:	60 e0       	ldi	r22, 0x00	; 0
    1a3c:	70 e0       	ldi	r23, 0x00	; 0
    1a3e:	83 e4       	ldi	r24, 0x43	; 67
    1a40:	0e 94 d3 0c 	call	0x19a6	; 0x19a6 <oled_animation_frame>
		oled_animation_frame('D',0,'I',5);
    1a44:	25 e0       	ldi	r18, 0x05	; 5
    1a46:	30 e0       	ldi	r19, 0x00	; 0
    1a48:	49 e4       	ldi	r20, 0x49	; 73
    1a4a:	60 e0       	ldi	r22, 0x00	; 0
    1a4c:	70 e0       	ldi	r23, 0x00	; 0
    1a4e:	84 e4       	ldi	r24, 0x44	; 68
    1a50:	0e 94 d3 0c 	call	0x19a6	; 0x19a6 <oled_animation_frame>
		oled_animation_frame('E',0,'I',6);
    1a54:	26 e0       	ldi	r18, 0x06	; 6
    1a56:	30 e0       	ldi	r19, 0x00	; 0
    1a58:	49 e4       	ldi	r20, 0x49	; 73
    1a5a:	60 e0       	ldi	r22, 0x00	; 0
    1a5c:	70 e0       	ldi	r23, 0x00	; 0
    1a5e:	85 e4       	ldi	r24, 0x45	; 69
    1a60:	0e 94 d3 0c 	call	0x19a6	; 0x19a6 <oled_animation_frame>
		oled_animation_frame('F',0,'I',7);
    1a64:	27 e0       	ldi	r18, 0x07	; 7
    1a66:	30 e0       	ldi	r19, 0x00	; 0
    1a68:	49 e4       	ldi	r20, 0x49	; 73
    1a6a:	60 e0       	ldi	r22, 0x00	; 0
    1a6c:	70 e0       	ldi	r23, 0x00	; 0
    1a6e:	86 e4       	ldi	r24, 0x46	; 70
    1a70:	0e 94 d3 0c 	call	0x19a6	; 0x19a6 <oled_animation_frame>
		oled_animation_frame('G',0,'I',8);
    1a74:	28 e0       	ldi	r18, 0x08	; 8
    1a76:	30 e0       	ldi	r19, 0x00	; 0
    1a78:	49 e4       	ldi	r20, 0x49	; 73
    1a7a:	60 e0       	ldi	r22, 0x00	; 0
    1a7c:	70 e0       	ldi	r23, 0x00	; 0
    1a7e:	87 e4       	ldi	r24, 0x47	; 71
    1a80:	0e 94 d3 0c 	call	0x19a6	; 0x19a6 <oled_animation_frame>
		oled_animation_frame('F',0,'I',9);
    1a84:	29 e0       	ldi	r18, 0x09	; 9
    1a86:	30 e0       	ldi	r19, 0x00	; 0
    1a88:	49 e4       	ldi	r20, 0x49	; 73
    1a8a:	60 e0       	ldi	r22, 0x00	; 0
    1a8c:	70 e0       	ldi	r23, 0x00	; 0
    1a8e:	86 e4       	ldi	r24, 0x46	; 70
    1a90:	0e 94 d3 0c 	call	0x19a6	; 0x19a6 <oled_animation_frame>
		oled_animation_frame('E',0,'I',10);
    1a94:	2a e0       	ldi	r18, 0x0A	; 10
    1a96:	30 e0       	ldi	r19, 0x00	; 0
    1a98:	49 e4       	ldi	r20, 0x49	; 73
    1a9a:	60 e0       	ldi	r22, 0x00	; 0
    1a9c:	70 e0       	ldi	r23, 0x00	; 0
    1a9e:	85 e4       	ldi	r24, 0x45	; 69
    1aa0:	0e 94 d3 0c 	call	0x19a6	; 0x19a6 <oled_animation_frame>
		oled_animation_frame('D',0,'I',11);
    1aa4:	2b e0       	ldi	r18, 0x0B	; 11
    1aa6:	30 e0       	ldi	r19, 0x00	; 0
    1aa8:	49 e4       	ldi	r20, 0x49	; 73
    1aaa:	60 e0       	ldi	r22, 0x00	; 0
    1aac:	70 e0       	ldi	r23, 0x00	; 0
    1aae:	84 e4       	ldi	r24, 0x44	; 68
    1ab0:	0e 94 d3 0c 	call	0x19a6	; 0x19a6 <oled_animation_frame>
		oled_animation_frame('C',0,'I',12);
    1ab4:	2c e0       	ldi	r18, 0x0C	; 12
    1ab6:	30 e0       	ldi	r19, 0x00	; 0
    1ab8:	49 e4       	ldi	r20, 0x49	; 73
    1aba:	60 e0       	ldi	r22, 0x00	; 0
    1abc:	70 e0       	ldi	r23, 0x00	; 0
    1abe:	83 e4       	ldi	r24, 0x43	; 67
    1ac0:	0e 94 d3 0c 	call	0x19a6	; 0x19a6 <oled_animation_frame>
		oled_animation_frame('B',0,'I',13);
    1ac4:	2d e0       	ldi	r18, 0x0D	; 13
    1ac6:	30 e0       	ldi	r19, 0x00	; 0
    1ac8:	49 e4       	ldi	r20, 0x49	; 73
    1aca:	60 e0       	ldi	r22, 0x00	; 0
    1acc:	70 e0       	ldi	r23, 0x00	; 0
    1ace:	82 e4       	ldi	r24, 0x42	; 66
    1ad0:	0e 94 d3 0c 	call	0x19a6	; 0x19a6 <oled_animation_frame>
		oled_animation_frame('A',0,'I',14);
    1ad4:	2e e0       	ldi	r18, 0x0E	; 14
    1ad6:	30 e0       	ldi	r19, 0x00	; 0
    1ad8:	49 e4       	ldi	r20, 0x49	; 73
    1ada:	60 e0       	ldi	r22, 0x00	; 0
    1adc:	70 e0       	ldi	r23, 0x00	; 0
    1ade:	81 e4       	ldi	r24, 0x41	; 65
    1ae0:	0e 94 d3 0c 	call	0x19a6	; 0x19a6 <oled_animation_frame>
    1ae4:	cf e0       	ldi	r28, 0x0F	; 15
		
		for(int i=15; i<118; i++){
			oled_goto_col(i);
    1ae6:	8c 2f       	mov	r24, r28
    1ae8:	0e 94 2d 0b 	call	0x165a	; 0x165a <oled_goto_col>
			oled_write_char('I',0);
    1aec:	60 e0       	ldi	r22, 0x00	; 0
    1aee:	70 e0       	ldi	r23, 0x00	; 0
    1af0:	89 e4       	ldi	r24, 0x49	; 73
    1af2:	0e 94 a0 0b 	call	0x1740	; 0x1740 <oled_write_char>
    1af6:	83 ed       	ldi	r24, 0xD3	; 211
    1af8:	90 e3       	ldi	r25, 0x30	; 48
    1afa:	01 97       	sbiw	r24, 0x01	; 1
    1afc:	f1 f7       	brne	.-4      	; 0x1afa <oled_animation+0x104>
    1afe:	00 c0       	rjmp	.+0      	; 0x1b00 <oled_animation+0x10a>
    1b00:	00 00       	nop
			_delay_ms(50);
			oled_goto_col(i);
    1b02:	8c 2f       	mov	r24, r28
    1b04:	0e 94 2d 0b 	call	0x165a	; 0x165a <oled_goto_col>
			oled_write_char('H',0);
    1b08:	60 e0       	ldi	r22, 0x00	; 0
    1b0a:	70 e0       	ldi	r23, 0x00	; 0
    1b0c:	88 e4       	ldi	r24, 0x48	; 72
    1b0e:	0e 94 a0 0b 	call	0x1740	; 0x1740 <oled_write_char>
    1b12:	cf 5f       	subi	r28, 0xFF	; 255
		oled_animation_frame('D',0,'I',11);
		oled_animation_frame('C',0,'I',12);
		oled_animation_frame('B',0,'I',13);
		oled_animation_frame('A',0,'I',14);
		
		for(int i=15; i<118; i++){
    1b14:	c6 37       	cpi	r28, 0x76	; 118
    1b16:	39 f7       	brne	.-50     	; 0x1ae6 <oled_animation+0xf0>
			_delay_ms(50);
			oled_goto_col(i);
			oled_write_char('H',0);
		}

		oled_animation_frame('J',120,'I',118);
    1b18:	26 e7       	ldi	r18, 0x76	; 118
    1b1a:	30 e0       	ldi	r19, 0x00	; 0
    1b1c:	49 e4       	ldi	r20, 0x49	; 73
    1b1e:	68 e7       	ldi	r22, 0x78	; 120
    1b20:	70 e0       	ldi	r23, 0x00	; 0
    1b22:	8a e4       	ldi	r24, 0x4A	; 74
    1b24:	0e 94 d3 0c 	call	0x19a6	; 0x19a6 <oled_animation_frame>
		oled_animation_frame('K',120,'I',117);
    1b28:	25 e7       	ldi	r18, 0x75	; 117
    1b2a:	30 e0       	ldi	r19, 0x00	; 0
    1b2c:	49 e4       	ldi	r20, 0x49	; 73
    1b2e:	68 e7       	ldi	r22, 0x78	; 120
    1b30:	70 e0       	ldi	r23, 0x00	; 0
    1b32:	8b e4       	ldi	r24, 0x4B	; 75
    1b34:	0e 94 d3 0c 	call	0x19a6	; 0x19a6 <oled_animation_frame>
		oled_animation_frame('L',120,'I',116);
    1b38:	24 e7       	ldi	r18, 0x74	; 116
    1b3a:	30 e0       	ldi	r19, 0x00	; 0
    1b3c:	49 e4       	ldi	r20, 0x49	; 73
    1b3e:	68 e7       	ldi	r22, 0x78	; 120
    1b40:	70 e0       	ldi	r23, 0x00	; 0
    1b42:	8c e4       	ldi	r24, 0x4C	; 76
    1b44:	0e 94 d3 0c 	call	0x19a6	; 0x19a6 <oled_animation_frame>
		oled_animation_frame('M',120,'I',115);
    1b48:	23 e7       	ldi	r18, 0x73	; 115
    1b4a:	30 e0       	ldi	r19, 0x00	; 0
    1b4c:	49 e4       	ldi	r20, 0x49	; 73
    1b4e:	68 e7       	ldi	r22, 0x78	; 120
    1b50:	70 e0       	ldi	r23, 0x00	; 0
    1b52:	8d e4       	ldi	r24, 0x4D	; 77
    1b54:	0e 94 d3 0c 	call	0x19a6	; 0x19a6 <oled_animation_frame>
		oled_animation_frame('N',120,'I',114);
    1b58:	22 e7       	ldi	r18, 0x72	; 114
    1b5a:	30 e0       	ldi	r19, 0x00	; 0
    1b5c:	49 e4       	ldi	r20, 0x49	; 73
    1b5e:	68 e7       	ldi	r22, 0x78	; 120
    1b60:	70 e0       	ldi	r23, 0x00	; 0
    1b62:	8e e4       	ldi	r24, 0x4E	; 78
    1b64:	0e 94 d3 0c 	call	0x19a6	; 0x19a6 <oled_animation_frame>
		oled_animation_frame('O',120,'I',113);
    1b68:	21 e7       	ldi	r18, 0x71	; 113
    1b6a:	30 e0       	ldi	r19, 0x00	; 0
    1b6c:	49 e4       	ldi	r20, 0x49	; 73
    1b6e:	68 e7       	ldi	r22, 0x78	; 120
    1b70:	70 e0       	ldi	r23, 0x00	; 0
    1b72:	8f e4       	ldi	r24, 0x4F	; 79
    1b74:	0e 94 d3 0c 	call	0x19a6	; 0x19a6 <oled_animation_frame>
		oled_animation_frame('P',120,'I',112);
    1b78:	20 e7       	ldi	r18, 0x70	; 112
    1b7a:	30 e0       	ldi	r19, 0x00	; 0
    1b7c:	49 e4       	ldi	r20, 0x49	; 73
    1b7e:	68 e7       	ldi	r22, 0x78	; 120
    1b80:	70 e0       	ldi	r23, 0x00	; 0
    1b82:	80 e5       	ldi	r24, 0x50	; 80
    1b84:	0e 94 d3 0c 	call	0x19a6	; 0x19a6 <oled_animation_frame>
		oled_animation_frame('O',120,'I',111);
    1b88:	2f e6       	ldi	r18, 0x6F	; 111
    1b8a:	30 e0       	ldi	r19, 0x00	; 0
    1b8c:	49 e4       	ldi	r20, 0x49	; 73
    1b8e:	68 e7       	ldi	r22, 0x78	; 120
    1b90:	70 e0       	ldi	r23, 0x00	; 0
    1b92:	8f e4       	ldi	r24, 0x4F	; 79
    1b94:	0e 94 d3 0c 	call	0x19a6	; 0x19a6 <oled_animation_frame>
		oled_animation_frame('N',120,'I',110);
    1b98:	2e e6       	ldi	r18, 0x6E	; 110
    1b9a:	30 e0       	ldi	r19, 0x00	; 0
    1b9c:	49 e4       	ldi	r20, 0x49	; 73
    1b9e:	68 e7       	ldi	r22, 0x78	; 120
    1ba0:	70 e0       	ldi	r23, 0x00	; 0
    1ba2:	8e e4       	ldi	r24, 0x4E	; 78
    1ba4:	0e 94 d3 0c 	call	0x19a6	; 0x19a6 <oled_animation_frame>
		oled_animation_frame('M',120,'I',109);
    1ba8:	2d e6       	ldi	r18, 0x6D	; 109
    1baa:	30 e0       	ldi	r19, 0x00	; 0
    1bac:	49 e4       	ldi	r20, 0x49	; 73
    1bae:	68 e7       	ldi	r22, 0x78	; 120
    1bb0:	70 e0       	ldi	r23, 0x00	; 0
    1bb2:	8d e4       	ldi	r24, 0x4D	; 77
    1bb4:	0e 94 d3 0c 	call	0x19a6	; 0x19a6 <oled_animation_frame>
		oled_animation_frame('L',120,'I',108);
    1bb8:	2c e6       	ldi	r18, 0x6C	; 108
    1bba:	30 e0       	ldi	r19, 0x00	; 0
    1bbc:	49 e4       	ldi	r20, 0x49	; 73
    1bbe:	68 e7       	ldi	r22, 0x78	; 120
    1bc0:	70 e0       	ldi	r23, 0x00	; 0
    1bc2:	8c e4       	ldi	r24, 0x4C	; 76
    1bc4:	0e 94 d3 0c 	call	0x19a6	; 0x19a6 <oled_animation_frame>
		oled_animation_frame('K',120,'I',107);
    1bc8:	2b e6       	ldi	r18, 0x6B	; 107
    1bca:	30 e0       	ldi	r19, 0x00	; 0
    1bcc:	49 e4       	ldi	r20, 0x49	; 73
    1bce:	68 e7       	ldi	r22, 0x78	; 120
    1bd0:	70 e0       	ldi	r23, 0x00	; 0
    1bd2:	8b e4       	ldi	r24, 0x4B	; 75
    1bd4:	0e 94 d3 0c 	call	0x19a6	; 0x19a6 <oled_animation_frame>
		oled_animation_frame('J',120,'I',106);
    1bd8:	2a e6       	ldi	r18, 0x6A	; 106
    1bda:	30 e0       	ldi	r19, 0x00	; 0
    1bdc:	49 e4       	ldi	r20, 0x49	; 73
    1bde:	68 e7       	ldi	r22, 0x78	; 120
    1be0:	70 e0       	ldi	r23, 0x00	; 0
    1be2:	8a e4       	ldi	r24, 0x4A	; 74
    1be4:	0e 94 d3 0c 	call	0x19a6	; 0x19a6 <oled_animation_frame>
    1be8:	c9 e6       	ldi	r28, 0x69	; 105
		for(int i=105; i>1; i--){
			oled_goto_col(i);
    1bea:	8c 2f       	mov	r24, r28
    1bec:	0e 94 2d 0b 	call	0x165a	; 0x165a <oled_goto_col>
			oled_write_char('I',0);
    1bf0:	60 e0       	ldi	r22, 0x00	; 0
    1bf2:	70 e0       	ldi	r23, 0x00	; 0
    1bf4:	89 e4       	ldi	r24, 0x49	; 73
    1bf6:	0e 94 a0 0b 	call	0x1740	; 0x1740 <oled_write_char>
    1bfa:	83 ed       	ldi	r24, 0xD3	; 211
    1bfc:	90 e3       	ldi	r25, 0x30	; 48
    1bfe:	01 97       	sbiw	r24, 0x01	; 1
    1c00:	f1 f7       	brne	.-4      	; 0x1bfe <oled_animation+0x208>
    1c02:	00 c0       	rjmp	.+0      	; 0x1c04 <oled_animation+0x20e>
    1c04:	00 00       	nop
			_delay_ms(50);
			oled_goto_col(i);
    1c06:	8c 2f       	mov	r24, r28
    1c08:	0e 94 2d 0b 	call	0x165a	; 0x165a <oled_goto_col>
			oled_write_char('H',0);
    1c0c:	60 e0       	ldi	r22, 0x00	; 0
    1c0e:	70 e0       	ldi	r23, 0x00	; 0
    1c10:	88 e4       	ldi	r24, 0x48	; 72
    1c12:	0e 94 a0 0b 	call	0x1740	; 0x1740 <oled_write_char>
    1c16:	c1 50       	subi	r28, 0x01	; 1
		oled_animation_frame('N',120,'I',110);
		oled_animation_frame('M',120,'I',109);
		oled_animation_frame('L',120,'I',108);
		oled_animation_frame('K',120,'I',107);
		oled_animation_frame('J',120,'I',106);
		for(int i=105; i>1; i--){
    1c18:	c1 30       	cpi	r28, 0x01	; 1
    1c1a:	39 f7       	brne	.-50     	; 0x1bea <oled_animation+0x1f4>
    1c1c:	01 50       	subi	r16, 0x01	; 1
    1c1e:	11 09       	sbc	r17, r1

void oled_animation(int page){
	oled_goto_page(page);
	oled_goto_col(120);
	oled_write_char('J',0);
	for( int i = 0; i < 3; i++){
    1c20:	09 f0       	breq	.+2      	; 0x1c24 <oled_animation+0x22e>
    1c22:	f8 ce       	rjmp	.-528    	; 0x1a14 <oled_animation+0x1e>
			_delay_ms(50);
			oled_goto_col(i);
			oled_write_char('H',0);
		}
	}
}
    1c24:	cf 91       	pop	r28
    1c26:	1f 91       	pop	r17
    1c28:	0f 91       	pop	r16
    1c2a:	08 95       	ret

00001c2c <oled_init>:
int fontsize = 8;


//oled write command
void oled_wrc(uint8_t data){
	ext_oled_command[0] = data;
    1c2c:	e0 91 08 01 	lds	r30, 0x0108	; 0x800108 <ext_oled_command>
    1c30:	f0 91 09 01 	lds	r31, 0x0109	; 0x800109 <ext_oled_command+0x1>
    1c34:	8e ea       	ldi	r24, 0xAE	; 174
    1c36:	80 83       	st	Z, r24
    1c38:	e0 91 08 01 	lds	r30, 0x0108	; 0x800108 <ext_oled_command>
    1c3c:	f0 91 09 01 	lds	r31, 0x0109	; 0x800109 <ext_oled_command+0x1>
    1c40:	81 ea       	ldi	r24, 0xA1	; 161
    1c42:	80 83       	st	Z, r24
    1c44:	e0 91 08 01 	lds	r30, 0x0108	; 0x800108 <ext_oled_command>
    1c48:	f0 91 09 01 	lds	r31, 0x0109	; 0x800109 <ext_oled_command+0x1>
    1c4c:	8a ed       	ldi	r24, 0xDA	; 218
    1c4e:	80 83       	st	Z, r24
    1c50:	e0 91 08 01 	lds	r30, 0x0108	; 0x800108 <ext_oled_command>
    1c54:	f0 91 09 01 	lds	r31, 0x0109	; 0x800109 <ext_oled_command+0x1>
    1c58:	82 e1       	ldi	r24, 0x12	; 18
    1c5a:	80 83       	st	Z, r24
    1c5c:	e0 91 08 01 	lds	r30, 0x0108	; 0x800108 <ext_oled_command>
    1c60:	f0 91 09 01 	lds	r31, 0x0109	; 0x800109 <ext_oled_command+0x1>
    1c64:	88 ec       	ldi	r24, 0xC8	; 200
    1c66:	80 83       	st	Z, r24
    1c68:	e0 91 08 01 	lds	r30, 0x0108	; 0x800108 <ext_oled_command>
    1c6c:	f0 91 09 01 	lds	r31, 0x0109	; 0x800109 <ext_oled_command+0x1>
    1c70:	88 ea       	ldi	r24, 0xA8	; 168
    1c72:	80 83       	st	Z, r24
    1c74:	e0 91 08 01 	lds	r30, 0x0108	; 0x800108 <ext_oled_command>
    1c78:	f0 91 09 01 	lds	r31, 0x0109	; 0x800109 <ext_oled_command+0x1>
    1c7c:	8f e3       	ldi	r24, 0x3F	; 63
    1c7e:	80 83       	st	Z, r24
    1c80:	e0 91 08 01 	lds	r30, 0x0108	; 0x800108 <ext_oled_command>
    1c84:	f0 91 09 01 	lds	r31, 0x0109	; 0x800109 <ext_oled_command+0x1>
    1c88:	85 ed       	ldi	r24, 0xD5	; 213
    1c8a:	80 83       	st	Z, r24
    1c8c:	e0 91 08 01 	lds	r30, 0x0108	; 0x800108 <ext_oled_command>
    1c90:	f0 91 09 01 	lds	r31, 0x0109	; 0x800109 <ext_oled_command+0x1>
    1c94:	80 e8       	ldi	r24, 0x80	; 128
    1c96:	80 83       	st	Z, r24
    1c98:	e0 91 08 01 	lds	r30, 0x0108	; 0x800108 <ext_oled_command>
    1c9c:	f0 91 09 01 	lds	r31, 0x0109	; 0x800109 <ext_oled_command+0x1>
    1ca0:	81 e8       	ldi	r24, 0x81	; 129
    1ca2:	80 83       	st	Z, r24
    1ca4:	e0 91 08 01 	lds	r30, 0x0108	; 0x800108 <ext_oled_command>
    1ca8:	f0 91 09 01 	lds	r31, 0x0109	; 0x800109 <ext_oled_command+0x1>
    1cac:	80 e5       	ldi	r24, 0x50	; 80
    1cae:	80 83       	st	Z, r24
    1cb0:	e0 91 08 01 	lds	r30, 0x0108	; 0x800108 <ext_oled_command>
    1cb4:	f0 91 09 01 	lds	r31, 0x0109	; 0x800109 <ext_oled_command+0x1>
    1cb8:	89 ed       	ldi	r24, 0xD9	; 217
    1cba:	80 83       	st	Z, r24
    1cbc:	e0 91 08 01 	lds	r30, 0x0108	; 0x800108 <ext_oled_command>
    1cc0:	f0 91 09 01 	lds	r31, 0x0109	; 0x800109 <ext_oled_command+0x1>
    1cc4:	81 e2       	ldi	r24, 0x21	; 33
    1cc6:	80 83       	st	Z, r24
    1cc8:	e0 91 08 01 	lds	r30, 0x0108	; 0x800108 <ext_oled_command>
    1ccc:	f0 91 09 01 	lds	r31, 0x0109	; 0x800109 <ext_oled_command+0x1>
    1cd0:	80 e2       	ldi	r24, 0x20	; 32
    1cd2:	80 83       	st	Z, r24
    1cd4:	e0 91 08 01 	lds	r30, 0x0108	; 0x800108 <ext_oled_command>
    1cd8:	f0 91 09 01 	lds	r31, 0x0109	; 0x800109 <ext_oled_command+0x1>
    1cdc:	82 e0       	ldi	r24, 0x02	; 2
    1cde:	80 83       	st	Z, r24
    1ce0:	e0 91 08 01 	lds	r30, 0x0108	; 0x800108 <ext_oled_command>
    1ce4:	f0 91 09 01 	lds	r31, 0x0109	; 0x800109 <ext_oled_command+0x1>
    1ce8:	8b ed       	ldi	r24, 0xDB	; 219
    1cea:	80 83       	st	Z, r24
    1cec:	e0 91 08 01 	lds	r30, 0x0108	; 0x800108 <ext_oled_command>
    1cf0:	f0 91 09 01 	lds	r31, 0x0109	; 0x800109 <ext_oled_command+0x1>
    1cf4:	80 e3       	ldi	r24, 0x30	; 48
    1cf6:	80 83       	st	Z, r24
    1cf8:	e0 91 08 01 	lds	r30, 0x0108	; 0x800108 <ext_oled_command>
    1cfc:	f0 91 09 01 	lds	r31, 0x0109	; 0x800109 <ext_oled_command+0x1>
    1d00:	8d ea       	ldi	r24, 0xAD	; 173
    1d02:	80 83       	st	Z, r24
    1d04:	e0 91 08 01 	lds	r30, 0x0108	; 0x800108 <ext_oled_command>
    1d08:	f0 91 09 01 	lds	r31, 0x0109	; 0x800109 <ext_oled_command+0x1>
    1d0c:	10 82       	st	Z, r1
    1d0e:	e0 91 08 01 	lds	r30, 0x0108	; 0x800108 <ext_oled_command>
    1d12:	f0 91 09 01 	lds	r31, 0x0109	; 0x800109 <ext_oled_command+0x1>
    1d16:	84 ea       	ldi	r24, 0xA4	; 164
    1d18:	80 83       	st	Z, r24
    1d1a:	e0 91 08 01 	lds	r30, 0x0108	; 0x800108 <ext_oled_command>
    1d1e:	f0 91 09 01 	lds	r31, 0x0109	; 0x800109 <ext_oled_command+0x1>
    1d22:	86 ea       	ldi	r24, 0xA6	; 166
    1d24:	80 83       	st	Z, r24
    1d26:	e0 91 08 01 	lds	r30, 0x0108	; 0x800108 <ext_oled_command>
    1d2a:	f0 91 09 01 	lds	r31, 0x0109	; 0x800109 <ext_oled_command+0x1>
    1d2e:	8f ea       	ldi	r24, 0xAF	; 175
    1d30:	80 83       	st	Z, r24
	      oled_wrc(0xad);        //master configuration
	      oled_wrc(0x00);
	      oled_wrc(0xa4);        //out follows RAM content
	      oled_wrc(0xa6);        //set normal display
	      oled_wrc(0xaf);        // display on
		  oled_clear_screen();
    1d32:	0e 94 6d 0b 	call	0x16da	; 0x16da <oled_clear_screen>
		  oled_goto_pos(0,0);
    1d36:	60 e0       	ldi	r22, 0x00	; 0
    1d38:	80 e0       	ldi	r24, 0x00	; 0
    1d3a:	0e 94 4e 0b 	call	0x169c	; 0x169c <oled_goto_pos>
    1d3e:	08 95       	ret

00001d40 <oled_print_screen_progmem>:

	
}

void oled_print_screen_progmem(int screenoffset){
    1d40:	ef 92       	push	r14
    1d42:	ff 92       	push	r15
    1d44:	1f 93       	push	r17
    1d46:	cf 93       	push	r28
    1d48:	df 93       	push	r29
    1d4a:	cd b7       	in	r28, 0x3d	; 61
    1d4c:	de b7       	in	r29, 0x3e	; 62
    1d4e:	60 97       	sbiw	r28, 0x10	; 16
    1d50:	0f b6       	in	r0, 0x3f	; 63
    1d52:	f8 94       	cli
    1d54:	de bf       	out	0x3e, r29	; 62
    1d56:	0f be       	out	0x3f, r0	; 63
    1d58:	cd bf       	out	0x3d, r28	; 61
    1d5a:	88 0f       	add	r24, r24
    1d5c:	99 1f       	adc	r25, r25
    1d5e:	9c 01       	movw	r18, r24
    1d60:	2a 5e       	subi	r18, 0xEA	; 234
    1d62:	35 4f       	sbci	r19, 0xF5	; 245
    1d64:	79 01       	movw	r14, r18
	char buffer[16];
	for(unsigned char i=0; i<8; i++){
    1d66:	10 e0       	ldi	r17, 0x00	; 0
		oled_goto_page(i);
    1d68:	81 2f       	mov	r24, r17
    1d6a:	0e 94 15 0b 	call	0x162a	; 0x162a <oled_goto_page>
		strcpy_P(buffer,(PGM_P)pgm_read_word(&table[i]+screenoffset));
    1d6e:	f7 01       	movw	r30, r14
    1d70:	65 91       	lpm	r22, Z+
    1d72:	74 91       	lpm	r23, Z
    1d74:	ce 01       	movw	r24, r28
    1d76:	01 96       	adiw	r24, 0x01	; 1
    1d78:	0e 94 ae 13 	call	0x275c	; 0x275c <strcpy_P>
		oled_center_print(buffer,8);
    1d7c:	68 e0       	ldi	r22, 0x08	; 8
    1d7e:	70 e0       	ldi	r23, 0x00	; 0
    1d80:	ce 01       	movw	r24, r28
    1d82:	01 96       	adiw	r24, 0x01	; 1
    1d84:	0e 94 8f 0c 	call	0x191e	; 0x191e <oled_center_print>
	
}

void oled_print_screen_progmem(int screenoffset){
	char buffer[16];
	for(unsigned char i=0; i<8; i++){
    1d88:	1f 5f       	subi	r17, 0xFF	; 255
    1d8a:	32 e0       	ldi	r19, 0x02	; 2
    1d8c:	e3 0e       	add	r14, r19
    1d8e:	f1 1c       	adc	r15, r1
    1d90:	18 30       	cpi	r17, 0x08	; 8
    1d92:	51 f7       	brne	.-44     	; 0x1d68 <oled_print_screen_progmem+0x28>
		oled_goto_page(i);
		strcpy_P(buffer,(PGM_P)pgm_read_word(&table[i]+screenoffset));
		oled_center_print(buffer,8);
	}
}
    1d94:	60 96       	adiw	r28, 0x10	; 16
    1d96:	0f b6       	in	r0, 0x3f	; 63
    1d98:	f8 94       	cli
    1d9a:	de bf       	out	0x3e, r29	; 62
    1d9c:	0f be       	out	0x3f, r0	; 63
    1d9e:	cd bf       	out	0x3d, r28	; 61
    1da0:	df 91       	pop	r29
    1da2:	cf 91       	pop	r28
    1da4:	1f 91       	pop	r17
    1da6:	ff 90       	pop	r15
    1da8:	ef 90       	pop	r14
    1daa:	08 95       	ret

00001dac <oled_print_page_progmem>:

void oled_print_page_progmem(int screenoffset, int pageOffset){
    1dac:	ef 92       	push	r14
    1dae:	ff 92       	push	r15
    1db0:	0f 93       	push	r16
    1db2:	1f 93       	push	r17
    1db4:	cf 93       	push	r28
    1db6:	df 93       	push	r29
    1db8:	cd b7       	in	r28, 0x3d	; 61
    1dba:	de b7       	in	r29, 0x3e	; 62
    1dbc:	60 97       	sbiw	r28, 0x10	; 16
    1dbe:	0f b6       	in	r0, 0x3f	; 63
    1dc0:	f8 94       	cli
    1dc2:	de bf       	out	0x3e, r29	; 62
    1dc4:	0f be       	out	0x3f, r0	; 63
    1dc6:	cd bf       	out	0x3d, r28	; 61
    1dc8:	8c 01       	movw	r16, r24
    1dca:	7b 01       	movw	r14, r22
	char buffer[16];
	oled_goto_page(pageOffset);
    1dcc:	86 2f       	mov	r24, r22
    1dce:	0e 94 15 0b 	call	0x162a	; 0x162a <oled_goto_page>
	strcpy_P(buffer,(PGM_P)pgm_read_word(&table[screenoffset+pageOffset]));
    1dd2:	f7 01       	movw	r30, r14
    1dd4:	e0 0f       	add	r30, r16
    1dd6:	f1 1f       	adc	r31, r17
    1dd8:	ee 0f       	add	r30, r30
    1dda:	ff 1f       	adc	r31, r31
    1ddc:	ea 5e       	subi	r30, 0xEA	; 234
    1dde:	f5 4f       	sbci	r31, 0xF5	; 245
    1de0:	65 91       	lpm	r22, Z+
    1de2:	74 91       	lpm	r23, Z
    1de4:	ce 01       	movw	r24, r28
    1de6:	01 96       	adiw	r24, 0x01	; 1
    1de8:	0e 94 ae 13 	call	0x275c	; 0x275c <strcpy_P>
	oled_center_print(buffer,8);
    1dec:	68 e0       	ldi	r22, 0x08	; 8
    1dee:	70 e0       	ldi	r23, 0x00	; 0
    1df0:	ce 01       	movw	r24, r28
    1df2:	01 96       	adiw	r24, 0x01	; 1
    1df4:	0e 94 8f 0c 	call	0x191e	; 0x191e <oled_center_print>
}
    1df8:	60 96       	adiw	r28, 0x10	; 16
    1dfa:	0f b6       	in	r0, 0x3f	; 63
    1dfc:	f8 94       	cli
    1dfe:	de bf       	out	0x3e, r29	; 62
    1e00:	0f be       	out	0x3f, r0	; 63
    1e02:	cd bf       	out	0x3d, r28	; 61
    1e04:	df 91       	pop	r29
    1e06:	cf 91       	pop	r28
    1e08:	1f 91       	pop	r17
    1e0a:	0f 91       	pop	r16
    1e0c:	ff 90       	pop	r15
    1e0e:	ef 90       	pop	r14
    1e10:	08 95       	ret

00001e12 <oled_print_time_used>:

void oled_print_time_used(void){
    1e12:	1f 93       	push	r17
    1e14:	cf 93       	push	r28
    1e16:	df 93       	push	r29
	int mseconds;
	int digit3char;
	int digit2char;
	int digit1char;
	int mdigitchar;
	seconds = timer_get_seconds();
    1e18:	0e 94 f2 0f 	call	0x1fe4	; 0x1fe4 <timer_get_seconds>
    1e1c:	ec 01       	movw	r28, r24
	mseconds = timer_get_mseconds();
    1e1e:	0e 94 f7 0f 	call	0x1fee	; 0x1fee <timer_get_mseconds>
    1e22:	18 2f       	mov	r17, r24
	digit3char = digit3+'0';
	digit2char = digit2+'0';
	digit1char = digit1+'0';
	mdigitchar = mdigit+'0';
	
	oled_goto_page(4);
    1e24:	84 e0       	ldi	r24, 0x04	; 4
    1e26:	0e 94 15 0b 	call	0x162a	; 0x162a <oled_goto_page>
	oled_goto_col(63-(5*(8/2)));
    1e2a:	8b e2       	ldi	r24, 0x2B	; 43
    1e2c:	0e 94 2d 0b 	call	0x165a	; 0x165a <oled_goto_col>
	oled_write_char(digit3char,8);
    1e30:	ce 01       	movw	r24, r28
    1e32:	64 e6       	ldi	r22, 0x64	; 100
    1e34:	70 e0       	ldi	r23, 0x00	; 0
    1e36:	0e 94 9f 11 	call	0x233e	; 0x233e <__divmodhi4>
    1e3a:	86 2f       	mov	r24, r22
    1e3c:	68 e0       	ldi	r22, 0x08	; 8
    1e3e:	70 e0       	ldi	r23, 0x00	; 0
    1e40:	80 5d       	subi	r24, 0xD0	; 208
    1e42:	0e 94 a0 0b 	call	0x1740	; 0x1740 <oled_write_char>
	oled_write_char(digit2char,8);
    1e46:	ce 01       	movw	r24, r28
    1e48:	6a e0       	ldi	r22, 0x0A	; 10
    1e4a:	70 e0       	ldi	r23, 0x00	; 0
    1e4c:	0e 94 9f 11 	call	0x233e	; 0x233e <__divmodhi4>
    1e50:	96 2f       	mov	r25, r22
    1e52:	c8 2f       	mov	r28, r24
    1e54:	68 e0       	ldi	r22, 0x08	; 8
    1e56:	70 e0       	ldi	r23, 0x00	; 0
    1e58:	80 e3       	ldi	r24, 0x30	; 48
    1e5a:	89 0f       	add	r24, r25
    1e5c:	0e 94 a0 0b 	call	0x1740	; 0x1740 <oled_write_char>
	oled_write_char(digit1char,8);
    1e60:	68 e0       	ldi	r22, 0x08	; 8
    1e62:	70 e0       	ldi	r23, 0x00	; 0
    1e64:	80 e3       	ldi	r24, 0x30	; 48
    1e66:	8c 0f       	add	r24, r28
    1e68:	0e 94 a0 0b 	call	0x1740	; 0x1740 <oled_write_char>
	oled_write_char(44,8); //44=","
    1e6c:	68 e0       	ldi	r22, 0x08	; 8
    1e6e:	70 e0       	ldi	r23, 0x00	; 0
    1e70:	8c e2       	ldi	r24, 0x2C	; 44
    1e72:	0e 94 a0 0b 	call	0x1740	; 0x1740 <oled_write_char>
	oled_write_char(mdigitchar,8);
    1e76:	68 e0       	ldi	r22, 0x08	; 8
    1e78:	70 e0       	ldi	r23, 0x00	; 0
    1e7a:	80 e3       	ldi	r24, 0x30	; 48
    1e7c:	81 0f       	add	r24, r17
    1e7e:	0e 94 a0 0b 	call	0x1740	; 0x1740 <oled_write_char>
    1e82:	df 91       	pop	r29
    1e84:	cf 91       	pop	r28
    1e86:	1f 91       	pop	r17
    1e88:	08 95       	ret

00001e8a <slider_getPosition>:
    1e8a:	1f 93       	push	r17
    1e8c:	cf 93       	push	r28
    1e8e:	df 93       	push	r29
    1e90:	82 e0       	ldi	r24, 0x02	; 2
    1e92:	90 e0       	ldi	r25, 0x00	; 0
    1e94:	0e 94 5c 06 	call	0xcb8	; 0xcb8 <adc_read>
    1e98:	ec 01       	movw	r28, r24
    1e9a:	83 e0       	ldi	r24, 0x03	; 3
    1e9c:	90 e0       	ldi	r25, 0x00	; 0
    1e9e:	0e 94 5c 06 	call	0xcb8	; 0xcb8 <adc_read>
    1ea2:	9c 01       	movw	r18, r24
    1ea4:	48 2f       	mov	r20, r24
    1ea6:	c0 38       	cpi	r28, 0x80	; 128
    1ea8:	78 f0       	brcs	.+30     	; 0x1ec8 <slider_getPosition+0x3e>
    1eaa:	dd 27       	eor	r29, r29
    1eac:	cf 57       	subi	r28, 0x7F	; 127
    1eae:	d1 09       	sbc	r29, r1
    1eb0:	54 e6       	ldi	r21, 0x64	; 100
    1eb2:	5c 9f       	mul	r21, r28
    1eb4:	c0 01       	movw	r24, r0
    1eb6:	5d 9f       	mul	r21, r29
    1eb8:	90 0d       	add	r25, r0
    1eba:	11 24       	eor	r1, r1
    1ebc:	6f e7       	ldi	r22, 0x7F	; 127
    1ebe:	70 e0       	ldi	r23, 0x00	; 0
    1ec0:	0e 94 9f 11 	call	0x233e	; 0x233e <__divmodhi4>
    1ec4:	fb 01       	movw	r30, r22
    1ec6:	13 c0       	rjmp	.+38     	; 0x1eee <slider_getPosition+0x64>
    1ec8:	cf 37       	cpi	r28, 0x7F	; 127
    1eca:	78 f4       	brcc	.+30     	; 0x1eea <slider_getPosition+0x60>
    1ecc:	dd 27       	eor	r29, r29
    1ece:	cf 57       	subi	r28, 0x7F	; 127
    1ed0:	d1 09       	sbc	r29, r1
    1ed2:	54 e6       	ldi	r21, 0x64	; 100
    1ed4:	5c 9f       	mul	r21, r28
    1ed6:	c0 01       	movw	r24, r0
    1ed8:	5d 9f       	mul	r21, r29
    1eda:	90 0d       	add	r25, r0
    1edc:	11 24       	eor	r1, r1
    1ede:	6f e7       	ldi	r22, 0x7F	; 127
    1ee0:	70 e0       	ldi	r23, 0x00	; 0
    1ee2:	0e 94 9f 11 	call	0x233e	; 0x233e <__divmodhi4>
    1ee6:	fb 01       	movw	r30, r22
    1ee8:	02 c0       	rjmp	.+4      	; 0x1eee <slider_getPosition+0x64>
    1eea:	e0 e0       	ldi	r30, 0x00	; 0
    1eec:	f0 e0       	ldi	r31, 0x00	; 0
    1eee:	40 38       	cpi	r20, 0x80	; 128
    1ef0:	78 f0       	brcs	.+30     	; 0x1f10 <slider_getPosition+0x86>
    1ef2:	33 27       	eor	r19, r19
    1ef4:	2f 57       	subi	r18, 0x7F	; 127
    1ef6:	31 09       	sbc	r19, r1
    1ef8:	44 e6       	ldi	r20, 0x64	; 100
    1efa:	42 9f       	mul	r20, r18
    1efc:	c0 01       	movw	r24, r0
    1efe:	43 9f       	mul	r20, r19
    1f00:	90 0d       	add	r25, r0
    1f02:	11 24       	eor	r1, r1
    1f04:	6f e7       	ldi	r22, 0x7F	; 127
    1f06:	70 e0       	ldi	r23, 0x00	; 0
    1f08:	0e 94 9f 11 	call	0x233e	; 0x233e <__divmodhi4>
    1f0c:	9b 01       	movw	r18, r22
    1f0e:	13 c0       	rjmp	.+38     	; 0x1f36 <slider_getPosition+0xac>
    1f10:	4f 37       	cpi	r20, 0x7F	; 127
    1f12:	78 f4       	brcc	.+30     	; 0x1f32 <slider_getPosition+0xa8>
    1f14:	33 27       	eor	r19, r19
    1f16:	2f 57       	subi	r18, 0x7F	; 127
    1f18:	31 09       	sbc	r19, r1
    1f1a:	44 e6       	ldi	r20, 0x64	; 100
    1f1c:	42 9f       	mul	r20, r18
    1f1e:	c0 01       	movw	r24, r0
    1f20:	43 9f       	mul	r20, r19
    1f22:	90 0d       	add	r25, r0
    1f24:	11 24       	eor	r1, r1
    1f26:	6f e7       	ldi	r22, 0x7F	; 127
    1f28:	70 e0       	ldi	r23, 0x00	; 0
    1f2a:	0e 94 9f 11 	call	0x233e	; 0x233e <__divmodhi4>
    1f2e:	9b 01       	movw	r18, r22
    1f30:	02 c0       	rjmp	.+4      	; 0x1f36 <slider_getPosition+0xac>
    1f32:	20 e0       	ldi	r18, 0x00	; 0
    1f34:	30 e0       	ldi	r19, 0x00	; 0
    1f36:	bf 01       	movw	r22, r30
    1f38:	c9 01       	movw	r24, r18
    1f3a:	df 91       	pop	r29
    1f3c:	cf 91       	pop	r28
    1f3e:	1f 91       	pop	r17
    1f40:	08 95       	ret

00001f42 <slider_sendPositionButtonCan>:
    1f42:	cf 93       	push	r28
    1f44:	df 93       	push	r29
    1f46:	cd b7       	in	r28, 0x3d	; 61
    1f48:	de b7       	in	r29, 0x3e	; 62
    1f4a:	2b 97       	sbiw	r28, 0x0b	; 11
    1f4c:	0f b6       	in	r0, 0x3f	; 63
    1f4e:	f8 94       	cli
    1f50:	de bf       	out	0x3e, r29	; 62
    1f52:	0f be       	out	0x3f, r0	; 63
    1f54:	cd bf       	out	0x3d, r28	; 61
    1f56:	21 e0       	ldi	r18, 0x01	; 1
    1f58:	30 e0       	ldi	r19, 0x00	; 0
    1f5a:	3a 83       	std	Y+2, r19	; 0x02
    1f5c:	29 83       	std	Y+1, r18	; 0x01
    1f5e:	93 e0       	ldi	r25, 0x03	; 3
    1f60:	9b 83       	std	Y+3, r25	; 0x03
    1f62:	6c 83       	std	Y+4, r22	; 0x04
    1f64:	8d 83       	std	Y+5, r24	; 0x05
    1f66:	86 b3       	in	r24, 0x16	; 22
    1f68:	81 70       	andi	r24, 0x01	; 1
    1f6a:	8e 83       	std	Y+6, r24	; 0x06
    1f6c:	ce 01       	movw	r24, r28
    1f6e:	01 96       	adiw	r24, 0x01	; 1
    1f70:	0e 94 97 06 	call	0xd2e	; 0xd2e <can_send_message>
    1f74:	2b 96       	adiw	r28, 0x0b	; 11
    1f76:	0f b6       	in	r0, 0x3f	; 63
    1f78:	f8 94       	cli
    1f7a:	de bf       	out	0x3e, r29	; 62
    1f7c:	0f be       	out	0x3f, r0	; 63
    1f7e:	cd bf       	out	0x3d, r28	; 61
    1f80:	df 91       	pop	r29
    1f82:	cf 91       	pop	r28
    1f84:	08 95       	ret

00001f86 <spi_init>:
    1f86:	80 eb       	ldi	r24, 0xB0	; 176
    1f88:	87 bb       	out	0x17, r24	; 23
    1f8a:	81 e5       	ldi	r24, 0x51	; 81
    1f8c:	8d b9       	out	0x0d, r24	; 13
    1f8e:	c4 9a       	sbi	0x18, 4	; 24
    1f90:	c2 9a       	sbi	0x18, 2	; 24
    1f92:	08 95       	ret

00001f94 <spi_send>:
    1f94:	8f b9       	out	0x0f, r24	; 15
    1f96:	77 9b       	sbis	0x0e, 7	; 14
    1f98:	fe cf       	rjmp	.-4      	; 0x1f96 <spi_send+0x2>
    1f9a:	08 95       	ret

00001f9c <spi_read>:
    1f9c:	85 e4       	ldi	r24, 0x45	; 69
    1f9e:	8f b9       	out	0x0f, r24	; 15
    1fa0:	77 9b       	sbis	0x0e, 7	; 14
    1fa2:	fe cf       	rjmp	.-4      	; 0x1fa0 <spi_read+0x4>
    1fa4:	8f b1       	in	r24, 0x0f	; 15
    1fa6:	08 95       	ret

00001fa8 <timer_init>:
static int mseconds = 0;
static uint8_t control;

void timer_init(void){
	
	cli();
    1fa8:	f8 94       	cli
	counter = 0;
    1faa:	10 92 c1 01 	sts	0x01C1, r1	; 0x8001c1 <counter+0x1>
    1fae:	10 92 c0 01 	sts	0x01C0, r1	; 0x8001c0 <counter>
	seconds = 0;
    1fb2:	10 92 bf 01 	sts	0x01BF, r1	; 0x8001bf <seconds+0x1>
    1fb6:	10 92 be 01 	sts	0x01BE, r1	; 0x8001be <seconds>
	mseconds = 0;
    1fba:	10 92 bd 01 	sts	0x01BD, r1	; 0x8001bd <mseconds+0x1>
    1fbe:	10 92 bc 01 	sts	0x01BC, r1	; 0x8001bc <mseconds>
	TCCR0 |= (1<<CS02);
    1fc2:	83 b7       	in	r24, 0x33	; 51
    1fc4:	84 60       	ori	r24, 0x04	; 4
    1fc6:	83 bf       	out	0x33, r24	; 51
	
	
	TCCR0 |= (1<<WGM01); //Set mode to 'Clear Timer on Compare'
    1fc8:	83 b7       	in	r24, 0x33	; 51
    1fca:	88 60       	ori	r24, 0x08	; 8
    1fcc:	83 bf       	out	0x33, r24	; 51
	TCCR0 &= ~(1<<WGM00);
    1fce:	83 b7       	in	r24, 0x33	; 51
    1fd0:	8f 7b       	andi	r24, 0xBF	; 191
    1fd2:	83 bf       	out	0x33, r24	; 51
	
	int8_t counterVal = 192; //set the number that counter stops and creates interrupt at.
	OCR0 |= counterVal;
    1fd4:	81 b7       	in	r24, 0x31	; 49
    1fd6:	80 6c       	ori	r24, 0xC0	; 192
    1fd8:	81 bf       	out	0x31, r24	; 49

	TIMSK |= (1<< OCIE0); //Enable interrupt by Output Compare
    1fda:	89 b7       	in	r24, 0x39	; 57
    1fdc:	81 60       	ori	r24, 0x01	; 1
    1fde:	89 bf       	out	0x39, r24	; 57
	sei();
    1fe0:	78 94       	sei
    1fe2:	08 95       	ret

00001fe4 <timer_get_seconds>:
}

int timer_get_seconds(void){
	return seconds;
}
    1fe4:	80 91 be 01 	lds	r24, 0x01BE	; 0x8001be <seconds>
    1fe8:	90 91 bf 01 	lds	r25, 0x01BF	; 0x8001bf <seconds+0x1>
    1fec:	08 95       	ret

00001fee <timer_get_mseconds>:

int timer_get_mseconds(void){
	return mseconds;
}
    1fee:	80 91 bc 01 	lds	r24, 0x01BC	; 0x8001bc <mseconds>
    1ff2:	90 91 bd 01 	lds	r25, 0x01BD	; 0x8001bd <mseconds+0x1>
    1ff6:	08 95       	ret

00001ff8 <__vector_16>:

ISR(TIMER0_COMP_vect){
    1ff8:	1f 92       	push	r1
    1ffa:	0f 92       	push	r0
    1ffc:	0f b6       	in	r0, 0x3f	; 63
    1ffe:	0f 92       	push	r0
    2000:	11 24       	eor	r1, r1
    2002:	2f 93       	push	r18
    2004:	3f 93       	push	r19
    2006:	4f 93       	push	r20
    2008:	5f 93       	push	r21
    200a:	6f 93       	push	r22
    200c:	7f 93       	push	r23
    200e:	8f 93       	push	r24
    2010:	9f 93       	push	r25
    2012:	af 93       	push	r26
    2014:	bf 93       	push	r27
    2016:	ef 93       	push	r30
    2018:	ff 93       	push	r31
	
	counter++;
    201a:	20 91 c0 01 	lds	r18, 0x01C0	; 0x8001c0 <counter>
    201e:	30 91 c1 01 	lds	r19, 0x01C1	; 0x8001c1 <counter+0x1>
    2022:	2f 5f       	subi	r18, 0xFF	; 255
    2024:	3f 4f       	sbci	r19, 0xFF	; 255
    2026:	30 93 c1 01 	sts	0x01C1, r19	; 0x8001c1 <counter+0x1>
    202a:	20 93 c0 01 	sts	0x01C0, r18	; 0x8001c0 <counter>
	if(counter%10 == 0){
    202e:	c9 01       	movw	r24, r18
    2030:	6a e0       	ldi	r22, 0x0A	; 10
    2032:	70 e0       	ldi	r23, 0x00	; 0
    2034:	0e 94 9f 11 	call	0x233e	; 0x233e <__divmodhi4>
    2038:	89 2b       	or	r24, r25
    203a:	a9 f5       	brne	.+106    	; 0x20a6 <__vector_16+0xae>
		mseconds++;
    203c:	80 91 bc 01 	lds	r24, 0x01BC	; 0x8001bc <mseconds>
    2040:	90 91 bd 01 	lds	r25, 0x01BD	; 0x8001bd <mseconds+0x1>
    2044:	01 96       	adiw	r24, 0x01	; 1
    2046:	90 93 bd 01 	sts	0x01BD, r25	; 0x8001bd <mseconds+0x1>
    204a:	80 93 bc 01 	sts	0x01BC, r24	; 0x8001bc <mseconds>
		
		if(counter%100 == 0){
    204e:	c9 01       	movw	r24, r18
    2050:	64 e6       	ldi	r22, 0x64	; 100
    2052:	70 e0       	ldi	r23, 0x00	; 0
    2054:	0e 94 9f 11 	call	0x233e	; 0x233e <__divmodhi4>
    2058:	89 2b       	or	r24, r25
    205a:	69 f4       	brne	.+26     	; 0x2076 <__vector_16+0x7e>
			seconds++;
    205c:	80 91 be 01 	lds	r24, 0x01BE	; 0x8001be <seconds>
    2060:	90 91 bf 01 	lds	r25, 0x01BF	; 0x8001bf <seconds+0x1>
    2064:	01 96       	adiw	r24, 0x01	; 1
    2066:	90 93 bf 01 	sts	0x01BF, r25	; 0x8001bf <seconds+0x1>
    206a:	80 93 be 01 	sts	0x01BE, r24	; 0x8001be <seconds>
			mseconds = 0;
    206e:	10 92 bd 01 	sts	0x01BD, r1	; 0x8001bd <mseconds+0x1>
    2072:	10 92 bc 01 	sts	0x01BC, r1	; 0x8001bc <mseconds>
		}
		printf("Time: %d,%d \n\r", seconds, mseconds);
    2076:	80 91 bd 01 	lds	r24, 0x01BD	; 0x8001bd <mseconds+0x1>
    207a:	8f 93       	push	r24
    207c:	80 91 bc 01 	lds	r24, 0x01BC	; 0x8001bc <mseconds>
    2080:	8f 93       	push	r24
    2082:	80 91 bf 01 	lds	r24, 0x01BF	; 0x8001bf <seconds+0x1>
    2086:	8f 93       	push	r24
    2088:	80 91 be 01 	lds	r24, 0x01BE	; 0x8001be <seconds>
    208c:	8f 93       	push	r24
    208e:	89 e7       	ldi	r24, 0x79	; 121
    2090:	91 e0       	ldi	r25, 0x01	; 1
    2092:	9f 93       	push	r25
    2094:	8f 93       	push	r24
    2096:	0e 94 14 14 	call	0x2828	; 0x2828 <printf>
    209a:	0f 90       	pop	r0
    209c:	0f 90       	pop	r0
    209e:	0f 90       	pop	r0
    20a0:	0f 90       	pop	r0
    20a2:	0f 90       	pop	r0
    20a4:	0f 90       	pop	r0
	}
}
    20a6:	ff 91       	pop	r31
    20a8:	ef 91       	pop	r30
    20aa:	bf 91       	pop	r27
    20ac:	af 91       	pop	r26
    20ae:	9f 91       	pop	r25
    20b0:	8f 91       	pop	r24
    20b2:	7f 91       	pop	r23
    20b4:	6f 91       	pop	r22
    20b6:	5f 91       	pop	r21
    20b8:	4f 91       	pop	r20
    20ba:	3f 91       	pop	r19
    20bc:	2f 91       	pop	r18
    20be:	0f 90       	pop	r0
    20c0:	0f be       	out	0x3f, r0	; 63
    20c2:	0f 90       	pop	r0
    20c4:	1f 90       	pop	r1
    20c6:	18 95       	reti

000020c8 <timer2_init>:

void timer2_init(void){
	cli();
    20c8:	f8 94       	cli
	TCCR2 = 0;
    20ca:	17 bc       	out	0x27, r1	; 39
	TCCR2 |= (1 << CS22) | (1 << CS21) | (1 << CS20); //Clock selection. MCK/1024 = 4,8 KHz
    20cc:	87 b5       	in	r24, 0x27	; 39
    20ce:	87 60       	ori	r24, 0x07	; 7
    20d0:	87 bd       	out	0x27, r24	; 39
	
	int8_t counterVal = 255; //set the number that counter stops and creates interrupt at.
	OCR2 |= counterVal;
    20d2:	82 b5       	in	r24, 0x22	; 34
    20d4:	8f ef       	ldi	r24, 0xFF	; 255
    20d6:	82 bd       	out	0x22, r24	; 34
	
	TCCR2 |= (1 << WGM21); //Mode of operation: Clear Timer on Compare
    20d8:	87 b5       	in	r24, 0x27	; 39
    20da:	88 60       	ori	r24, 0x08	; 8
    20dc:	87 bd       	out	0x27, r24	; 39
	TCCR2 &= ~(1 << WGM20);
    20de:	87 b5       	in	r24, 0x27	; 39
    20e0:	8f 7b       	andi	r24, 0xBF	; 191
    20e2:	87 bd       	out	0x27, r24	; 39
	
	TIMSK |= (1 << OCIE2); //Enable interrupts on Output Compare event
    20e4:	89 b7       	in	r24, 0x39	; 57
    20e6:	80 61       	ori	r24, 0x10	; 16
    20e8:	89 bf       	out	0x39, r24	; 57
	sei();
    20ea:	78 94       	sei
    20ec:	08 95       	ret

000020ee <timer2_stop>:
}

void timer2_stop(void){
	TCCR2 &= ~((1 << CS22) | (1 << CS21)); //Stop timer
    20ee:	87 b5       	in	r24, 0x27	; 39
    20f0:	89 7f       	andi	r24, 0xF9	; 249
    20f2:	87 bd       	out	0x27, r24	; 39
	TCNT2 = 0;
    20f4:	13 bc       	out	0x23, r1	; 35
	
	TIMSK &= ~(1 << OCIE2);
    20f6:	89 b7       	in	r24, 0x39	; 57
    20f8:	8f 7e       	andi	r24, 0xEF	; 239
    20fa:	89 bf       	out	0x39, r24	; 57
    20fc:	08 95       	ret

000020fe <timer2_start>:
}

void timer2_start(void){
	TCCR2 |= (1 << CS22) | (1 << CS21) | (1 << CS20); //Clock selection. MCK/1024 = 4,8 KHz
    20fe:	87 b5       	in	r24, 0x27	; 39
    2100:	87 60       	ori	r24, 0x07	; 7
    2102:	87 bd       	out	0x27, r24	; 39
	TIMSK |= (1 << OCIE2);
    2104:	89 b7       	in	r24, 0x39	; 57
    2106:	80 61       	ori	r24, 0x10	; 16
    2108:	89 bf       	out	0x39, r24	; 57
    210a:	08 95       	ret

0000210c <timer2_set_ctrl>:
}

void timer2_set_ctrl(uint8_t ctrl){
	control = ctrl;
    210c:	80 93 bb 01 	sts	0x01BB, r24	; 0x8001bb <control>
    2110:	08 95       	ret

00002112 <__vector_10>:
}

ISR(TIMER2_COMP_vect){
    2112:	1f 92       	push	r1
    2114:	0f 92       	push	r0
    2116:	0f b6       	in	r0, 0x3f	; 63
    2118:	0f 92       	push	r0
    211a:	11 24       	eor	r1, r1
    211c:	2f 93       	push	r18
    211e:	3f 93       	push	r19
    2120:	4f 93       	push	r20
    2122:	5f 93       	push	r21
    2124:	6f 93       	push	r22
    2126:	7f 93       	push	r23
    2128:	8f 93       	push	r24
    212a:	9f 93       	push	r25
    212c:	af 93       	push	r26
    212e:	bf 93       	push	r27
    2130:	ef 93       	push	r30
    2132:	ff 93       	push	r31
	if(control){
    2134:	80 91 bb 01 	lds	r24, 0x01BB	; 0x8001bb <control>
    2138:	88 23       	and	r24, r24
    213a:	29 f0       	breq	.+10     	; 0x2146 <__vector_10+0x34>
		slider_sendPositionButtonCan(slider_getPosition());
    213c:	0e 94 45 0f 	call	0x1e8a	; 0x1e8a <slider_getPosition>
    2140:	0e 94 a1 0f 	call	0x1f42	; 0x1f42 <slider_sendPositionButtonCan>
    2144:	04 c0       	rjmp	.+8      	; 0x214e <__vector_10+0x3c>
		
	}
	else if(!control){
		joystick_sendPositionButtonCan(joystick_getPosition());
    2146:	0e 94 40 07 	call	0xe80	; 0xe80 <joystick_getPosition>
    214a:	0e 94 d6 07 	call	0xfac	; 0xfac <joystick_sendPositionButtonCan>
	}
	else {
		printf("XMEM error");
	}
    214e:	ff 91       	pop	r31
    2150:	ef 91       	pop	r30
    2152:	bf 91       	pop	r27
    2154:	af 91       	pop	r26
    2156:	9f 91       	pop	r25
    2158:	8f 91       	pop	r24
    215a:	7f 91       	pop	r23
    215c:	6f 91       	pop	r22
    215e:	5f 91       	pop	r21
    2160:	4f 91       	pop	r20
    2162:	3f 91       	pop	r19
    2164:	2f 91       	pop	r18
    2166:	0f 90       	pop	r0
    2168:	0f be       	out	0x3f, r0	; 63
    216a:	0f 90       	pop	r0
    216c:	1f 90       	pop	r1
    216e:	18 95       	reti

00002170 <USART_Init>:
    2170:	90 bd       	out	0x20, r25	; 32
    2172:	89 b9       	out	0x09, r24	; 9
    2174:	88 e1       	ldi	r24, 0x18	; 24
    2176:	8a b9       	out	0x0a, r24	; 10
    2178:	8e e8       	ldi	r24, 0x8E	; 142
    217a:	80 bd       	out	0x20, r24	; 32
    217c:	60 e0       	ldi	r22, 0x00	; 0
    217e:	70 e0       	ldi	r23, 0x00	; 0
    2180:	89 ec       	ldi	r24, 0xC9	; 201
    2182:	90 e1       	ldi	r25, 0x10	; 16
    2184:	0e 94 c9 13 	call	0x2792	; 0x2792 <fdevopen>
    2188:	08 95       	ret

0000218a <USART_Transmit>:
    218a:	5d 9b       	sbis	0x0b, 5	; 11
    218c:	fe cf       	rjmp	.-4      	; 0x218a <USART_Transmit>
    218e:	8c b9       	out	0x0c, r24	; 12
    2190:	08 95       	ret

00002192 <USART_PUTCHAR>:
    2192:	0e 94 c5 10 	call	0x218a	; 0x218a <USART_Transmit>
    2196:	80 e0       	ldi	r24, 0x00	; 0
    2198:	90 e0       	ldi	r25, 0x00	; 0
    219a:	08 95       	ret

0000219c <xmem_init>:
#include <avr/io.h>
#include "DRIVER_XMEM.h"


void xmem_init(void){
	MCUCR |= (1 << SRE); //enable XMEM
    219c:	85 b7       	in	r24, 0x35	; 53
    219e:	80 68       	ori	r24, 0x80	; 128
    21a0:	85 bf       	out	0x35, r24	; 53
	SFIOR |= (1 << XMM2); //Mask unused bits/pins, which is PC4-PC7
    21a2:	80 b7       	in	r24, 0x30	; 48
    21a4:	80 62       	ori	r24, 0x20	; 32
    21a6:	80 bf       	out	0x30, r24	; 48
    21a8:	08 95       	ret

000021aa <xmem_write>:
}

void xmem_write(uint8_t data, uint16_t addr){
	volatile char *ext_mem = (char *) 0x1000;
	ext_mem[addr] = data;
    21aa:	fb 01       	movw	r30, r22
    21ac:	f0 5f       	subi	r31, 0xF0	; 240
    21ae:	80 83       	st	Z, r24
    21b0:	08 95       	ret

000021b2 <xmem_read>:
}

uint8_t xmem_read(uint16_t addr){
	volatile char *ext_mem = (char *) 0x1000;
	uint8_t ret_val = ext_mem[addr];
    21b2:	90 5f       	subi	r25, 0xF0	; 240
    21b4:	fc 01       	movw	r30, r24
    21b6:	80 81       	ld	r24, Z
	return ret_val;
}
    21b8:	08 95       	ret

000021ba <mcp_read>:
    21ba:	cf 93       	push	r28
    21bc:	c8 2f       	mov	r28, r24
    21be:	c4 98       	cbi	0x18, 4	; 24
    21c0:	83 e0       	ldi	r24, 0x03	; 3
    21c2:	0e 94 ca 0f 	call	0x1f94	; 0x1f94 <spi_send>
    21c6:	8c 2f       	mov	r24, r28
    21c8:	0e 94 ca 0f 	call	0x1f94	; 0x1f94 <spi_send>
    21cc:	0e 94 ce 0f 	call	0x1f9c	; 0x1f9c <spi_read>
    21d0:	c4 9a       	sbi	0x18, 4	; 24
    21d2:	cf 91       	pop	r28
    21d4:	08 95       	ret

000021d6 <mcp_write>:
    21d6:	cf 93       	push	r28
    21d8:	df 93       	push	r29
    21da:	d8 2f       	mov	r29, r24
    21dc:	c6 2f       	mov	r28, r22
    21de:	c4 98       	cbi	0x18, 4	; 24
    21e0:	82 e0       	ldi	r24, 0x02	; 2
    21e2:	0e 94 ca 0f 	call	0x1f94	; 0x1f94 <spi_send>
    21e6:	8d 2f       	mov	r24, r29
    21e8:	0e 94 ca 0f 	call	0x1f94	; 0x1f94 <spi_send>
    21ec:	8c 2f       	mov	r24, r28
    21ee:	0e 94 ca 0f 	call	0x1f94	; 0x1f94 <spi_send>
    21f2:	c4 9a       	sbi	0x18, 4	; 24
    21f4:	df 91       	pop	r29
    21f6:	cf 91       	pop	r28
    21f8:	08 95       	ret

000021fa <mcp_req_to_send>:
    21fa:	c4 98       	cbi	0x18, 4	; 24
    21fc:	0e 94 ca 0f 	call	0x1f94	; 0x1f94 <spi_send>
    2200:	c4 9a       	sbi	0x18, 4	; 24
    2202:	08 95       	ret

00002204 <mcp_bit_modify>:
    2204:	1f 93       	push	r17
    2206:	cf 93       	push	r28
    2208:	df 93       	push	r29
    220a:	18 2f       	mov	r17, r24
    220c:	d6 2f       	mov	r29, r22
    220e:	c4 2f       	mov	r28, r20
    2210:	c4 98       	cbi	0x18, 4	; 24
    2212:	85 e0       	ldi	r24, 0x05	; 5
    2214:	0e 94 ca 0f 	call	0x1f94	; 0x1f94 <spi_send>
    2218:	81 2f       	mov	r24, r17
    221a:	0e 94 ca 0f 	call	0x1f94	; 0x1f94 <spi_send>
    221e:	8d 2f       	mov	r24, r29
    2220:	0e 94 ca 0f 	call	0x1f94	; 0x1f94 <spi_send>
    2224:	8c 2f       	mov	r24, r28
    2226:	0e 94 ca 0f 	call	0x1f94	; 0x1f94 <spi_send>
    222a:	c4 9a       	sbi	0x18, 4	; 24
    222c:	df 91       	pop	r29
    222e:	cf 91       	pop	r28
    2230:	1f 91       	pop	r17
    2232:	08 95       	ret

00002234 <mcp_reset>:
    2234:	c4 98       	cbi	0x18, 4	; 24
    2236:	80 ec       	ldi	r24, 0xC0	; 192
    2238:	0e 94 ca 0f 	call	0x1f94	; 0x1f94 <spi_send>
    223c:	c4 9a       	sbi	0x18, 4	; 24
    223e:	8f e3       	ldi	r24, 0x3F	; 63
    2240:	9c e9       	ldi	r25, 0x9C	; 156
    2242:	01 97       	sbiw	r24, 0x01	; 1
    2244:	f1 f7       	brne	.-4      	; 0x2242 <mcp_reset+0xe>
    2246:	00 c0       	rjmp	.+0      	; 0x2248 <mcp_reset+0x14>
    2248:	00 00       	nop
    224a:	08 95       	ret

0000224c <mcp_init>:
    224c:	0e 94 c3 0f 	call	0x1f86	; 0x1f86 <spi_init>
    2250:	0e 94 1a 11 	call	0x2234	; 0x2234 <mcp_reset>
    2254:	8f e3       	ldi	r24, 0x3F	; 63
    2256:	9f e1       	ldi	r25, 0x1F	; 31
    2258:	01 97       	sbiw	r24, 0x01	; 1
    225a:	f1 f7       	brne	.-4      	; 0x2258 <mcp_init+0xc>
    225c:	00 c0       	rjmp	.+0      	; 0x225e <mcp_init+0x12>
    225e:	00 00       	nop
    2260:	8e e0       	ldi	r24, 0x0E	; 14
    2262:	0e 94 dd 10 	call	0x21ba	; 0x21ba <mcp_read>
    2266:	98 2f       	mov	r25, r24
    2268:	90 7e       	andi	r25, 0xE0	; 224
    226a:	90 38       	cpi	r25, 0x80	; 128
    226c:	61 f0       	breq	.+24     	; 0x2286 <mcp_init+0x3a>
    226e:	1f 92       	push	r1
    2270:	8f 93       	push	r24
    2272:	88 e8       	ldi	r24, 0x88	; 136
    2274:	91 e0       	ldi	r25, 0x01	; 1
    2276:	9f 93       	push	r25
    2278:	8f 93       	push	r24
    227a:	0e 94 14 14 	call	0x2828	; 0x2828 <printf>
    227e:	0f 90       	pop	r0
    2280:	0f 90       	pop	r0
    2282:	0f 90       	pop	r0
    2284:	0f 90       	pop	r0
    2286:	08 95       	ret

00002288 <main>:
    2288:	8f e1       	ldi	r24, 0x1F	; 31
    228a:	90 e0       	ldi	r25, 0x00	; 0
    228c:	0e 94 b8 10 	call	0x2170	; 0x2170 <USART_Init>
    2290:	0e 94 ce 10 	call	0x219c	; 0x219c <xmem_init>
    2294:	0e 94 16 0e 	call	0x1c2c	; 0x1c2c <oled_init>
    2298:	0e 94 cf 09 	call	0x139e	; 0x139e <menu_init>
    229c:	0e 94 59 06 	call	0xcb2	; 0xcb2 <adc_init>
    22a0:	0e 94 f0 06 	call	0xde0	; 0xde0 <joystick_calibrate>
    22a4:	0e 94 75 06 	call	0xcea	; 0xcea <can_init>
	#else
		//round up by default
		__ticks_dc = (uint32_t)(ceil(fabs(__tmp)));
	#endif

	__builtin_avr_delay_cycles(__ticks_dc);
    22a8:	85 e0       	ldi	r24, 0x05	; 5
    22aa:	8a 95       	dec	r24
    22ac:	f1 f7       	brne	.-4      	; 0x22aa <main+0x22>
    22ae:	00 00       	nop
    22b0:	0e 94 3a 0a 	call	0x1474	; 0x1474 <navigate>
    22b4:	f9 cf       	rjmp	.-14     	; 0x22a8 <main+0x20>

000022b6 <util_sort>:
    22b6:	cf 93       	push	r28
    22b8:	df 93       	push	r29
    22ba:	eb 01       	movw	r28, r22
    22bc:	21 97       	sbiw	r28, 0x01	; 1
    22be:	1c 16       	cp	r1, r28
    22c0:	1d 06       	cpc	r1, r29
    22c2:	14 f5       	brge	.+68     	; 0x2308 <util_sort+0x52>
    22c4:	61 50       	subi	r22, 0x01	; 1
    22c6:	70 48       	sbci	r23, 0x80	; 128
    22c8:	66 0f       	add	r22, r22
    22ca:	77 1f       	adc	r23, r23
    22cc:	68 0f       	add	r22, r24
    22ce:	79 1f       	adc	r23, r25
    22d0:	17 c0       	rjmp	.+46     	; 0x2300 <util_sort+0x4a>
    22d2:	fc 01       	movw	r30, r24
    22d4:	21 91       	ld	r18, Z+
    22d6:	31 91       	ld	r19, Z+
    22d8:	40 81       	ld	r20, Z
    22da:	51 81       	ldd	r21, Z+1	; 0x01
    22dc:	42 17       	cp	r20, r18
    22de:	53 07       	cpc	r21, r19
    22e0:	34 f4       	brge	.+12     	; 0x22ee <util_sort+0x38>
    22e2:	df 01       	movw	r26, r30
    22e4:	12 97       	sbiw	r26, 0x02	; 2
    22e6:	4d 93       	st	X+, r20
    22e8:	5c 93       	st	X, r21
    22ea:	31 83       	std	Z+1, r19	; 0x01
    22ec:	20 83       	st	Z, r18
    22ee:	e6 17       	cp	r30, r22
    22f0:	f7 07       	cpc	r31, r23
    22f2:	81 f7       	brne	.-32     	; 0x22d4 <util_sort+0x1e>
    22f4:	21 97       	sbiw	r28, 0x01	; 1
    22f6:	62 50       	subi	r22, 0x02	; 2
    22f8:	71 09       	sbc	r23, r1
    22fa:	68 17       	cp	r22, r24
    22fc:	79 07       	cpc	r23, r25
    22fe:	21 f0       	breq	.+8      	; 0x2308 <util_sort+0x52>
    2300:	1c 16       	cp	r1, r28
    2302:	1d 06       	cpc	r1, r29
    2304:	34 f3       	brlt	.-52     	; 0x22d2 <util_sort+0x1c>
    2306:	f6 cf       	rjmp	.-20     	; 0x22f4 <util_sort+0x3e>
    2308:	df 91       	pop	r29
    230a:	cf 91       	pop	r28
    230c:	08 95       	ret

0000230e <util_median>:
    230e:	0f 93       	push	r16
    2310:	1f 93       	push	r17
    2312:	cf 93       	push	r28
    2314:	df 93       	push	r29
    2316:	8c 01       	movw	r16, r24
    2318:	eb 01       	movw	r28, r22
    231a:	0e 94 5b 11 	call	0x22b6	; 0x22b6 <util_sort>
    231e:	21 96       	adiw	r28, 0x01	; 1
    2320:	ce 01       	movw	r24, r28
    2322:	0a f4       	brpl	.+2      	; 0x2326 <util_median+0x18>
    2324:	01 96       	adiw	r24, 0x01	; 1
    2326:	fc 01       	movw	r30, r24
    2328:	ee 7f       	andi	r30, 0xFE	; 254
    232a:	32 97       	sbiw	r30, 0x02	; 2
    232c:	e0 0f       	add	r30, r16
    232e:	f1 1f       	adc	r31, r17
    2330:	80 81       	ld	r24, Z
    2332:	91 81       	ldd	r25, Z+1	; 0x01
    2334:	df 91       	pop	r29
    2336:	cf 91       	pop	r28
    2338:	1f 91       	pop	r17
    233a:	0f 91       	pop	r16
    233c:	08 95       	ret

0000233e <__divmodhi4>:
    233e:	97 fb       	bst	r25, 7
    2340:	07 2e       	mov	r0, r23
    2342:	16 f4       	brtc	.+4      	; 0x2348 <__divmodhi4+0xa>
    2344:	00 94       	com	r0
    2346:	07 d0       	rcall	.+14     	; 0x2356 <__divmodhi4_neg1>
    2348:	77 fd       	sbrc	r23, 7
    234a:	09 d0       	rcall	.+18     	; 0x235e <__divmodhi4_neg2>
    234c:	0e 94 b3 11 	call	0x2366	; 0x2366 <__udivmodhi4>
    2350:	07 fc       	sbrc	r0, 7
    2352:	05 d0       	rcall	.+10     	; 0x235e <__divmodhi4_neg2>
    2354:	3e f4       	brtc	.+14     	; 0x2364 <__divmodhi4_exit>

00002356 <__divmodhi4_neg1>:
    2356:	90 95       	com	r25
    2358:	81 95       	neg	r24
    235a:	9f 4f       	sbci	r25, 0xFF	; 255
    235c:	08 95       	ret

0000235e <__divmodhi4_neg2>:
    235e:	70 95       	com	r23
    2360:	61 95       	neg	r22
    2362:	7f 4f       	sbci	r23, 0xFF	; 255

00002364 <__divmodhi4_exit>:
    2364:	08 95       	ret

00002366 <__udivmodhi4>:
    2366:	aa 1b       	sub	r26, r26
    2368:	bb 1b       	sub	r27, r27
    236a:	51 e1       	ldi	r21, 0x11	; 17
    236c:	07 c0       	rjmp	.+14     	; 0x237c <__udivmodhi4_ep>

0000236e <__udivmodhi4_loop>:
    236e:	aa 1f       	adc	r26, r26
    2370:	bb 1f       	adc	r27, r27
    2372:	a6 17       	cp	r26, r22
    2374:	b7 07       	cpc	r27, r23
    2376:	10 f0       	brcs	.+4      	; 0x237c <__udivmodhi4_ep>
    2378:	a6 1b       	sub	r26, r22
    237a:	b7 0b       	sbc	r27, r23

0000237c <__udivmodhi4_ep>:
    237c:	88 1f       	adc	r24, r24
    237e:	99 1f       	adc	r25, r25
    2380:	5a 95       	dec	r21
    2382:	a9 f7       	brne	.-22     	; 0x236e <__udivmodhi4_loop>
    2384:	80 95       	com	r24
    2386:	90 95       	com	r25
    2388:	bc 01       	movw	r22, r24
    238a:	cd 01       	movw	r24, r26
    238c:	08 95       	ret

0000238e <malloc>:
    238e:	0f 93       	push	r16
    2390:	1f 93       	push	r17
    2392:	cf 93       	push	r28
    2394:	df 93       	push	r29
    2396:	82 30       	cpi	r24, 0x02	; 2
    2398:	91 05       	cpc	r25, r1
    239a:	10 f4       	brcc	.+4      	; 0x23a0 <malloc+0x12>
    239c:	82 e0       	ldi	r24, 0x02	; 2
    239e:	90 e0       	ldi	r25, 0x00	; 0
    23a0:	e0 91 cc 01 	lds	r30, 0x01CC	; 0x8001cc <__flp>
    23a4:	f0 91 cd 01 	lds	r31, 0x01CD	; 0x8001cd <__flp+0x1>
    23a8:	20 e0       	ldi	r18, 0x00	; 0
    23aa:	30 e0       	ldi	r19, 0x00	; 0
    23ac:	a0 e0       	ldi	r26, 0x00	; 0
    23ae:	b0 e0       	ldi	r27, 0x00	; 0
    23b0:	30 97       	sbiw	r30, 0x00	; 0
    23b2:	19 f1       	breq	.+70     	; 0x23fa <malloc+0x6c>
    23b4:	40 81       	ld	r20, Z
    23b6:	51 81       	ldd	r21, Z+1	; 0x01
    23b8:	02 81       	ldd	r16, Z+2	; 0x02
    23ba:	13 81       	ldd	r17, Z+3	; 0x03
    23bc:	48 17       	cp	r20, r24
    23be:	59 07       	cpc	r21, r25
    23c0:	c8 f0       	brcs	.+50     	; 0x23f4 <malloc+0x66>
    23c2:	84 17       	cp	r24, r20
    23c4:	95 07       	cpc	r25, r21
    23c6:	69 f4       	brne	.+26     	; 0x23e2 <malloc+0x54>
    23c8:	10 97       	sbiw	r26, 0x00	; 0
    23ca:	31 f0       	breq	.+12     	; 0x23d8 <malloc+0x4a>
    23cc:	12 96       	adiw	r26, 0x02	; 2
    23ce:	0c 93       	st	X, r16
    23d0:	12 97       	sbiw	r26, 0x02	; 2
    23d2:	13 96       	adiw	r26, 0x03	; 3
    23d4:	1c 93       	st	X, r17
    23d6:	27 c0       	rjmp	.+78     	; 0x2426 <malloc+0x98>
    23d8:	00 93 cc 01 	sts	0x01CC, r16	; 0x8001cc <__flp>
    23dc:	10 93 cd 01 	sts	0x01CD, r17	; 0x8001cd <__flp+0x1>
    23e0:	22 c0       	rjmp	.+68     	; 0x2426 <malloc+0x98>
    23e2:	21 15       	cp	r18, r1
    23e4:	31 05       	cpc	r19, r1
    23e6:	19 f0       	breq	.+6      	; 0x23ee <malloc+0x60>
    23e8:	42 17       	cp	r20, r18
    23ea:	53 07       	cpc	r21, r19
    23ec:	18 f4       	brcc	.+6      	; 0x23f4 <malloc+0x66>
    23ee:	9a 01       	movw	r18, r20
    23f0:	bd 01       	movw	r22, r26
    23f2:	ef 01       	movw	r28, r30
    23f4:	df 01       	movw	r26, r30
    23f6:	f8 01       	movw	r30, r16
    23f8:	db cf       	rjmp	.-74     	; 0x23b0 <malloc+0x22>
    23fa:	21 15       	cp	r18, r1
    23fc:	31 05       	cpc	r19, r1
    23fe:	f9 f0       	breq	.+62     	; 0x243e <malloc+0xb0>
    2400:	28 1b       	sub	r18, r24
    2402:	39 0b       	sbc	r19, r25
    2404:	24 30       	cpi	r18, 0x04	; 4
    2406:	31 05       	cpc	r19, r1
    2408:	80 f4       	brcc	.+32     	; 0x242a <malloc+0x9c>
    240a:	8a 81       	ldd	r24, Y+2	; 0x02
    240c:	9b 81       	ldd	r25, Y+3	; 0x03
    240e:	61 15       	cp	r22, r1
    2410:	71 05       	cpc	r23, r1
    2412:	21 f0       	breq	.+8      	; 0x241c <malloc+0x8e>
    2414:	fb 01       	movw	r30, r22
    2416:	93 83       	std	Z+3, r25	; 0x03
    2418:	82 83       	std	Z+2, r24	; 0x02
    241a:	04 c0       	rjmp	.+8      	; 0x2424 <malloc+0x96>
    241c:	90 93 cd 01 	sts	0x01CD, r25	; 0x8001cd <__flp+0x1>
    2420:	80 93 cc 01 	sts	0x01CC, r24	; 0x8001cc <__flp>
    2424:	fe 01       	movw	r30, r28
    2426:	32 96       	adiw	r30, 0x02	; 2
    2428:	44 c0       	rjmp	.+136    	; 0x24b2 <malloc+0x124>
    242a:	fe 01       	movw	r30, r28
    242c:	e2 0f       	add	r30, r18
    242e:	f3 1f       	adc	r31, r19
    2430:	81 93       	st	Z+, r24
    2432:	91 93       	st	Z+, r25
    2434:	22 50       	subi	r18, 0x02	; 2
    2436:	31 09       	sbc	r19, r1
    2438:	39 83       	std	Y+1, r19	; 0x01
    243a:	28 83       	st	Y, r18
    243c:	3a c0       	rjmp	.+116    	; 0x24b2 <malloc+0x124>
    243e:	20 91 ca 01 	lds	r18, 0x01CA	; 0x8001ca <__brkval>
    2442:	30 91 cb 01 	lds	r19, 0x01CB	; 0x8001cb <__brkval+0x1>
    2446:	23 2b       	or	r18, r19
    2448:	41 f4       	brne	.+16     	; 0x245a <malloc+0xcc>
    244a:	20 91 02 01 	lds	r18, 0x0102	; 0x800102 <__malloc_heap_start>
    244e:	30 91 03 01 	lds	r19, 0x0103	; 0x800103 <__malloc_heap_start+0x1>
    2452:	30 93 cb 01 	sts	0x01CB, r19	; 0x8001cb <__brkval+0x1>
    2456:	20 93 ca 01 	sts	0x01CA, r18	; 0x8001ca <__brkval>
    245a:	20 91 00 01 	lds	r18, 0x0100	; 0x800100 <__data_start>
    245e:	30 91 01 01 	lds	r19, 0x0101	; 0x800101 <__data_start+0x1>
    2462:	21 15       	cp	r18, r1
    2464:	31 05       	cpc	r19, r1
    2466:	41 f4       	brne	.+16     	; 0x2478 <malloc+0xea>
    2468:	2d b7       	in	r18, 0x3d	; 61
    246a:	3e b7       	in	r19, 0x3e	; 62
    246c:	40 91 04 01 	lds	r20, 0x0104	; 0x800104 <__malloc_margin>
    2470:	50 91 05 01 	lds	r21, 0x0105	; 0x800105 <__malloc_margin+0x1>
    2474:	24 1b       	sub	r18, r20
    2476:	35 0b       	sbc	r19, r21
    2478:	e0 91 ca 01 	lds	r30, 0x01CA	; 0x8001ca <__brkval>
    247c:	f0 91 cb 01 	lds	r31, 0x01CB	; 0x8001cb <__brkval+0x1>
    2480:	e2 17       	cp	r30, r18
    2482:	f3 07       	cpc	r31, r19
    2484:	a0 f4       	brcc	.+40     	; 0x24ae <malloc+0x120>
    2486:	2e 1b       	sub	r18, r30
    2488:	3f 0b       	sbc	r19, r31
    248a:	28 17       	cp	r18, r24
    248c:	39 07       	cpc	r19, r25
    248e:	78 f0       	brcs	.+30     	; 0x24ae <malloc+0x120>
    2490:	ac 01       	movw	r20, r24
    2492:	4e 5f       	subi	r20, 0xFE	; 254
    2494:	5f 4f       	sbci	r21, 0xFF	; 255
    2496:	24 17       	cp	r18, r20
    2498:	35 07       	cpc	r19, r21
    249a:	48 f0       	brcs	.+18     	; 0x24ae <malloc+0x120>
    249c:	4e 0f       	add	r20, r30
    249e:	5f 1f       	adc	r21, r31
    24a0:	50 93 cb 01 	sts	0x01CB, r21	; 0x8001cb <__brkval+0x1>
    24a4:	40 93 ca 01 	sts	0x01CA, r20	; 0x8001ca <__brkval>
    24a8:	81 93       	st	Z+, r24
    24aa:	91 93       	st	Z+, r25
    24ac:	02 c0       	rjmp	.+4      	; 0x24b2 <malloc+0x124>
    24ae:	e0 e0       	ldi	r30, 0x00	; 0
    24b0:	f0 e0       	ldi	r31, 0x00	; 0
    24b2:	cf 01       	movw	r24, r30
    24b4:	df 91       	pop	r29
    24b6:	cf 91       	pop	r28
    24b8:	1f 91       	pop	r17
    24ba:	0f 91       	pop	r16
    24bc:	08 95       	ret

000024be <free>:
    24be:	cf 93       	push	r28
    24c0:	df 93       	push	r29
    24c2:	00 97       	sbiw	r24, 0x00	; 0
    24c4:	09 f4       	brne	.+2      	; 0x24c8 <free+0xa>
    24c6:	81 c0       	rjmp	.+258    	; 0x25ca <free+0x10c>
    24c8:	fc 01       	movw	r30, r24
    24ca:	32 97       	sbiw	r30, 0x02	; 2
    24cc:	13 82       	std	Z+3, r1	; 0x03
    24ce:	12 82       	std	Z+2, r1	; 0x02
    24d0:	a0 91 cc 01 	lds	r26, 0x01CC	; 0x8001cc <__flp>
    24d4:	b0 91 cd 01 	lds	r27, 0x01CD	; 0x8001cd <__flp+0x1>
    24d8:	10 97       	sbiw	r26, 0x00	; 0
    24da:	81 f4       	brne	.+32     	; 0x24fc <free+0x3e>
    24dc:	20 81       	ld	r18, Z
    24de:	31 81       	ldd	r19, Z+1	; 0x01
    24e0:	82 0f       	add	r24, r18
    24e2:	93 1f       	adc	r25, r19
    24e4:	20 91 ca 01 	lds	r18, 0x01CA	; 0x8001ca <__brkval>
    24e8:	30 91 cb 01 	lds	r19, 0x01CB	; 0x8001cb <__brkval+0x1>
    24ec:	28 17       	cp	r18, r24
    24ee:	39 07       	cpc	r19, r25
    24f0:	51 f5       	brne	.+84     	; 0x2546 <free+0x88>
    24f2:	f0 93 cb 01 	sts	0x01CB, r31	; 0x8001cb <__brkval+0x1>
    24f6:	e0 93 ca 01 	sts	0x01CA, r30	; 0x8001ca <__brkval>
    24fa:	67 c0       	rjmp	.+206    	; 0x25ca <free+0x10c>
    24fc:	ed 01       	movw	r28, r26
    24fe:	20 e0       	ldi	r18, 0x00	; 0
    2500:	30 e0       	ldi	r19, 0x00	; 0
    2502:	ce 17       	cp	r28, r30
    2504:	df 07       	cpc	r29, r31
    2506:	40 f4       	brcc	.+16     	; 0x2518 <free+0x5a>
    2508:	4a 81       	ldd	r20, Y+2	; 0x02
    250a:	5b 81       	ldd	r21, Y+3	; 0x03
    250c:	9e 01       	movw	r18, r28
    250e:	41 15       	cp	r20, r1
    2510:	51 05       	cpc	r21, r1
    2512:	f1 f0       	breq	.+60     	; 0x2550 <free+0x92>
    2514:	ea 01       	movw	r28, r20
    2516:	f5 cf       	rjmp	.-22     	; 0x2502 <free+0x44>
    2518:	d3 83       	std	Z+3, r29	; 0x03
    251a:	c2 83       	std	Z+2, r28	; 0x02
    251c:	40 81       	ld	r20, Z
    251e:	51 81       	ldd	r21, Z+1	; 0x01
    2520:	84 0f       	add	r24, r20
    2522:	95 1f       	adc	r25, r21
    2524:	c8 17       	cp	r28, r24
    2526:	d9 07       	cpc	r29, r25
    2528:	59 f4       	brne	.+22     	; 0x2540 <free+0x82>
    252a:	88 81       	ld	r24, Y
    252c:	99 81       	ldd	r25, Y+1	; 0x01
    252e:	84 0f       	add	r24, r20
    2530:	95 1f       	adc	r25, r21
    2532:	02 96       	adiw	r24, 0x02	; 2
    2534:	91 83       	std	Z+1, r25	; 0x01
    2536:	80 83       	st	Z, r24
    2538:	8a 81       	ldd	r24, Y+2	; 0x02
    253a:	9b 81       	ldd	r25, Y+3	; 0x03
    253c:	93 83       	std	Z+3, r25	; 0x03
    253e:	82 83       	std	Z+2, r24	; 0x02
    2540:	21 15       	cp	r18, r1
    2542:	31 05       	cpc	r19, r1
    2544:	29 f4       	brne	.+10     	; 0x2550 <free+0x92>
    2546:	f0 93 cd 01 	sts	0x01CD, r31	; 0x8001cd <__flp+0x1>
    254a:	e0 93 cc 01 	sts	0x01CC, r30	; 0x8001cc <__flp>
    254e:	3d c0       	rjmp	.+122    	; 0x25ca <free+0x10c>
    2550:	e9 01       	movw	r28, r18
    2552:	fb 83       	std	Y+3, r31	; 0x03
    2554:	ea 83       	std	Y+2, r30	; 0x02
    2556:	49 91       	ld	r20, Y+
    2558:	59 91       	ld	r21, Y+
    255a:	c4 0f       	add	r28, r20
    255c:	d5 1f       	adc	r29, r21
    255e:	ec 17       	cp	r30, r28
    2560:	fd 07       	cpc	r31, r29
    2562:	61 f4       	brne	.+24     	; 0x257c <free+0xbe>
    2564:	80 81       	ld	r24, Z
    2566:	91 81       	ldd	r25, Z+1	; 0x01
    2568:	84 0f       	add	r24, r20
    256a:	95 1f       	adc	r25, r21
    256c:	02 96       	adiw	r24, 0x02	; 2
    256e:	e9 01       	movw	r28, r18
    2570:	99 83       	std	Y+1, r25	; 0x01
    2572:	88 83       	st	Y, r24
    2574:	82 81       	ldd	r24, Z+2	; 0x02
    2576:	93 81       	ldd	r25, Z+3	; 0x03
    2578:	9b 83       	std	Y+3, r25	; 0x03
    257a:	8a 83       	std	Y+2, r24	; 0x02
    257c:	e0 e0       	ldi	r30, 0x00	; 0
    257e:	f0 e0       	ldi	r31, 0x00	; 0
    2580:	12 96       	adiw	r26, 0x02	; 2
    2582:	8d 91       	ld	r24, X+
    2584:	9c 91       	ld	r25, X
    2586:	13 97       	sbiw	r26, 0x03	; 3
    2588:	00 97       	sbiw	r24, 0x00	; 0
    258a:	19 f0       	breq	.+6      	; 0x2592 <free+0xd4>
    258c:	fd 01       	movw	r30, r26
    258e:	dc 01       	movw	r26, r24
    2590:	f7 cf       	rjmp	.-18     	; 0x2580 <free+0xc2>
    2592:	8d 91       	ld	r24, X+
    2594:	9c 91       	ld	r25, X
    2596:	11 97       	sbiw	r26, 0x01	; 1
    2598:	9d 01       	movw	r18, r26
    259a:	2e 5f       	subi	r18, 0xFE	; 254
    259c:	3f 4f       	sbci	r19, 0xFF	; 255
    259e:	82 0f       	add	r24, r18
    25a0:	93 1f       	adc	r25, r19
    25a2:	20 91 ca 01 	lds	r18, 0x01CA	; 0x8001ca <__brkval>
    25a6:	30 91 cb 01 	lds	r19, 0x01CB	; 0x8001cb <__brkval+0x1>
    25aa:	28 17       	cp	r18, r24
    25ac:	39 07       	cpc	r19, r25
    25ae:	69 f4       	brne	.+26     	; 0x25ca <free+0x10c>
    25b0:	30 97       	sbiw	r30, 0x00	; 0
    25b2:	29 f4       	brne	.+10     	; 0x25be <free+0x100>
    25b4:	10 92 cd 01 	sts	0x01CD, r1	; 0x8001cd <__flp+0x1>
    25b8:	10 92 cc 01 	sts	0x01CC, r1	; 0x8001cc <__flp>
    25bc:	02 c0       	rjmp	.+4      	; 0x25c2 <free+0x104>
    25be:	13 82       	std	Z+3, r1	; 0x03
    25c0:	12 82       	std	Z+2, r1	; 0x02
    25c2:	b0 93 cb 01 	sts	0x01CB, r27	; 0x8001cb <__brkval+0x1>
    25c6:	a0 93 ca 01 	sts	0x01CA, r26	; 0x8001ca <__brkval>
    25ca:	df 91       	pop	r29
    25cc:	cf 91       	pop	r28
    25ce:	08 95       	ret

000025d0 <realloc>:
    25d0:	a0 e0       	ldi	r26, 0x00	; 0
    25d2:	b0 e0       	ldi	r27, 0x00	; 0
    25d4:	ee ee       	ldi	r30, 0xEE	; 238
    25d6:	f2 e1       	ldi	r31, 0x12	; 18
    25d8:	0c 94 e2 16 	jmp	0x2dc4	; 0x2dc4 <__prologue_saves__+0x8>
    25dc:	ec 01       	movw	r28, r24
    25de:	00 97       	sbiw	r24, 0x00	; 0
    25e0:	21 f4       	brne	.+8      	; 0x25ea <realloc+0x1a>
    25e2:	cb 01       	movw	r24, r22
    25e4:	0e 94 c7 11 	call	0x238e	; 0x238e <malloc>
    25e8:	b4 c0       	rjmp	.+360    	; 0x2752 <realloc+0x182>
    25ea:	fc 01       	movw	r30, r24
    25ec:	e6 0f       	add	r30, r22
    25ee:	f7 1f       	adc	r31, r23
    25f0:	9c 01       	movw	r18, r24
    25f2:	22 50       	subi	r18, 0x02	; 2
    25f4:	31 09       	sbc	r19, r1
    25f6:	e2 17       	cp	r30, r18
    25f8:	f3 07       	cpc	r31, r19
    25fa:	08 f4       	brcc	.+2      	; 0x25fe <realloc+0x2e>
    25fc:	a8 c0       	rjmp	.+336    	; 0x274e <realloc+0x17e>
    25fe:	d9 01       	movw	r26, r18
    2600:	0d 91       	ld	r16, X+
    2602:	1c 91       	ld	r17, X
    2604:	11 97       	sbiw	r26, 0x01	; 1
    2606:	06 17       	cp	r16, r22
    2608:	17 07       	cpc	r17, r23
    260a:	b0 f0       	brcs	.+44     	; 0x2638 <realloc+0x68>
    260c:	05 30       	cpi	r16, 0x05	; 5
    260e:	11 05       	cpc	r17, r1
    2610:	08 f4       	brcc	.+2      	; 0x2614 <realloc+0x44>
    2612:	9b c0       	rjmp	.+310    	; 0x274a <realloc+0x17a>
    2614:	c8 01       	movw	r24, r16
    2616:	04 97       	sbiw	r24, 0x04	; 4
    2618:	86 17       	cp	r24, r22
    261a:	97 07       	cpc	r25, r23
    261c:	08 f4       	brcc	.+2      	; 0x2620 <realloc+0x50>
    261e:	95 c0       	rjmp	.+298    	; 0x274a <realloc+0x17a>
    2620:	02 50       	subi	r16, 0x02	; 2
    2622:	11 09       	sbc	r17, r1
    2624:	06 1b       	sub	r16, r22
    2626:	17 0b       	sbc	r17, r23
    2628:	01 93       	st	Z+, r16
    262a:	11 93       	st	Z+, r17
    262c:	6d 93       	st	X+, r22
    262e:	7c 93       	st	X, r23
    2630:	cf 01       	movw	r24, r30
    2632:	0e 94 5f 12 	call	0x24be	; 0x24be <free>
    2636:	89 c0       	rjmp	.+274    	; 0x274a <realloc+0x17a>
    2638:	5b 01       	movw	r10, r22
    263a:	a0 1a       	sub	r10, r16
    263c:	b1 0a       	sbc	r11, r17
    263e:	4c 01       	movw	r8, r24
    2640:	80 0e       	add	r8, r16
    2642:	91 1e       	adc	r9, r17
    2644:	a0 91 cc 01 	lds	r26, 0x01CC	; 0x8001cc <__flp>
    2648:	b0 91 cd 01 	lds	r27, 0x01CD	; 0x8001cd <__flp+0x1>
    264c:	61 2c       	mov	r6, r1
    264e:	71 2c       	mov	r7, r1
    2650:	e1 2c       	mov	r14, r1
    2652:	f1 2c       	mov	r15, r1
    2654:	10 97       	sbiw	r26, 0x00	; 0
    2656:	09 f4       	brne	.+2      	; 0x265a <realloc+0x8a>
    2658:	46 c0       	rjmp	.+140    	; 0x26e6 <realloc+0x116>
    265a:	8d 91       	ld	r24, X+
    265c:	9c 91       	ld	r25, X
    265e:	11 97       	sbiw	r26, 0x01	; 1
    2660:	a8 15       	cp	r26, r8
    2662:	b9 05       	cpc	r27, r9
    2664:	b1 f5       	brne	.+108    	; 0x26d2 <realloc+0x102>
    2666:	6c 01       	movw	r12, r24
    2668:	42 e0       	ldi	r20, 0x02	; 2
    266a:	c4 0e       	add	r12, r20
    266c:	d1 1c       	adc	r13, r1
    266e:	ca 14       	cp	r12, r10
    2670:	db 04       	cpc	r13, r11
    2672:	78 f1       	brcs	.+94     	; 0x26d2 <realloc+0x102>
    2674:	4c 01       	movw	r8, r24
    2676:	8a 18       	sub	r8, r10
    2678:	9b 08       	sbc	r9, r11
    267a:	64 01       	movw	r12, r8
    267c:	42 e0       	ldi	r20, 0x02	; 2
    267e:	c4 0e       	add	r12, r20
    2680:	d1 1c       	adc	r13, r1
    2682:	12 96       	adiw	r26, 0x02	; 2
    2684:	bc 90       	ld	r11, X
    2686:	12 97       	sbiw	r26, 0x02	; 2
    2688:	13 96       	adiw	r26, 0x03	; 3
    268a:	ac 91       	ld	r26, X
    268c:	b5 e0       	ldi	r27, 0x05	; 5
    268e:	cb 16       	cp	r12, r27
    2690:	d1 04       	cpc	r13, r1
    2692:	40 f0       	brcs	.+16     	; 0x26a4 <realloc+0xd4>
    2694:	b2 82       	std	Z+2, r11	; 0x02
    2696:	a3 83       	std	Z+3, r26	; 0x03
    2698:	91 82       	std	Z+1, r9	; 0x01
    269a:	80 82       	st	Z, r8
    269c:	d9 01       	movw	r26, r18
    269e:	6d 93       	st	X+, r22
    26a0:	7c 93       	st	X, r23
    26a2:	09 c0       	rjmp	.+18     	; 0x26b6 <realloc+0xe6>
    26a4:	0e 5f       	subi	r16, 0xFE	; 254
    26a6:	1f 4f       	sbci	r17, 0xFF	; 255
    26a8:	80 0f       	add	r24, r16
    26aa:	91 1f       	adc	r25, r17
    26ac:	f9 01       	movw	r30, r18
    26ae:	91 83       	std	Z+1, r25	; 0x01
    26b0:	80 83       	st	Z, r24
    26b2:	eb 2d       	mov	r30, r11
    26b4:	fa 2f       	mov	r31, r26
    26b6:	e1 14       	cp	r14, r1
    26b8:	f1 04       	cpc	r15, r1
    26ba:	31 f0       	breq	.+12     	; 0x26c8 <realloc+0xf8>
    26bc:	d7 01       	movw	r26, r14
    26be:	13 96       	adiw	r26, 0x03	; 3
    26c0:	fc 93       	st	X, r31
    26c2:	ee 93       	st	-X, r30
    26c4:	12 97       	sbiw	r26, 0x02	; 2
    26c6:	41 c0       	rjmp	.+130    	; 0x274a <realloc+0x17a>
    26c8:	f0 93 cd 01 	sts	0x01CD, r31	; 0x8001cd <__flp+0x1>
    26cc:	e0 93 cc 01 	sts	0x01CC, r30	; 0x8001cc <__flp>
    26d0:	3c c0       	rjmp	.+120    	; 0x274a <realloc+0x17a>
    26d2:	68 16       	cp	r6, r24
    26d4:	79 06       	cpc	r7, r25
    26d6:	08 f4       	brcc	.+2      	; 0x26da <realloc+0x10a>
    26d8:	3c 01       	movw	r6, r24
    26da:	7d 01       	movw	r14, r26
    26dc:	12 96       	adiw	r26, 0x02	; 2
    26de:	0d 90       	ld	r0, X+
    26e0:	bc 91       	ld	r27, X
    26e2:	a0 2d       	mov	r26, r0
    26e4:	b7 cf       	rjmp	.-146    	; 0x2654 <realloc+0x84>
    26e6:	80 91 ca 01 	lds	r24, 0x01CA	; 0x8001ca <__brkval>
    26ea:	90 91 cb 01 	lds	r25, 0x01CB	; 0x8001cb <__brkval+0x1>
    26ee:	88 16       	cp	r8, r24
    26f0:	99 06       	cpc	r9, r25
    26f2:	e1 f4       	brne	.+56     	; 0x272c <realloc+0x15c>
    26f4:	66 16       	cp	r6, r22
    26f6:	77 06       	cpc	r7, r23
    26f8:	c8 f4       	brcc	.+50     	; 0x272c <realloc+0x15c>
    26fa:	80 91 00 01 	lds	r24, 0x0100	; 0x800100 <__data_start>
    26fe:	90 91 01 01 	lds	r25, 0x0101	; 0x800101 <__data_start+0x1>
    2702:	00 97       	sbiw	r24, 0x00	; 0
    2704:	41 f4       	brne	.+16     	; 0x2716 <realloc+0x146>
    2706:	8d b7       	in	r24, 0x3d	; 61
    2708:	9e b7       	in	r25, 0x3e	; 62
    270a:	40 91 04 01 	lds	r20, 0x0104	; 0x800104 <__malloc_margin>
    270e:	50 91 05 01 	lds	r21, 0x0105	; 0x800105 <__malloc_margin+0x1>
    2712:	84 1b       	sub	r24, r20
    2714:	95 0b       	sbc	r25, r21
    2716:	e8 17       	cp	r30, r24
    2718:	f9 07       	cpc	r31, r25
    271a:	c8 f4       	brcc	.+50     	; 0x274e <realloc+0x17e>
    271c:	f0 93 cb 01 	sts	0x01CB, r31	; 0x8001cb <__brkval+0x1>
    2720:	e0 93 ca 01 	sts	0x01CA, r30	; 0x8001ca <__brkval>
    2724:	f9 01       	movw	r30, r18
    2726:	71 83       	std	Z+1, r23	; 0x01
    2728:	60 83       	st	Z, r22
    272a:	0f c0       	rjmp	.+30     	; 0x274a <realloc+0x17a>
    272c:	cb 01       	movw	r24, r22
    272e:	0e 94 c7 11 	call	0x238e	; 0x238e <malloc>
    2732:	7c 01       	movw	r14, r24
    2734:	00 97       	sbiw	r24, 0x00	; 0
    2736:	59 f0       	breq	.+22     	; 0x274e <realloc+0x17e>
    2738:	a8 01       	movw	r20, r16
    273a:	be 01       	movw	r22, r28
    273c:	0e 94 b5 13 	call	0x276a	; 0x276a <memcpy>
    2740:	ce 01       	movw	r24, r28
    2742:	0e 94 5f 12 	call	0x24be	; 0x24be <free>
    2746:	c7 01       	movw	r24, r14
    2748:	04 c0       	rjmp	.+8      	; 0x2752 <realloc+0x182>
    274a:	ce 01       	movw	r24, r28
    274c:	02 c0       	rjmp	.+4      	; 0x2752 <realloc+0x182>
    274e:	80 e0       	ldi	r24, 0x00	; 0
    2750:	90 e0       	ldi	r25, 0x00	; 0
    2752:	cd b7       	in	r28, 0x3d	; 61
    2754:	de b7       	in	r29, 0x3e	; 62
    2756:	ee e0       	ldi	r30, 0x0E	; 14
    2758:	0c 94 fe 16 	jmp	0x2dfc	; 0x2dfc <__epilogue_restores__+0x8>

0000275c <strcpy_P>:
    275c:	fb 01       	movw	r30, r22
    275e:	dc 01       	movw	r26, r24
    2760:	05 90       	lpm	r0, Z+
    2762:	0d 92       	st	X+, r0
    2764:	00 20       	and	r0, r0
    2766:	e1 f7       	brne	.-8      	; 0x2760 <strcpy_P+0x4>
    2768:	08 95       	ret

0000276a <memcpy>:
    276a:	fb 01       	movw	r30, r22
    276c:	dc 01       	movw	r26, r24
    276e:	02 c0       	rjmp	.+4      	; 0x2774 <memcpy+0xa>
    2770:	01 90       	ld	r0, Z+
    2772:	0d 92       	st	X+, r0
    2774:	41 50       	subi	r20, 0x01	; 1
    2776:	50 40       	sbci	r21, 0x00	; 0
    2778:	d8 f7       	brcc	.-10     	; 0x2770 <memcpy+0x6>
    277a:	08 95       	ret

0000277c <strcat>:
    277c:	fb 01       	movw	r30, r22
    277e:	dc 01       	movw	r26, r24
    2780:	0d 90       	ld	r0, X+
    2782:	00 20       	and	r0, r0
    2784:	e9 f7       	brne	.-6      	; 0x2780 <strcat+0x4>
    2786:	11 97       	sbiw	r26, 0x01	; 1
    2788:	01 90       	ld	r0, Z+
    278a:	0d 92       	st	X+, r0
    278c:	00 20       	and	r0, r0
    278e:	e1 f7       	brne	.-8      	; 0x2788 <strcat+0xc>
    2790:	08 95       	ret

00002792 <fdevopen>:
    2792:	0f 93       	push	r16
    2794:	1f 93       	push	r17
    2796:	cf 93       	push	r28
    2798:	df 93       	push	r29
    279a:	00 97       	sbiw	r24, 0x00	; 0
    279c:	31 f4       	brne	.+12     	; 0x27aa <fdevopen+0x18>
    279e:	61 15       	cp	r22, r1
    27a0:	71 05       	cpc	r23, r1
    27a2:	19 f4       	brne	.+6      	; 0x27aa <fdevopen+0x18>
    27a4:	80 e0       	ldi	r24, 0x00	; 0
    27a6:	90 e0       	ldi	r25, 0x00	; 0
    27a8:	3a c0       	rjmp	.+116    	; 0x281e <fdevopen+0x8c>
    27aa:	8b 01       	movw	r16, r22
    27ac:	ec 01       	movw	r28, r24
    27ae:	6e e0       	ldi	r22, 0x0E	; 14
    27b0:	70 e0       	ldi	r23, 0x00	; 0
    27b2:	81 e0       	ldi	r24, 0x01	; 1
    27b4:	90 e0       	ldi	r25, 0x00	; 0
    27b6:	0e 94 0b 16 	call	0x2c16	; 0x2c16 <calloc>
    27ba:	fc 01       	movw	r30, r24
    27bc:	89 2b       	or	r24, r25
    27be:	91 f3       	breq	.-28     	; 0x27a4 <fdevopen+0x12>
    27c0:	80 e8       	ldi	r24, 0x80	; 128
    27c2:	83 83       	std	Z+3, r24	; 0x03
    27c4:	01 15       	cp	r16, r1
    27c6:	11 05       	cpc	r17, r1
    27c8:	71 f0       	breq	.+28     	; 0x27e6 <fdevopen+0x54>
    27ca:	13 87       	std	Z+11, r17	; 0x0b
    27cc:	02 87       	std	Z+10, r16	; 0x0a
    27ce:	81 e8       	ldi	r24, 0x81	; 129
    27d0:	83 83       	std	Z+3, r24	; 0x03
    27d2:	80 91 ce 01 	lds	r24, 0x01CE	; 0x8001ce <__iob>
    27d6:	90 91 cf 01 	lds	r25, 0x01CF	; 0x8001cf <__iob+0x1>
    27da:	89 2b       	or	r24, r25
    27dc:	21 f4       	brne	.+8      	; 0x27e6 <fdevopen+0x54>
    27de:	f0 93 cf 01 	sts	0x01CF, r31	; 0x8001cf <__iob+0x1>
    27e2:	e0 93 ce 01 	sts	0x01CE, r30	; 0x8001ce <__iob>
    27e6:	20 97       	sbiw	r28, 0x00	; 0
    27e8:	c9 f0       	breq	.+50     	; 0x281c <fdevopen+0x8a>
    27ea:	d1 87       	std	Z+9, r29	; 0x09
    27ec:	c0 87       	std	Z+8, r28	; 0x08
    27ee:	83 81       	ldd	r24, Z+3	; 0x03
    27f0:	82 60       	ori	r24, 0x02	; 2
    27f2:	83 83       	std	Z+3, r24	; 0x03
    27f4:	80 91 d0 01 	lds	r24, 0x01D0	; 0x8001d0 <__iob+0x2>
    27f8:	90 91 d1 01 	lds	r25, 0x01D1	; 0x8001d1 <__iob+0x3>
    27fc:	89 2b       	or	r24, r25
    27fe:	71 f4       	brne	.+28     	; 0x281c <fdevopen+0x8a>
    2800:	f0 93 d1 01 	sts	0x01D1, r31	; 0x8001d1 <__iob+0x3>
    2804:	e0 93 d0 01 	sts	0x01D0, r30	; 0x8001d0 <__iob+0x2>
    2808:	80 91 d2 01 	lds	r24, 0x01D2	; 0x8001d2 <__iob+0x4>
    280c:	90 91 d3 01 	lds	r25, 0x01D3	; 0x8001d3 <__iob+0x5>
    2810:	89 2b       	or	r24, r25
    2812:	21 f4       	brne	.+8      	; 0x281c <fdevopen+0x8a>
    2814:	f0 93 d3 01 	sts	0x01D3, r31	; 0x8001d3 <__iob+0x5>
    2818:	e0 93 d2 01 	sts	0x01D2, r30	; 0x8001d2 <__iob+0x4>
    281c:	cf 01       	movw	r24, r30
    281e:	df 91       	pop	r29
    2820:	cf 91       	pop	r28
    2822:	1f 91       	pop	r17
    2824:	0f 91       	pop	r16
    2826:	08 95       	ret

00002828 <printf>:
    2828:	a0 e0       	ldi	r26, 0x00	; 0
    282a:	b0 e0       	ldi	r27, 0x00	; 0
    282c:	ea e1       	ldi	r30, 0x1A	; 26
    282e:	f4 e1       	ldi	r31, 0x14	; 20
    2830:	0c 94 ee 16 	jmp	0x2ddc	; 0x2ddc <__prologue_saves__+0x20>
    2834:	ae 01       	movw	r20, r28
    2836:	4b 5f       	subi	r20, 0xFB	; 251
    2838:	5f 4f       	sbci	r21, 0xFF	; 255
    283a:	fa 01       	movw	r30, r20
    283c:	61 91       	ld	r22, Z+
    283e:	71 91       	ld	r23, Z+
    2840:	af 01       	movw	r20, r30
    2842:	80 91 d0 01 	lds	r24, 0x01D0	; 0x8001d0 <__iob+0x2>
    2846:	90 91 d1 01 	lds	r25, 0x01D1	; 0x8001d1 <__iob+0x3>
    284a:	0e 94 2a 14 	call	0x2854	; 0x2854 <vfprintf>
    284e:	e2 e0       	ldi	r30, 0x02	; 2
    2850:	0c 94 0a 17 	jmp	0x2e14	; 0x2e14 <__epilogue_restores__+0x20>

00002854 <vfprintf>:
    2854:	ab e0       	ldi	r26, 0x0B	; 11
    2856:	b0 e0       	ldi	r27, 0x00	; 0
    2858:	e0 e3       	ldi	r30, 0x30	; 48
    285a:	f4 e1       	ldi	r31, 0x14	; 20
    285c:	0c 94 de 16 	jmp	0x2dbc	; 0x2dbc <__prologue_saves__>
    2860:	6c 01       	movw	r12, r24
    2862:	7b 01       	movw	r14, r22
    2864:	8a 01       	movw	r16, r20
    2866:	fc 01       	movw	r30, r24
    2868:	17 82       	std	Z+7, r1	; 0x07
    286a:	16 82       	std	Z+6, r1	; 0x06
    286c:	83 81       	ldd	r24, Z+3	; 0x03
    286e:	81 ff       	sbrs	r24, 1
    2870:	cc c1       	rjmp	.+920    	; 0x2c0a <vfprintf+0x3b6>
    2872:	ce 01       	movw	r24, r28
    2874:	01 96       	adiw	r24, 0x01	; 1
    2876:	3c 01       	movw	r6, r24
    2878:	f6 01       	movw	r30, r12
    287a:	93 81       	ldd	r25, Z+3	; 0x03
    287c:	f7 01       	movw	r30, r14
    287e:	93 fd       	sbrc	r25, 3
    2880:	85 91       	lpm	r24, Z+
    2882:	93 ff       	sbrs	r25, 3
    2884:	81 91       	ld	r24, Z+
    2886:	7f 01       	movw	r14, r30
    2888:	88 23       	and	r24, r24
    288a:	09 f4       	brne	.+2      	; 0x288e <vfprintf+0x3a>
    288c:	ba c1       	rjmp	.+884    	; 0x2c02 <vfprintf+0x3ae>
    288e:	85 32       	cpi	r24, 0x25	; 37
    2890:	39 f4       	brne	.+14     	; 0x28a0 <vfprintf+0x4c>
    2892:	93 fd       	sbrc	r25, 3
    2894:	85 91       	lpm	r24, Z+
    2896:	93 ff       	sbrs	r25, 3
    2898:	81 91       	ld	r24, Z+
    289a:	7f 01       	movw	r14, r30
    289c:	85 32       	cpi	r24, 0x25	; 37
    289e:	29 f4       	brne	.+10     	; 0x28aa <vfprintf+0x56>
    28a0:	b6 01       	movw	r22, r12
    28a2:	90 e0       	ldi	r25, 0x00	; 0
    28a4:	0e 94 44 16 	call	0x2c88	; 0x2c88 <fputc>
    28a8:	e7 cf       	rjmp	.-50     	; 0x2878 <vfprintf+0x24>
    28aa:	91 2c       	mov	r9, r1
    28ac:	21 2c       	mov	r2, r1
    28ae:	31 2c       	mov	r3, r1
    28b0:	ff e1       	ldi	r31, 0x1F	; 31
    28b2:	f3 15       	cp	r31, r3
    28b4:	d8 f0       	brcs	.+54     	; 0x28ec <vfprintf+0x98>
    28b6:	8b 32       	cpi	r24, 0x2B	; 43
    28b8:	79 f0       	breq	.+30     	; 0x28d8 <vfprintf+0x84>
    28ba:	38 f4       	brcc	.+14     	; 0x28ca <vfprintf+0x76>
    28bc:	80 32       	cpi	r24, 0x20	; 32
    28be:	79 f0       	breq	.+30     	; 0x28de <vfprintf+0x8a>
    28c0:	83 32       	cpi	r24, 0x23	; 35
    28c2:	a1 f4       	brne	.+40     	; 0x28ec <vfprintf+0x98>
    28c4:	23 2d       	mov	r18, r3
    28c6:	20 61       	ori	r18, 0x10	; 16
    28c8:	1d c0       	rjmp	.+58     	; 0x2904 <vfprintf+0xb0>
    28ca:	8d 32       	cpi	r24, 0x2D	; 45
    28cc:	61 f0       	breq	.+24     	; 0x28e6 <vfprintf+0x92>
    28ce:	80 33       	cpi	r24, 0x30	; 48
    28d0:	69 f4       	brne	.+26     	; 0x28ec <vfprintf+0x98>
    28d2:	23 2d       	mov	r18, r3
    28d4:	21 60       	ori	r18, 0x01	; 1
    28d6:	16 c0       	rjmp	.+44     	; 0x2904 <vfprintf+0xb0>
    28d8:	83 2d       	mov	r24, r3
    28da:	82 60       	ori	r24, 0x02	; 2
    28dc:	38 2e       	mov	r3, r24
    28de:	e3 2d       	mov	r30, r3
    28e0:	e4 60       	ori	r30, 0x04	; 4
    28e2:	3e 2e       	mov	r3, r30
    28e4:	2a c0       	rjmp	.+84     	; 0x293a <vfprintf+0xe6>
    28e6:	f3 2d       	mov	r31, r3
    28e8:	f8 60       	ori	r31, 0x08	; 8
    28ea:	1d c0       	rjmp	.+58     	; 0x2926 <vfprintf+0xd2>
    28ec:	37 fc       	sbrc	r3, 7
    28ee:	2d c0       	rjmp	.+90     	; 0x294a <vfprintf+0xf6>
    28f0:	20 ed       	ldi	r18, 0xD0	; 208
    28f2:	28 0f       	add	r18, r24
    28f4:	2a 30       	cpi	r18, 0x0A	; 10
    28f6:	40 f0       	brcs	.+16     	; 0x2908 <vfprintf+0xb4>
    28f8:	8e 32       	cpi	r24, 0x2E	; 46
    28fa:	b9 f4       	brne	.+46     	; 0x292a <vfprintf+0xd6>
    28fc:	36 fc       	sbrc	r3, 6
    28fe:	81 c1       	rjmp	.+770    	; 0x2c02 <vfprintf+0x3ae>
    2900:	23 2d       	mov	r18, r3
    2902:	20 64       	ori	r18, 0x40	; 64
    2904:	32 2e       	mov	r3, r18
    2906:	19 c0       	rjmp	.+50     	; 0x293a <vfprintf+0xe6>
    2908:	36 fe       	sbrs	r3, 6
    290a:	06 c0       	rjmp	.+12     	; 0x2918 <vfprintf+0xc4>
    290c:	8a e0       	ldi	r24, 0x0A	; 10
    290e:	98 9e       	mul	r9, r24
    2910:	20 0d       	add	r18, r0
    2912:	11 24       	eor	r1, r1
    2914:	92 2e       	mov	r9, r18
    2916:	11 c0       	rjmp	.+34     	; 0x293a <vfprintf+0xe6>
    2918:	ea e0       	ldi	r30, 0x0A	; 10
    291a:	2e 9e       	mul	r2, r30
    291c:	20 0d       	add	r18, r0
    291e:	11 24       	eor	r1, r1
    2920:	22 2e       	mov	r2, r18
    2922:	f3 2d       	mov	r31, r3
    2924:	f0 62       	ori	r31, 0x20	; 32
    2926:	3f 2e       	mov	r3, r31
    2928:	08 c0       	rjmp	.+16     	; 0x293a <vfprintf+0xe6>
    292a:	8c 36       	cpi	r24, 0x6C	; 108
    292c:	21 f4       	brne	.+8      	; 0x2936 <vfprintf+0xe2>
    292e:	83 2d       	mov	r24, r3
    2930:	80 68       	ori	r24, 0x80	; 128
    2932:	38 2e       	mov	r3, r24
    2934:	02 c0       	rjmp	.+4      	; 0x293a <vfprintf+0xe6>
    2936:	88 36       	cpi	r24, 0x68	; 104
    2938:	41 f4       	brne	.+16     	; 0x294a <vfprintf+0xf6>
    293a:	f7 01       	movw	r30, r14
    293c:	93 fd       	sbrc	r25, 3
    293e:	85 91       	lpm	r24, Z+
    2940:	93 ff       	sbrs	r25, 3
    2942:	81 91       	ld	r24, Z+
    2944:	7f 01       	movw	r14, r30
    2946:	81 11       	cpse	r24, r1
    2948:	b3 cf       	rjmp	.-154    	; 0x28b0 <vfprintf+0x5c>
    294a:	98 2f       	mov	r25, r24
    294c:	9f 7d       	andi	r25, 0xDF	; 223
    294e:	95 54       	subi	r25, 0x45	; 69
    2950:	93 30       	cpi	r25, 0x03	; 3
    2952:	28 f4       	brcc	.+10     	; 0x295e <vfprintf+0x10a>
    2954:	0c 5f       	subi	r16, 0xFC	; 252
    2956:	1f 4f       	sbci	r17, 0xFF	; 255
    2958:	9f e3       	ldi	r25, 0x3F	; 63
    295a:	99 83       	std	Y+1, r25	; 0x01
    295c:	0d c0       	rjmp	.+26     	; 0x2978 <vfprintf+0x124>
    295e:	83 36       	cpi	r24, 0x63	; 99
    2960:	31 f0       	breq	.+12     	; 0x296e <vfprintf+0x11a>
    2962:	83 37       	cpi	r24, 0x73	; 115
    2964:	71 f0       	breq	.+28     	; 0x2982 <vfprintf+0x12e>
    2966:	83 35       	cpi	r24, 0x53	; 83
    2968:	09 f0       	breq	.+2      	; 0x296c <vfprintf+0x118>
    296a:	59 c0       	rjmp	.+178    	; 0x2a1e <vfprintf+0x1ca>
    296c:	21 c0       	rjmp	.+66     	; 0x29b0 <vfprintf+0x15c>
    296e:	f8 01       	movw	r30, r16
    2970:	80 81       	ld	r24, Z
    2972:	89 83       	std	Y+1, r24	; 0x01
    2974:	0e 5f       	subi	r16, 0xFE	; 254
    2976:	1f 4f       	sbci	r17, 0xFF	; 255
    2978:	88 24       	eor	r8, r8
    297a:	83 94       	inc	r8
    297c:	91 2c       	mov	r9, r1
    297e:	53 01       	movw	r10, r6
    2980:	13 c0       	rjmp	.+38     	; 0x29a8 <vfprintf+0x154>
    2982:	28 01       	movw	r4, r16
    2984:	f2 e0       	ldi	r31, 0x02	; 2
    2986:	4f 0e       	add	r4, r31
    2988:	51 1c       	adc	r5, r1
    298a:	f8 01       	movw	r30, r16
    298c:	a0 80       	ld	r10, Z
    298e:	b1 80       	ldd	r11, Z+1	; 0x01
    2990:	36 fe       	sbrs	r3, 6
    2992:	03 c0       	rjmp	.+6      	; 0x299a <vfprintf+0x146>
    2994:	69 2d       	mov	r22, r9
    2996:	70 e0       	ldi	r23, 0x00	; 0
    2998:	02 c0       	rjmp	.+4      	; 0x299e <vfprintf+0x14a>
    299a:	6f ef       	ldi	r22, 0xFF	; 255
    299c:	7f ef       	ldi	r23, 0xFF	; 255
    299e:	c5 01       	movw	r24, r10
    29a0:	0e 94 39 16 	call	0x2c72	; 0x2c72 <strnlen>
    29a4:	4c 01       	movw	r8, r24
    29a6:	82 01       	movw	r16, r4
    29a8:	f3 2d       	mov	r31, r3
    29aa:	ff 77       	andi	r31, 0x7F	; 127
    29ac:	3f 2e       	mov	r3, r31
    29ae:	16 c0       	rjmp	.+44     	; 0x29dc <vfprintf+0x188>
    29b0:	28 01       	movw	r4, r16
    29b2:	22 e0       	ldi	r18, 0x02	; 2
    29b4:	42 0e       	add	r4, r18
    29b6:	51 1c       	adc	r5, r1
    29b8:	f8 01       	movw	r30, r16
    29ba:	a0 80       	ld	r10, Z
    29bc:	b1 80       	ldd	r11, Z+1	; 0x01
    29be:	36 fe       	sbrs	r3, 6
    29c0:	03 c0       	rjmp	.+6      	; 0x29c8 <vfprintf+0x174>
    29c2:	69 2d       	mov	r22, r9
    29c4:	70 e0       	ldi	r23, 0x00	; 0
    29c6:	02 c0       	rjmp	.+4      	; 0x29cc <vfprintf+0x178>
    29c8:	6f ef       	ldi	r22, 0xFF	; 255
    29ca:	7f ef       	ldi	r23, 0xFF	; 255
    29cc:	c5 01       	movw	r24, r10
    29ce:	0e 94 27 16 	call	0x2c4e	; 0x2c4e <strnlen_P>
    29d2:	4c 01       	movw	r8, r24
    29d4:	f3 2d       	mov	r31, r3
    29d6:	f0 68       	ori	r31, 0x80	; 128
    29d8:	3f 2e       	mov	r3, r31
    29da:	82 01       	movw	r16, r4
    29dc:	33 fc       	sbrc	r3, 3
    29de:	1b c0       	rjmp	.+54     	; 0x2a16 <vfprintf+0x1c2>
    29e0:	82 2d       	mov	r24, r2
    29e2:	90 e0       	ldi	r25, 0x00	; 0
    29e4:	88 16       	cp	r8, r24
    29e6:	99 06       	cpc	r9, r25
    29e8:	b0 f4       	brcc	.+44     	; 0x2a16 <vfprintf+0x1c2>
    29ea:	b6 01       	movw	r22, r12
    29ec:	80 e2       	ldi	r24, 0x20	; 32
    29ee:	90 e0       	ldi	r25, 0x00	; 0
    29f0:	0e 94 44 16 	call	0x2c88	; 0x2c88 <fputc>
    29f4:	2a 94       	dec	r2
    29f6:	f4 cf       	rjmp	.-24     	; 0x29e0 <vfprintf+0x18c>
    29f8:	f5 01       	movw	r30, r10
    29fa:	37 fc       	sbrc	r3, 7
    29fc:	85 91       	lpm	r24, Z+
    29fe:	37 fe       	sbrs	r3, 7
    2a00:	81 91       	ld	r24, Z+
    2a02:	5f 01       	movw	r10, r30
    2a04:	b6 01       	movw	r22, r12
    2a06:	90 e0       	ldi	r25, 0x00	; 0
    2a08:	0e 94 44 16 	call	0x2c88	; 0x2c88 <fputc>
    2a0c:	21 10       	cpse	r2, r1
    2a0e:	2a 94       	dec	r2
    2a10:	21 e0       	ldi	r18, 0x01	; 1
    2a12:	82 1a       	sub	r8, r18
    2a14:	91 08       	sbc	r9, r1
    2a16:	81 14       	cp	r8, r1
    2a18:	91 04       	cpc	r9, r1
    2a1a:	71 f7       	brne	.-36     	; 0x29f8 <vfprintf+0x1a4>
    2a1c:	e8 c0       	rjmp	.+464    	; 0x2bee <vfprintf+0x39a>
    2a1e:	84 36       	cpi	r24, 0x64	; 100
    2a20:	11 f0       	breq	.+4      	; 0x2a26 <vfprintf+0x1d2>
    2a22:	89 36       	cpi	r24, 0x69	; 105
    2a24:	41 f5       	brne	.+80     	; 0x2a76 <vfprintf+0x222>
    2a26:	f8 01       	movw	r30, r16
    2a28:	37 fe       	sbrs	r3, 7
    2a2a:	07 c0       	rjmp	.+14     	; 0x2a3a <vfprintf+0x1e6>
    2a2c:	60 81       	ld	r22, Z
    2a2e:	71 81       	ldd	r23, Z+1	; 0x01
    2a30:	82 81       	ldd	r24, Z+2	; 0x02
    2a32:	93 81       	ldd	r25, Z+3	; 0x03
    2a34:	0c 5f       	subi	r16, 0xFC	; 252
    2a36:	1f 4f       	sbci	r17, 0xFF	; 255
    2a38:	08 c0       	rjmp	.+16     	; 0x2a4a <vfprintf+0x1f6>
    2a3a:	60 81       	ld	r22, Z
    2a3c:	71 81       	ldd	r23, Z+1	; 0x01
    2a3e:	07 2e       	mov	r0, r23
    2a40:	00 0c       	add	r0, r0
    2a42:	88 0b       	sbc	r24, r24
    2a44:	99 0b       	sbc	r25, r25
    2a46:	0e 5f       	subi	r16, 0xFE	; 254
    2a48:	1f 4f       	sbci	r17, 0xFF	; 255
    2a4a:	f3 2d       	mov	r31, r3
    2a4c:	ff 76       	andi	r31, 0x6F	; 111
    2a4e:	3f 2e       	mov	r3, r31
    2a50:	97 ff       	sbrs	r25, 7
    2a52:	09 c0       	rjmp	.+18     	; 0x2a66 <vfprintf+0x212>
    2a54:	90 95       	com	r25
    2a56:	80 95       	com	r24
    2a58:	70 95       	com	r23
    2a5a:	61 95       	neg	r22
    2a5c:	7f 4f       	sbci	r23, 0xFF	; 255
    2a5e:	8f 4f       	sbci	r24, 0xFF	; 255
    2a60:	9f 4f       	sbci	r25, 0xFF	; 255
    2a62:	f0 68       	ori	r31, 0x80	; 128
    2a64:	3f 2e       	mov	r3, r31
    2a66:	2a e0       	ldi	r18, 0x0A	; 10
    2a68:	30 e0       	ldi	r19, 0x00	; 0
    2a6a:	a3 01       	movw	r20, r6
    2a6c:	0e 94 80 16 	call	0x2d00	; 0x2d00 <__ultoa_invert>
    2a70:	88 2e       	mov	r8, r24
    2a72:	86 18       	sub	r8, r6
    2a74:	45 c0       	rjmp	.+138    	; 0x2b00 <vfprintf+0x2ac>
    2a76:	85 37       	cpi	r24, 0x75	; 117
    2a78:	31 f4       	brne	.+12     	; 0x2a86 <vfprintf+0x232>
    2a7a:	23 2d       	mov	r18, r3
    2a7c:	2f 7e       	andi	r18, 0xEF	; 239
    2a7e:	b2 2e       	mov	r11, r18
    2a80:	2a e0       	ldi	r18, 0x0A	; 10
    2a82:	30 e0       	ldi	r19, 0x00	; 0
    2a84:	25 c0       	rjmp	.+74     	; 0x2ad0 <vfprintf+0x27c>
    2a86:	93 2d       	mov	r25, r3
    2a88:	99 7f       	andi	r25, 0xF9	; 249
    2a8a:	b9 2e       	mov	r11, r25
    2a8c:	8f 36       	cpi	r24, 0x6F	; 111
    2a8e:	c1 f0       	breq	.+48     	; 0x2ac0 <vfprintf+0x26c>
    2a90:	18 f4       	brcc	.+6      	; 0x2a98 <vfprintf+0x244>
    2a92:	88 35       	cpi	r24, 0x58	; 88
    2a94:	79 f0       	breq	.+30     	; 0x2ab4 <vfprintf+0x260>
    2a96:	b5 c0       	rjmp	.+362    	; 0x2c02 <vfprintf+0x3ae>
    2a98:	80 37       	cpi	r24, 0x70	; 112
    2a9a:	19 f0       	breq	.+6      	; 0x2aa2 <vfprintf+0x24e>
    2a9c:	88 37       	cpi	r24, 0x78	; 120
    2a9e:	21 f0       	breq	.+8      	; 0x2aa8 <vfprintf+0x254>
    2aa0:	b0 c0       	rjmp	.+352    	; 0x2c02 <vfprintf+0x3ae>
    2aa2:	e9 2f       	mov	r30, r25
    2aa4:	e0 61       	ori	r30, 0x10	; 16
    2aa6:	be 2e       	mov	r11, r30
    2aa8:	b4 fe       	sbrs	r11, 4
    2aaa:	0d c0       	rjmp	.+26     	; 0x2ac6 <vfprintf+0x272>
    2aac:	fb 2d       	mov	r31, r11
    2aae:	f4 60       	ori	r31, 0x04	; 4
    2ab0:	bf 2e       	mov	r11, r31
    2ab2:	09 c0       	rjmp	.+18     	; 0x2ac6 <vfprintf+0x272>
    2ab4:	34 fe       	sbrs	r3, 4
    2ab6:	0a c0       	rjmp	.+20     	; 0x2acc <vfprintf+0x278>
    2ab8:	29 2f       	mov	r18, r25
    2aba:	26 60       	ori	r18, 0x06	; 6
    2abc:	b2 2e       	mov	r11, r18
    2abe:	06 c0       	rjmp	.+12     	; 0x2acc <vfprintf+0x278>
    2ac0:	28 e0       	ldi	r18, 0x08	; 8
    2ac2:	30 e0       	ldi	r19, 0x00	; 0
    2ac4:	05 c0       	rjmp	.+10     	; 0x2ad0 <vfprintf+0x27c>
    2ac6:	20 e1       	ldi	r18, 0x10	; 16
    2ac8:	30 e0       	ldi	r19, 0x00	; 0
    2aca:	02 c0       	rjmp	.+4      	; 0x2ad0 <vfprintf+0x27c>
    2acc:	20 e1       	ldi	r18, 0x10	; 16
    2ace:	32 e0       	ldi	r19, 0x02	; 2
    2ad0:	f8 01       	movw	r30, r16
    2ad2:	b7 fe       	sbrs	r11, 7
    2ad4:	07 c0       	rjmp	.+14     	; 0x2ae4 <vfprintf+0x290>
    2ad6:	60 81       	ld	r22, Z
    2ad8:	71 81       	ldd	r23, Z+1	; 0x01
    2ada:	82 81       	ldd	r24, Z+2	; 0x02
    2adc:	93 81       	ldd	r25, Z+3	; 0x03
    2ade:	0c 5f       	subi	r16, 0xFC	; 252
    2ae0:	1f 4f       	sbci	r17, 0xFF	; 255
    2ae2:	06 c0       	rjmp	.+12     	; 0x2af0 <vfprintf+0x29c>
    2ae4:	60 81       	ld	r22, Z
    2ae6:	71 81       	ldd	r23, Z+1	; 0x01
    2ae8:	80 e0       	ldi	r24, 0x00	; 0
    2aea:	90 e0       	ldi	r25, 0x00	; 0
    2aec:	0e 5f       	subi	r16, 0xFE	; 254
    2aee:	1f 4f       	sbci	r17, 0xFF	; 255
    2af0:	a3 01       	movw	r20, r6
    2af2:	0e 94 80 16 	call	0x2d00	; 0x2d00 <__ultoa_invert>
    2af6:	88 2e       	mov	r8, r24
    2af8:	86 18       	sub	r8, r6
    2afa:	fb 2d       	mov	r31, r11
    2afc:	ff 77       	andi	r31, 0x7F	; 127
    2afe:	3f 2e       	mov	r3, r31
    2b00:	36 fe       	sbrs	r3, 6
    2b02:	0d c0       	rjmp	.+26     	; 0x2b1e <vfprintf+0x2ca>
    2b04:	23 2d       	mov	r18, r3
    2b06:	2e 7f       	andi	r18, 0xFE	; 254
    2b08:	a2 2e       	mov	r10, r18
    2b0a:	89 14       	cp	r8, r9
    2b0c:	58 f4       	brcc	.+22     	; 0x2b24 <vfprintf+0x2d0>
    2b0e:	34 fe       	sbrs	r3, 4
    2b10:	0b c0       	rjmp	.+22     	; 0x2b28 <vfprintf+0x2d4>
    2b12:	32 fc       	sbrc	r3, 2
    2b14:	09 c0       	rjmp	.+18     	; 0x2b28 <vfprintf+0x2d4>
    2b16:	83 2d       	mov	r24, r3
    2b18:	8e 7e       	andi	r24, 0xEE	; 238
    2b1a:	a8 2e       	mov	r10, r24
    2b1c:	05 c0       	rjmp	.+10     	; 0x2b28 <vfprintf+0x2d4>
    2b1e:	b8 2c       	mov	r11, r8
    2b20:	a3 2c       	mov	r10, r3
    2b22:	03 c0       	rjmp	.+6      	; 0x2b2a <vfprintf+0x2d6>
    2b24:	b8 2c       	mov	r11, r8
    2b26:	01 c0       	rjmp	.+2      	; 0x2b2a <vfprintf+0x2d6>
    2b28:	b9 2c       	mov	r11, r9
    2b2a:	a4 fe       	sbrs	r10, 4
    2b2c:	0f c0       	rjmp	.+30     	; 0x2b4c <vfprintf+0x2f8>
    2b2e:	fe 01       	movw	r30, r28
    2b30:	e8 0d       	add	r30, r8
    2b32:	f1 1d       	adc	r31, r1
    2b34:	80 81       	ld	r24, Z
    2b36:	80 33       	cpi	r24, 0x30	; 48
    2b38:	21 f4       	brne	.+8      	; 0x2b42 <vfprintf+0x2ee>
    2b3a:	9a 2d       	mov	r25, r10
    2b3c:	99 7e       	andi	r25, 0xE9	; 233
    2b3e:	a9 2e       	mov	r10, r25
    2b40:	09 c0       	rjmp	.+18     	; 0x2b54 <vfprintf+0x300>
    2b42:	a2 fe       	sbrs	r10, 2
    2b44:	06 c0       	rjmp	.+12     	; 0x2b52 <vfprintf+0x2fe>
    2b46:	b3 94       	inc	r11
    2b48:	b3 94       	inc	r11
    2b4a:	04 c0       	rjmp	.+8      	; 0x2b54 <vfprintf+0x300>
    2b4c:	8a 2d       	mov	r24, r10
    2b4e:	86 78       	andi	r24, 0x86	; 134
    2b50:	09 f0       	breq	.+2      	; 0x2b54 <vfprintf+0x300>
    2b52:	b3 94       	inc	r11
    2b54:	a3 fc       	sbrc	r10, 3
    2b56:	11 c0       	rjmp	.+34     	; 0x2b7a <vfprintf+0x326>
    2b58:	a0 fe       	sbrs	r10, 0
    2b5a:	06 c0       	rjmp	.+12     	; 0x2b68 <vfprintf+0x314>
    2b5c:	b2 14       	cp	r11, r2
    2b5e:	88 f4       	brcc	.+34     	; 0x2b82 <vfprintf+0x32e>
    2b60:	28 0c       	add	r2, r8
    2b62:	92 2c       	mov	r9, r2
    2b64:	9b 18       	sub	r9, r11
    2b66:	0e c0       	rjmp	.+28     	; 0x2b84 <vfprintf+0x330>
    2b68:	b2 14       	cp	r11, r2
    2b6a:	60 f4       	brcc	.+24     	; 0x2b84 <vfprintf+0x330>
    2b6c:	b6 01       	movw	r22, r12
    2b6e:	80 e2       	ldi	r24, 0x20	; 32
    2b70:	90 e0       	ldi	r25, 0x00	; 0
    2b72:	0e 94 44 16 	call	0x2c88	; 0x2c88 <fputc>
    2b76:	b3 94       	inc	r11
    2b78:	f7 cf       	rjmp	.-18     	; 0x2b68 <vfprintf+0x314>
    2b7a:	b2 14       	cp	r11, r2
    2b7c:	18 f4       	brcc	.+6      	; 0x2b84 <vfprintf+0x330>
    2b7e:	2b 18       	sub	r2, r11
    2b80:	02 c0       	rjmp	.+4      	; 0x2b86 <vfprintf+0x332>
    2b82:	98 2c       	mov	r9, r8
    2b84:	21 2c       	mov	r2, r1
    2b86:	a4 fe       	sbrs	r10, 4
    2b88:	10 c0       	rjmp	.+32     	; 0x2baa <vfprintf+0x356>
    2b8a:	b6 01       	movw	r22, r12
    2b8c:	80 e3       	ldi	r24, 0x30	; 48
    2b8e:	90 e0       	ldi	r25, 0x00	; 0
    2b90:	0e 94 44 16 	call	0x2c88	; 0x2c88 <fputc>
    2b94:	a2 fe       	sbrs	r10, 2
    2b96:	17 c0       	rjmp	.+46     	; 0x2bc6 <vfprintf+0x372>
    2b98:	a1 fc       	sbrc	r10, 1
    2b9a:	03 c0       	rjmp	.+6      	; 0x2ba2 <vfprintf+0x34e>
    2b9c:	88 e7       	ldi	r24, 0x78	; 120
    2b9e:	90 e0       	ldi	r25, 0x00	; 0
    2ba0:	02 c0       	rjmp	.+4      	; 0x2ba6 <vfprintf+0x352>
    2ba2:	88 e5       	ldi	r24, 0x58	; 88
    2ba4:	90 e0       	ldi	r25, 0x00	; 0
    2ba6:	b6 01       	movw	r22, r12
    2ba8:	0c c0       	rjmp	.+24     	; 0x2bc2 <vfprintf+0x36e>
    2baa:	8a 2d       	mov	r24, r10
    2bac:	86 78       	andi	r24, 0x86	; 134
    2bae:	59 f0       	breq	.+22     	; 0x2bc6 <vfprintf+0x372>
    2bb0:	a1 fe       	sbrs	r10, 1
    2bb2:	02 c0       	rjmp	.+4      	; 0x2bb8 <vfprintf+0x364>
    2bb4:	8b e2       	ldi	r24, 0x2B	; 43
    2bb6:	01 c0       	rjmp	.+2      	; 0x2bba <vfprintf+0x366>
    2bb8:	80 e2       	ldi	r24, 0x20	; 32
    2bba:	a7 fc       	sbrc	r10, 7
    2bbc:	8d e2       	ldi	r24, 0x2D	; 45
    2bbe:	b6 01       	movw	r22, r12
    2bc0:	90 e0       	ldi	r25, 0x00	; 0
    2bc2:	0e 94 44 16 	call	0x2c88	; 0x2c88 <fputc>
    2bc6:	89 14       	cp	r8, r9
    2bc8:	38 f4       	brcc	.+14     	; 0x2bd8 <vfprintf+0x384>
    2bca:	b6 01       	movw	r22, r12
    2bcc:	80 e3       	ldi	r24, 0x30	; 48
    2bce:	90 e0       	ldi	r25, 0x00	; 0
    2bd0:	0e 94 44 16 	call	0x2c88	; 0x2c88 <fputc>
    2bd4:	9a 94       	dec	r9
    2bd6:	f7 cf       	rjmp	.-18     	; 0x2bc6 <vfprintf+0x372>
    2bd8:	8a 94       	dec	r8
    2bda:	f3 01       	movw	r30, r6
    2bdc:	e8 0d       	add	r30, r8
    2bde:	f1 1d       	adc	r31, r1
    2be0:	80 81       	ld	r24, Z
    2be2:	b6 01       	movw	r22, r12
    2be4:	90 e0       	ldi	r25, 0x00	; 0
    2be6:	0e 94 44 16 	call	0x2c88	; 0x2c88 <fputc>
    2bea:	81 10       	cpse	r8, r1
    2bec:	f5 cf       	rjmp	.-22     	; 0x2bd8 <vfprintf+0x384>
    2bee:	22 20       	and	r2, r2
    2bf0:	09 f4       	brne	.+2      	; 0x2bf4 <vfprintf+0x3a0>
    2bf2:	42 ce       	rjmp	.-892    	; 0x2878 <vfprintf+0x24>
    2bf4:	b6 01       	movw	r22, r12
    2bf6:	80 e2       	ldi	r24, 0x20	; 32
    2bf8:	90 e0       	ldi	r25, 0x00	; 0
    2bfa:	0e 94 44 16 	call	0x2c88	; 0x2c88 <fputc>
    2bfe:	2a 94       	dec	r2
    2c00:	f6 cf       	rjmp	.-20     	; 0x2bee <vfprintf+0x39a>
    2c02:	f6 01       	movw	r30, r12
    2c04:	86 81       	ldd	r24, Z+6	; 0x06
    2c06:	97 81       	ldd	r25, Z+7	; 0x07
    2c08:	02 c0       	rjmp	.+4      	; 0x2c0e <vfprintf+0x3ba>
    2c0a:	8f ef       	ldi	r24, 0xFF	; 255
    2c0c:	9f ef       	ldi	r25, 0xFF	; 255
    2c0e:	2b 96       	adiw	r28, 0x0b	; 11
    2c10:	e2 e1       	ldi	r30, 0x12	; 18
    2c12:	0c 94 fa 16 	jmp	0x2df4	; 0x2df4 <__epilogue_restores__>

00002c16 <calloc>:
    2c16:	0f 93       	push	r16
    2c18:	1f 93       	push	r17
    2c1a:	cf 93       	push	r28
    2c1c:	df 93       	push	r29
    2c1e:	86 9f       	mul	r24, r22
    2c20:	80 01       	movw	r16, r0
    2c22:	87 9f       	mul	r24, r23
    2c24:	10 0d       	add	r17, r0
    2c26:	96 9f       	mul	r25, r22
    2c28:	10 0d       	add	r17, r0
    2c2a:	11 24       	eor	r1, r1
    2c2c:	c8 01       	movw	r24, r16
    2c2e:	0e 94 c7 11 	call	0x238e	; 0x238e <malloc>
    2c32:	ec 01       	movw	r28, r24
    2c34:	00 97       	sbiw	r24, 0x00	; 0
    2c36:	29 f0       	breq	.+10     	; 0x2c42 <calloc+0x2c>
    2c38:	a8 01       	movw	r20, r16
    2c3a:	60 e0       	ldi	r22, 0x00	; 0
    2c3c:	70 e0       	ldi	r23, 0x00	; 0
    2c3e:	0e 94 32 16 	call	0x2c64	; 0x2c64 <memset>
    2c42:	ce 01       	movw	r24, r28
    2c44:	df 91       	pop	r29
    2c46:	cf 91       	pop	r28
    2c48:	1f 91       	pop	r17
    2c4a:	0f 91       	pop	r16
    2c4c:	08 95       	ret

00002c4e <strnlen_P>:
    2c4e:	fc 01       	movw	r30, r24
    2c50:	05 90       	lpm	r0, Z+
    2c52:	61 50       	subi	r22, 0x01	; 1
    2c54:	70 40       	sbci	r23, 0x00	; 0
    2c56:	01 10       	cpse	r0, r1
    2c58:	d8 f7       	brcc	.-10     	; 0x2c50 <strnlen_P+0x2>
    2c5a:	80 95       	com	r24
    2c5c:	90 95       	com	r25
    2c5e:	8e 0f       	add	r24, r30
    2c60:	9f 1f       	adc	r25, r31
    2c62:	08 95       	ret

00002c64 <memset>:
    2c64:	dc 01       	movw	r26, r24
    2c66:	01 c0       	rjmp	.+2      	; 0x2c6a <memset+0x6>
    2c68:	6d 93       	st	X+, r22
    2c6a:	41 50       	subi	r20, 0x01	; 1
    2c6c:	50 40       	sbci	r21, 0x00	; 0
    2c6e:	e0 f7       	brcc	.-8      	; 0x2c68 <memset+0x4>
    2c70:	08 95       	ret

00002c72 <strnlen>:
    2c72:	fc 01       	movw	r30, r24
    2c74:	61 50       	subi	r22, 0x01	; 1
    2c76:	70 40       	sbci	r23, 0x00	; 0
    2c78:	01 90       	ld	r0, Z+
    2c7a:	01 10       	cpse	r0, r1
    2c7c:	d8 f7       	brcc	.-10     	; 0x2c74 <strnlen+0x2>
    2c7e:	80 95       	com	r24
    2c80:	90 95       	com	r25
    2c82:	8e 0f       	add	r24, r30
    2c84:	9f 1f       	adc	r25, r31
    2c86:	08 95       	ret

00002c88 <fputc>:
    2c88:	0f 93       	push	r16
    2c8a:	1f 93       	push	r17
    2c8c:	cf 93       	push	r28
    2c8e:	df 93       	push	r29
    2c90:	fb 01       	movw	r30, r22
    2c92:	23 81       	ldd	r18, Z+3	; 0x03
    2c94:	21 fd       	sbrc	r18, 1
    2c96:	03 c0       	rjmp	.+6      	; 0x2c9e <fputc+0x16>
    2c98:	8f ef       	ldi	r24, 0xFF	; 255
    2c9a:	9f ef       	ldi	r25, 0xFF	; 255
    2c9c:	2c c0       	rjmp	.+88     	; 0x2cf6 <fputc+0x6e>
    2c9e:	22 ff       	sbrs	r18, 2
    2ca0:	16 c0       	rjmp	.+44     	; 0x2cce <fputc+0x46>
    2ca2:	46 81       	ldd	r20, Z+6	; 0x06
    2ca4:	57 81       	ldd	r21, Z+7	; 0x07
    2ca6:	24 81       	ldd	r18, Z+4	; 0x04
    2ca8:	35 81       	ldd	r19, Z+5	; 0x05
    2caa:	42 17       	cp	r20, r18
    2cac:	53 07       	cpc	r21, r19
    2cae:	44 f4       	brge	.+16     	; 0x2cc0 <fputc+0x38>
    2cb0:	a0 81       	ld	r26, Z
    2cb2:	b1 81       	ldd	r27, Z+1	; 0x01
    2cb4:	9d 01       	movw	r18, r26
    2cb6:	2f 5f       	subi	r18, 0xFF	; 255
    2cb8:	3f 4f       	sbci	r19, 0xFF	; 255
    2cba:	31 83       	std	Z+1, r19	; 0x01
    2cbc:	20 83       	st	Z, r18
    2cbe:	8c 93       	st	X, r24
    2cc0:	26 81       	ldd	r18, Z+6	; 0x06
    2cc2:	37 81       	ldd	r19, Z+7	; 0x07
    2cc4:	2f 5f       	subi	r18, 0xFF	; 255
    2cc6:	3f 4f       	sbci	r19, 0xFF	; 255
    2cc8:	37 83       	std	Z+7, r19	; 0x07
    2cca:	26 83       	std	Z+6, r18	; 0x06
    2ccc:	14 c0       	rjmp	.+40     	; 0x2cf6 <fputc+0x6e>
    2cce:	8b 01       	movw	r16, r22
    2cd0:	ec 01       	movw	r28, r24
    2cd2:	fb 01       	movw	r30, r22
    2cd4:	00 84       	ldd	r0, Z+8	; 0x08
    2cd6:	f1 85       	ldd	r31, Z+9	; 0x09
    2cd8:	e0 2d       	mov	r30, r0
    2cda:	09 95       	icall
    2cdc:	89 2b       	or	r24, r25
    2cde:	e1 f6       	brne	.-72     	; 0x2c98 <fputc+0x10>
    2ce0:	d8 01       	movw	r26, r16
    2ce2:	16 96       	adiw	r26, 0x06	; 6
    2ce4:	8d 91       	ld	r24, X+
    2ce6:	9c 91       	ld	r25, X
    2ce8:	17 97       	sbiw	r26, 0x07	; 7
    2cea:	01 96       	adiw	r24, 0x01	; 1
    2cec:	17 96       	adiw	r26, 0x07	; 7
    2cee:	9c 93       	st	X, r25
    2cf0:	8e 93       	st	-X, r24
    2cf2:	16 97       	sbiw	r26, 0x06	; 6
    2cf4:	ce 01       	movw	r24, r28
    2cf6:	df 91       	pop	r29
    2cf8:	cf 91       	pop	r28
    2cfa:	1f 91       	pop	r17
    2cfc:	0f 91       	pop	r16
    2cfe:	08 95       	ret

00002d00 <__ultoa_invert>:
    2d00:	fa 01       	movw	r30, r20
    2d02:	aa 27       	eor	r26, r26
    2d04:	28 30       	cpi	r18, 0x08	; 8
    2d06:	51 f1       	breq	.+84     	; 0x2d5c <__ultoa_invert+0x5c>
    2d08:	20 31       	cpi	r18, 0x10	; 16
    2d0a:	81 f1       	breq	.+96     	; 0x2d6c <__ultoa_invert+0x6c>
    2d0c:	e8 94       	clt
    2d0e:	6f 93       	push	r22
    2d10:	6e 7f       	andi	r22, 0xFE	; 254
    2d12:	6e 5f       	subi	r22, 0xFE	; 254
    2d14:	7f 4f       	sbci	r23, 0xFF	; 255
    2d16:	8f 4f       	sbci	r24, 0xFF	; 255
    2d18:	9f 4f       	sbci	r25, 0xFF	; 255
    2d1a:	af 4f       	sbci	r26, 0xFF	; 255
    2d1c:	b1 e0       	ldi	r27, 0x01	; 1
    2d1e:	3e d0       	rcall	.+124    	; 0x2d9c <__ultoa_invert+0x9c>
    2d20:	b4 e0       	ldi	r27, 0x04	; 4
    2d22:	3c d0       	rcall	.+120    	; 0x2d9c <__ultoa_invert+0x9c>
    2d24:	67 0f       	add	r22, r23
    2d26:	78 1f       	adc	r23, r24
    2d28:	89 1f       	adc	r24, r25
    2d2a:	9a 1f       	adc	r25, r26
    2d2c:	a1 1d       	adc	r26, r1
    2d2e:	68 0f       	add	r22, r24
    2d30:	79 1f       	adc	r23, r25
    2d32:	8a 1f       	adc	r24, r26
    2d34:	91 1d       	adc	r25, r1
    2d36:	a1 1d       	adc	r26, r1
    2d38:	6a 0f       	add	r22, r26
    2d3a:	71 1d       	adc	r23, r1
    2d3c:	81 1d       	adc	r24, r1
    2d3e:	91 1d       	adc	r25, r1
    2d40:	a1 1d       	adc	r26, r1
    2d42:	20 d0       	rcall	.+64     	; 0x2d84 <__ultoa_invert+0x84>
    2d44:	09 f4       	brne	.+2      	; 0x2d48 <__ultoa_invert+0x48>
    2d46:	68 94       	set
    2d48:	3f 91       	pop	r19
    2d4a:	2a e0       	ldi	r18, 0x0A	; 10
    2d4c:	26 9f       	mul	r18, r22
    2d4e:	11 24       	eor	r1, r1
    2d50:	30 19       	sub	r19, r0
    2d52:	30 5d       	subi	r19, 0xD0	; 208
    2d54:	31 93       	st	Z+, r19
    2d56:	de f6       	brtc	.-74     	; 0x2d0e <__ultoa_invert+0xe>
    2d58:	cf 01       	movw	r24, r30
    2d5a:	08 95       	ret
    2d5c:	46 2f       	mov	r20, r22
    2d5e:	47 70       	andi	r20, 0x07	; 7
    2d60:	40 5d       	subi	r20, 0xD0	; 208
    2d62:	41 93       	st	Z+, r20
    2d64:	b3 e0       	ldi	r27, 0x03	; 3
    2d66:	0f d0       	rcall	.+30     	; 0x2d86 <__ultoa_invert+0x86>
    2d68:	c9 f7       	brne	.-14     	; 0x2d5c <__ultoa_invert+0x5c>
    2d6a:	f6 cf       	rjmp	.-20     	; 0x2d58 <__ultoa_invert+0x58>
    2d6c:	46 2f       	mov	r20, r22
    2d6e:	4f 70       	andi	r20, 0x0F	; 15
    2d70:	40 5d       	subi	r20, 0xD0	; 208
    2d72:	4a 33       	cpi	r20, 0x3A	; 58
    2d74:	18 f0       	brcs	.+6      	; 0x2d7c <__ultoa_invert+0x7c>
    2d76:	49 5d       	subi	r20, 0xD9	; 217
    2d78:	31 fd       	sbrc	r19, 1
    2d7a:	40 52       	subi	r20, 0x20	; 32
    2d7c:	41 93       	st	Z+, r20
    2d7e:	02 d0       	rcall	.+4      	; 0x2d84 <__ultoa_invert+0x84>
    2d80:	a9 f7       	brne	.-22     	; 0x2d6c <__ultoa_invert+0x6c>
    2d82:	ea cf       	rjmp	.-44     	; 0x2d58 <__ultoa_invert+0x58>
    2d84:	b4 e0       	ldi	r27, 0x04	; 4
    2d86:	a6 95       	lsr	r26
    2d88:	97 95       	ror	r25
    2d8a:	87 95       	ror	r24
    2d8c:	77 95       	ror	r23
    2d8e:	67 95       	ror	r22
    2d90:	ba 95       	dec	r27
    2d92:	c9 f7       	brne	.-14     	; 0x2d86 <__ultoa_invert+0x86>
    2d94:	00 97       	sbiw	r24, 0x00	; 0
    2d96:	61 05       	cpc	r22, r1
    2d98:	71 05       	cpc	r23, r1
    2d9a:	08 95       	ret
    2d9c:	9b 01       	movw	r18, r22
    2d9e:	ac 01       	movw	r20, r24
    2da0:	0a 2e       	mov	r0, r26
    2da2:	06 94       	lsr	r0
    2da4:	57 95       	ror	r21
    2da6:	47 95       	ror	r20
    2da8:	37 95       	ror	r19
    2daa:	27 95       	ror	r18
    2dac:	ba 95       	dec	r27
    2dae:	c9 f7       	brne	.-14     	; 0x2da2 <__ultoa_invert+0xa2>
    2db0:	62 0f       	add	r22, r18
    2db2:	73 1f       	adc	r23, r19
    2db4:	84 1f       	adc	r24, r20
    2db6:	95 1f       	adc	r25, r21
    2db8:	a0 1d       	adc	r26, r0
    2dba:	08 95       	ret

00002dbc <__prologue_saves__>:
    2dbc:	2f 92       	push	r2
    2dbe:	3f 92       	push	r3
    2dc0:	4f 92       	push	r4
    2dc2:	5f 92       	push	r5
    2dc4:	6f 92       	push	r6
    2dc6:	7f 92       	push	r7
    2dc8:	8f 92       	push	r8
    2dca:	9f 92       	push	r9
    2dcc:	af 92       	push	r10
    2dce:	bf 92       	push	r11
    2dd0:	cf 92       	push	r12
    2dd2:	df 92       	push	r13
    2dd4:	ef 92       	push	r14
    2dd6:	ff 92       	push	r15
    2dd8:	0f 93       	push	r16
    2dda:	1f 93       	push	r17
    2ddc:	cf 93       	push	r28
    2dde:	df 93       	push	r29
    2de0:	cd b7       	in	r28, 0x3d	; 61
    2de2:	de b7       	in	r29, 0x3e	; 62
    2de4:	ca 1b       	sub	r28, r26
    2de6:	db 0b       	sbc	r29, r27
    2de8:	0f b6       	in	r0, 0x3f	; 63
    2dea:	f8 94       	cli
    2dec:	de bf       	out	0x3e, r29	; 62
    2dee:	0f be       	out	0x3f, r0	; 63
    2df0:	cd bf       	out	0x3d, r28	; 61
    2df2:	09 94       	ijmp

00002df4 <__epilogue_restores__>:
    2df4:	2a 88       	ldd	r2, Y+18	; 0x12
    2df6:	39 88       	ldd	r3, Y+17	; 0x11
    2df8:	48 88       	ldd	r4, Y+16	; 0x10
    2dfa:	5f 84       	ldd	r5, Y+15	; 0x0f
    2dfc:	6e 84       	ldd	r6, Y+14	; 0x0e
    2dfe:	7d 84       	ldd	r7, Y+13	; 0x0d
    2e00:	8c 84       	ldd	r8, Y+12	; 0x0c
    2e02:	9b 84       	ldd	r9, Y+11	; 0x0b
    2e04:	aa 84       	ldd	r10, Y+10	; 0x0a
    2e06:	b9 84       	ldd	r11, Y+9	; 0x09
    2e08:	c8 84       	ldd	r12, Y+8	; 0x08
    2e0a:	df 80       	ldd	r13, Y+7	; 0x07
    2e0c:	ee 80       	ldd	r14, Y+6	; 0x06
    2e0e:	fd 80       	ldd	r15, Y+5	; 0x05
    2e10:	0c 81       	ldd	r16, Y+4	; 0x04
    2e12:	1b 81       	ldd	r17, Y+3	; 0x03
    2e14:	aa 81       	ldd	r26, Y+2	; 0x02
    2e16:	b9 81       	ldd	r27, Y+1	; 0x01
    2e18:	ce 0f       	add	r28, r30
    2e1a:	d1 1d       	adc	r29, r1
    2e1c:	0f b6       	in	r0, 0x3f	; 63
    2e1e:	f8 94       	cli
    2e20:	de bf       	out	0x3e, r29	; 62
    2e22:	0f be       	out	0x3f, r0	; 63
    2e24:	cd bf       	out	0x3d, r28	; 61
    2e26:	ed 01       	movw	r28, r26
    2e28:	08 95       	ret

00002e2a <_exit>:
    2e2a:	f8 94       	cli

00002e2c <__stop_program>:
    2e2c:	ff cf       	rjmp	.-2      	; 0x2e2c <__stop_program>
