
Byggern2.elf:     file format elf32-avr

Sections:
Idx Name          Size      VMA       LMA       File off  Algn
  0 .data         00000064  00800100  0000114e  000011e2  2**0
                  CONTENTS, ALLOC, LOAD, DATA
  1 .text         0000114e  00000000  00000000  00000094  2**1
                  CONTENTS, ALLOC, LOAD, READONLY, CODE
  2 .bss          0000000a  00800164  00800164  00001246  2**0
                  ALLOC
  3 .comment      0000005c  00000000  00000000  00001246  2**0
                  CONTENTS, READONLY
  4 .note.gnu.avr.deviceinfo 0000003c  00000000  00000000  000012a4  2**2
                  CONTENTS, READONLY
  5 .debug_aranges 000000f0  00000000  00000000  000012e0  2**0
                  CONTENTS, READONLY, DEBUGGING
  6 .debug_info   00001539  00000000  00000000  000013d0  2**0
                  CONTENTS, READONLY, DEBUGGING
  7 .debug_abbrev 00000994  00000000  00000000  00002909  2**0
                  CONTENTS, READONLY, DEBUGGING
  8 .debug_line   0000079c  00000000  00000000  0000329d  2**0
                  CONTENTS, READONLY, DEBUGGING
  9 .debug_frame  0000025c  00000000  00000000  00003a3c  2**2
                  CONTENTS, READONLY, DEBUGGING
 10 .debug_str    00000587  00000000  00000000  00003c98  2**0
                  CONTENTS, READONLY, DEBUGGING
 11 .debug_loc    0000099e  00000000  00000000  0000421f  2**0
                  CONTENTS, READONLY, DEBUGGING
 12 .debug_ranges 000000f0  00000000  00000000  00004bbd  2**0
                  CONTENTS, READONLY, DEBUGGING

Disassembly of section .text:

00000000 <__vectors>:
       0:	0c 94 8f 03 	jmp	0x71e	; 0x71e <__ctors_end>
       4:	0c 94 ac 03 	jmp	0x758	; 0x758 <__bad_interrupt>
       8:	0c 94 ac 03 	jmp	0x758	; 0x758 <__bad_interrupt>
       c:	0c 94 ac 03 	jmp	0x758	; 0x758 <__bad_interrupt>
      10:	0c 94 ac 03 	jmp	0x758	; 0x758 <__bad_interrupt>
      14:	0c 94 ac 03 	jmp	0x758	; 0x758 <__bad_interrupt>
      18:	0c 94 ac 03 	jmp	0x758	; 0x758 <__bad_interrupt>
      1c:	0c 94 ac 03 	jmp	0x758	; 0x758 <__bad_interrupt>
      20:	0c 94 ac 03 	jmp	0x758	; 0x758 <__bad_interrupt>
      24:	0c 94 ac 03 	jmp	0x758	; 0x758 <__bad_interrupt>
      28:	0c 94 ac 03 	jmp	0x758	; 0x758 <__bad_interrupt>
      2c:	0c 94 ac 03 	jmp	0x758	; 0x758 <__bad_interrupt>
      30:	0c 94 ac 03 	jmp	0x758	; 0x758 <__bad_interrupt>
      34:	0c 94 ac 03 	jmp	0x758	; 0x758 <__bad_interrupt>
      38:	0c 94 ac 03 	jmp	0x758	; 0x758 <__bad_interrupt>
      3c:	0c 94 ac 03 	jmp	0x758	; 0x758 <__bad_interrupt>
      40:	0c 94 ac 03 	jmp	0x758	; 0x758 <__bad_interrupt>
      44:	0c 94 ac 03 	jmp	0x758	; 0x758 <__bad_interrupt>
      48:	0c 94 ac 03 	jmp	0x758	; 0x758 <__bad_interrupt>
      4c:	0c 94 ac 03 	jmp	0x758	; 0x758 <__bad_interrupt>
      50:	0c 94 ac 03 	jmp	0x758	; 0x758 <__bad_interrupt>
      54:	0c 94 ac 03 	jmp	0x758	; 0x758 <__bad_interrupt>
      58:	0c 94 ac 03 	jmp	0x758	; 0x758 <__bad_interrupt>
      5c:	0c 94 ac 03 	jmp	0x758	; 0x758 <__bad_interrupt>
      60:	0c 94 ac 03 	jmp	0x758	; 0x758 <__bad_interrupt>
      64:	0c 94 ac 03 	jmp	0x758	; 0x758 <__bad_interrupt>
      68:	0c 94 ac 03 	jmp	0x758	; 0x758 <__bad_interrupt>
      6c:	0c 94 ac 03 	jmp	0x758	; 0x758 <__bad_interrupt>

00000070 <__trampolines_end>:
      70:	00 00       	nop
      72:	00 00       	nop
      74:	00 5c       	subi	r16, 0xC0	; 192
      76:	00 00       	nop
      78:	0c 00       	.word	0x000c	; ????
      7a:	0c 00       	.word	0x000c	; ????
      7c:	7c 28       	or	r7, r12
      7e:	7c 28       	or	r7, r12
      80:	58 dc       	rcall	.-1872   	; 0xfffff932 <__eeprom_end+0xff7ef932>
      82:	68 00       	.word	0x0068	; ????
      84:	24 10       	cpse	r2, r4
      86:	48 00       	.word	0x0048	; ????
      88:	28 54       	subi	r18, 0x48	; 72
      8a:	28 40       	sbci	r18, 0x08	; 8
      8c:	00 0c       	add	r0, r0
      8e:	00 00       	nop
      90:	00 78       	andi	r16, 0x80	; 128
      92:	84 00       	.word	0x0084	; ????
      94:	84 78       	andi	r24, 0x84	; 132
      96:	00 00       	nop
      98:	54 38       	cpi	r21, 0x84	; 132
      9a:	54 00       	.word	0x0054	; ????
      9c:	10 7c       	andi	r17, 0xC0	; 192
      9e:	10 00       	.word	0x0010	; ????
      a0:	80 40       	sbci	r24, 0x00	; 0
      a2:	00 00       	nop
      a4:	10 10       	cpse	r1, r0
      a6:	10 00       	.word	0x0010	; ????
      a8:	00 40       	sbci	r16, 0x00	; 0
      aa:	00 00       	nop
      ac:	60 10       	cpse	r6, r0
      ae:	0c 00       	.word	0x000c	; ????
      b0:	38 54       	subi	r19, 0x48	; 72
      b2:	38 00       	.word	0x0038	; ????
      b4:	48 7c       	andi	r20, 0xC8	; 200
      b6:	40 00       	.word	0x0040	; ????
      b8:	48 64       	ori	r20, 0x48	; 72
      ba:	58 00       	.word	0x0058	; ????
      bc:	44 54       	subi	r20, 0x44	; 68
      be:	2c 00       	.word	0x002c	; ????
      c0:	1c 10       	cpse	r1, r12
      c2:	7c 00       	.word	0x007c	; ????
      c4:	5c 54       	subi	r21, 0x4C	; 76
      c6:	24 00       	.word	0x0024	; ????
      c8:	38 54       	subi	r19, 0x48	; 72
      ca:	24 00       	.word	0x0024	; ????
      cc:	64 14       	cp	r6, r4
      ce:	0c 00       	.word	0x000c	; ????
      d0:	68 54       	subi	r22, 0x48	; 72
      d2:	2c 00       	.word	0x002c	; ????
      d4:	48 54       	subi	r20, 0x48	; 72
      d6:	38 00       	.word	0x0038	; ????
      d8:	00 48       	sbci	r16, 0x80	; 128
      da:	00 00       	nop
      dc:	80 48       	sbci	r24, 0x80	; 128
      de:	00 00       	nop
      e0:	10 28       	or	r1, r0
      e2:	44 00       	.word	0x0044	; ????
      e4:	28 28       	or	r2, r8
      e6:	28 00       	.word	0x0028	; ????
      e8:	44 28       	or	r4, r4
      ea:	10 00       	.word	0x0010	; ????
      ec:	04 54       	subi	r16, 0x44	; 68
      ee:	08 00       	.word	0x0008	; ????
      f0:	38 44       	sbci	r19, 0x48	; 72
      f2:	5c 00       	.word	0x005c	; ????
      f4:	78 14       	cp	r7, r8
      f6:	78 00       	.word	0x0078	; ????
      f8:	7c 54       	subi	r23, 0x4C	; 76
      fa:	28 00       	.word	0x0028	; ????
      fc:	38 44       	sbci	r19, 0x48	; 72
      fe:	28 00       	.word	0x0028	; ????
     100:	7c 44       	sbci	r23, 0x4C	; 76
     102:	38 00       	.word	0x0038	; ????
     104:	7c 54       	subi	r23, 0x4C	; 76
     106:	44 00       	.word	0x0044	; ????
     108:	7c 14       	cp	r7, r12
     10a:	04 00       	.word	0x0004	; ????
     10c:	38 44       	sbci	r19, 0x48	; 72
     10e:	74 00       	.word	0x0074	; ????
     110:	7c 10       	cpse	r7, r12
     112:	7c 00       	.word	0x007c	; ????
     114:	44 7c       	andi	r20, 0xC4	; 196
     116:	44 00       	.word	0x0044	; ????
     118:	20 40       	sbci	r18, 0x00	; 0
     11a:	3c 00       	.word	0x003c	; ????
     11c:	7c 10       	cpse	r7, r12
     11e:	6c 00       	.word	0x006c	; ????
     120:	7c 40       	sbci	r23, 0x0C	; 12
     122:	40 00       	.word	0x0040	; ????
     124:	7c 18       	sub	r7, r12
     126:	7c 00       	.word	0x007c	; ????
     128:	78 10       	cpse	r7, r8
     12a:	3c 00       	.word	0x003c	; ????
     12c:	38 44       	sbci	r19, 0x48	; 72
     12e:	38 00       	.word	0x0038	; ????
     130:	7c 14       	cp	r7, r12
     132:	08 00       	.word	0x0008	; ????
     134:	38 44       	sbci	r19, 0x48	; 72
     136:	b8 00       	.word	0x00b8	; ????
     138:	7c 14       	cp	r7, r12
     13a:	68 00       	.word	0x0068	; ????
     13c:	48 54       	subi	r20, 0x48	; 72
     13e:	24 00       	.word	0x0024	; ????
     140:	04 7c       	andi	r16, 0xC4	; 196
     142:	04 00       	.word	0x0004	; ????
     144:	7c 40       	sbci	r23, 0x0C	; 12
     146:	7c 00       	.word	0x007c	; ????
     148:	3c 60       	ori	r19, 0x0C	; 12
     14a:	3c 00       	.word	0x003c	; ????
     14c:	7c 30       	cpi	r23, 0x0C	; 12
     14e:	7c 00       	.word	0x007c	; ????
     150:	6c 10       	cpse	r6, r12
     152:	6c 00       	.word	0x006c	; ????
     154:	0c 70       	andi	r16, 0x0C	; 12
     156:	0c 00       	.word	0x000c	; ????
     158:	64 54       	subi	r22, 0x44	; 68
     15a:	4c 00       	.word	0x004c	; ????
     15c:	00 7c       	andi	r16, 0xC0	; 192
     15e:	44 00       	.word	0x0044	; ????
     160:	0c 10       	cpse	r0, r12
     162:	60 00       	.word	0x0060	; ????
     164:	44 7c       	andi	r20, 0xC4	; 196
     166:	00 00       	nop
     168:	08 04       	cpc	r0, r8
     16a:	08 00       	.word	0x0008	; ????
     16c:	80 80       	ld	r8, Z
     16e:	80 00       	.word	0x0080	; ????
     170:	00 04       	cpc	r0, r0
     172:	08 00       	.word	0x0008	; ????
     174:	30 48       	sbci	r19, 0x80	; 128
     176:	78 00       	.word	0x0078	; ????
     178:	7c 48       	sbci	r23, 0x8C	; 140
     17a:	30 00       	.word	0x0030	; ????
     17c:	30 48       	sbci	r19, 0x80	; 128
     17e:	48 00       	.word	0x0048	; ????
     180:	30 48       	sbci	r19, 0x80	; 128
     182:	7c 00       	.word	0x007c	; ????
     184:	30 68       	ori	r19, 0x80	; 128
     186:	50 00       	.word	0x0050	; ????
     188:	10 78       	andi	r17, 0x80	; 128
     18a:	14 00       	.word	0x0014	; ????
     18c:	90 a8       	ldd	r9, Z+48	; 0x30
     18e:	78 00       	.word	0x0078	; ????
     190:	7c 08       	sbc	r7, r12
     192:	70 00       	.word	0x0070	; ????
     194:	50 74       	andi	r21, 0x40	; 64
     196:	40 00       	.word	0x0040	; ????
     198:	80 80       	ld	r8, Z
     19a:	74 00       	.word	0x0074	; ????
     19c:	7c 10       	cpse	r7, r12
     19e:	68 00       	.word	0x0068	; ????
     1a0:	44 7c       	andi	r20, 0xC4	; 196
     1a2:	40 00       	.word	0x0040	; ????
     1a4:	78 10       	cpse	r7, r8
     1a6:	78 00       	.word	0x0078	; ????
     1a8:	78 08       	sbc	r7, r8
     1aa:	70 00       	.word	0x0070	; ????
     1ac:	30 48       	sbci	r19, 0x80	; 128
     1ae:	30 00       	.word	0x0030	; ????
     1b0:	f8 28       	or	r15, r8
     1b2:	10 00       	.word	0x0010	; ????
     1b4:	30 48       	sbci	r19, 0x80	; 128
     1b6:	f8 00       	.word	0x00f8	; ????
     1b8:	78 10       	cpse	r7, r8
     1ba:	08 00       	.word	0x0008	; ????
     1bc:	50 58       	subi	r21, 0x80	; 128
     1be:	28 00       	.word	0x0028	; ????
     1c0:	08 3c       	cpi	r16, 0xC8	; 200
     1c2:	48 00       	.word	0x0048	; ????
     1c4:	38 40       	sbci	r19, 0x08	; 8
     1c6:	78 00       	.word	0x0078	; ????
     1c8:	38 40       	sbci	r19, 0x08	; 8
     1ca:	38 00       	.word	0x0038	; ????
     1cc:	78 20       	and	r7, r8
     1ce:	78 00       	.word	0x0078	; ????
     1d0:	48 30       	cpi	r20, 0x08	; 8
     1d2:	48 00       	.word	0x0048	; ????
     1d4:	98 a0       	ldd	r9, Y+32	; 0x20
     1d6:	78 00       	.word	0x0078	; ????
     1d8:	48 68       	ori	r20, 0x88	; 136
     1da:	58 00       	.word	0x0058	; ????
     1dc:	10 78       	andi	r17, 0x80	; 128
     1de:	84 00       	.word	0x0084	; ????
     1e0:	00 7c       	andi	r16, 0xC0	; 192
     1e2:	00 00       	nop
     1e4:	84 78       	andi	r24, 0x84	; 132
     1e6:	10 00       	.word	0x0010	; ????
     1e8:	08 04       	cpc	r0, r8
     1ea:	08 04       	cpc	r0, r8

000001ec <font6>:
	...
     1f4:	5f 00 00 00 00 07 00 07 00 00 14 7f 14 7f 14 00     _...............
     204:	24 2a 7f 2a 12 00 23 13 08 64 62 00 36 49 55 22     $*.*..#..db.6IU"
     214:	50 00 00 05 03 00 00 00 00 1c 22 41 00 00 00 41     P........."A...A
     224:	22 1c 00 00 08 2a 1c 2a 08 00 08 08 3e 08 08 00     "....*.*....>...
     234:	00 50 30 00 00 00 08 08 08 08 08 00 00 60 60 00     .P0..........``.
     244:	00 00 20 10 08 04 02 00 3e 51 49 45 3e 00 00 42     .. .....>QIE>..B
     254:	7f 40 00 00 42 61 51 49 46 00 21 41 45 4b 31 00     .@..BaQIF.!AEK1.
     264:	18 14 12 7f 10 00 27 45 45 45 39 00 3c 4a 49 49     ......'EEE9.<JII
     274:	30 00 01 71 09 05 03 00 36 49 49 49 36 00 06 49     0..q....6III6..I
     284:	49 29 1e 00 00 36 36 00 00 00 00 56 36 00 00 00     I)...66....V6...
     294:	08 1c 2a 08 08 00 14 14 14 14 14 00 08 08 2a 1c     ..*...........*.
     2a4:	08 00 02 01 51 09 06 00 32 49 79 41 3e 00 7e 11     ....Q...2IyA>.~.
     2b4:	11 11 7e 00 7f 49 49 49 36 00 3e 41 41 41 22 00     ..~..III6.>AAA".
     2c4:	7f 41 41 22 1c 00 7f 49 49 49 41 00 7f 09 09 01     .AA"...IIIA.....
     2d4:	01 00 3e 41 41 51 32 00 7f 08 08 08 7f 00 00 41     ..>AAQ2........A
     2e4:	7f 41 00 00 20 40 41 3f 01 00 7f 08 14 22 41 00     .A.. @A?....."A.
     2f4:	7f 40 40 40 40 00 7f 02 04 02 7f 00 7f 04 08 10     .@@@@...........
     304:	7f 00 3e 41 41 41 3e 00 7f 09 09 09 06 00 3e 41     ..>AAA>.......>A
     314:	51 21 5e 00 7f 09 19 29 46 00 46 49 49 49 31 00     Q!^....)F.FIII1.
     324:	01 01 7f 01 01 00 3f 40 40 40 3f 00 1f 20 40 20     ......?@@@?.. @ 
     334:	1f 00 7f 20 18 20 7f 00 63 14 08 14 63 00 03 04     ... . ..c...c...
     344:	78 04 03 00 61 51 49 45 43 00 00 00 7f 41 41 00     x...aQIEC....AA.
     354:	02 04 08 10 20 00 41 41 7f 00 00 00 04 02 01 02     .... .AA........
     364:	04 00 40 40 40 40 40 00 00 01 02 04 00 00 20 54     ..@@@@@....... T
     374:	54 54 78 00 7f 48 44 44 38 00 38 44 44 44 20 00     TTx..HDD8.8DDD .
     384:	38 44 44 48 7f 00 38 54 54 54 18 00 08 7e 09 01     8DDH..8TTT...~..
     394:	02 00 08 14 54 54 3c 00 7f 08 04 04 78 00 00 44     ....TT<.....x..D
     3a4:	7d 40 00 00 20 40 44 3d 00 00 00 7f 10 28 44 00     }@.. @D=.....(D.
     3b4:	00 41 7f 40 00 00 7c 04 18 04 78 00 7c 08 04 04     .A.@..|...x.|...
     3c4:	78 00 38 44 44 44 38 00 7c 14 14 14 08 00 08 14     x.8DDD8.|.......
     3d4:	14 18 7c 00 7c 08 04 04 08 00 48 54 54 54 20 00     ..|.|.....HTTT .
     3e4:	04 3f 44 40 20 00 3c 40 40 20 7c 00 1c 20 40 20     .?D@ .<@@ |.. @ 
     3f4:	1c 00 3c 40 30 40 3c 00 44 28 10 28 44 00 0c 50     ..<@0@<.D(.(D..P
     404:	50 50 3c 00 44 64 54 4c 44 00 00 08 36 41 00 00     PP<.DdTLD...6A..
     414:	00 00 7f 00 00 00 00 41 36 08 00 00 02 01 03 02     .......A6.......
     424:	01 00                                               ..

00000426 <font8>:
	...
     42e:	00 06 5f 5f 06 00 00 00 00 07 07 00 07 07 00 00     ..__............
     43e:	14 7f 7f 14 7f 7f 14 00 24 2e 6b 6b 3a 12 00 00     ........$.kk:...
     44e:	46 66 30 18 0c 66 62 00 30 7a 4f 5d 37 7a 48 00     Ff0..fb.0zO]7zH.
     45e:	04 07 03 00 00 00 00 00 00 1c 3e 63 41 00 00 00     ..........>cA...
     46e:	00 41 63 3e 1c 00 00 00 08 2a 3e 1c 1c 3e 2a 08     .Ac>.....*>..>*.
     47e:	08 08 3e 3e 08 08 00 00 00 a0 e0 60 00 00 00 00     ..>>.......`....
     48e:	08 08 08 08 08 08 00 00 00 00 60 60 00 00 00 00     ..........``....
     49e:	60 30 18 0c 06 03 01 00 3e 7f 59 4d 7f 3e 00 00     `0......>.YM.>..
     4ae:	42 42 7f 7f 40 40 00 00 62 73 59 49 6f 66 00 00     BB..@@..bsYIof..
     4be:	22 63 49 49 7f 36 00 00 18 1c 16 13 7f 7f 10 00     "cII.6..........
     4ce:	27 67 45 45 7d 39 00 00 3c 7e 4b 49 79 30 00 00     'gEE}9..<~KIy0..
     4de:	03 63 71 19 0f 07 00 00 36 7f 49 49 7f 36 00 00     .cq.....6.II.6..
     4ee:	06 4f 49 69 3f 1e 00 00 00 00 6c 6c 00 00 00 00     .OIi?.....ll....
     4fe:	00 a0 ec 6c 00 00 00 00 18 24 42 99 24 42 81 00     ...l.....$B.$B..
     50e:	14 14 14 14 14 14 00 00 81 42 24 99 42 24 18 00     .........B$.B$..
     51e:	02 03 51 59 0f 06 00 00 3e 7f 41 5d 5d 1f 1e 00     ..QY....>.A]]...
     52e:	7c 7e 13 13 7e 7c 00 00 41 7f 7f 49 49 7f 36 00     |~..~|..A..II.6.
     53e:	1c 3e 63 41 41 63 22 00 41 7f 7f 41 63 7f 1c 00     .>cAAc".A..Ac...
     54e:	41 7f 7f 49 5d 41 63 00 41 7f 7f 49 1d 01 03 00     A..I]Ac.A..I....
     55e:	1c 3e 63 41 51 73 72 00 7f 7f 08 08 7f 7f 00 00     .>cAQsr.........
     56e:	00 41 7f 7f 41 00 00 00 30 70 40 41 7f 3f 01 00     .A..A...0p@A.?..
     57e:	41 7f 7f 08 1c 77 63 00 41 7f 7f 41 40 60 70 00     A....wc.A..A@`p.
     58e:	7f 7f 06 0c 06 7f 7f 00 7f 7f 06 0c 18 7f 7f 00     ................
     59e:	1c 3e 63 41 63 3e 1c 00 41 7f 7f 49 09 0f 06 00     .>cAc>..A..I....
     5ae:	1e 3f 21 71 7f 5e 00 00 41 7f 7f 19 39 6f 46 00     .?!q.^..A...9oF.
     5be:	26 67 4d 59 7b 32 00 00 03 41 7f 7f 41 03 00 00     &gMY{2...A..A...
     5ce:	7f 7f 40 40 7f 7f 00 00 1f 3f 60 60 3f 1f 00 00     ..@@.....?``?...
     5de:	7f 7f 30 18 30 7f 7f 00 63 77 1c 08 1c 77 63 00     ..0.0...cw...wc.
     5ee:	07 4f 78 78 4f 07 00 00 67 73 59 4d 47 63 71 00     .OxxO...gsYMGcq.
     5fe:	00 7f 7f 41 41 00 00 00 01 03 06 0c 18 30 60 00     ...AA........0`.
     60e:	00 41 41 7f 7f 00 00 00 08 0c 06 03 06 0c 08 00     .AA.............
     61e:	80 80 80 80 80 80 80 80 00 00 03 07 04 00 00 00     ................
     62e:	20 74 54 54 3c 78 40 00 41 3f 7f 44 44 7c 38 00      tTT<x@.A?.DD|8.
     63e:	38 7c 44 44 6c 28 00 00 30 78 48 49 3f 7f 40 00     8|DDl(..0xHI?.@.
     64e:	38 7c 54 54 5c 18 00 00 48 7e 7f 49 03 02 00 00     8|TT\...H~.I....
     65e:	98 bc a4 a4 f8 7c 04 00 41 7f 7f 08 04 7c 78 00     .....|..A....|x.
     66e:	00 44 7d 7d 40 00 00 00 40 c4 84 fd 7d 00 00 00     .D}}@...@...}...
     67e:	41 7f 7f 10 38 6c 44 00 00 41 7f 7f 40 00 00 00     A...8lD..A..@...
     68e:	7c 7c 0c 18 0c 7c 78 00 7c 7c 04 04 7c 78 00 00     ||...|x.||..|x..
     69e:	38 7c 44 44 7c 38 00 00 84 fc f8 a4 24 3c 18 00     8|DD|8......$<..
     6ae:	18 3c 24 a4 f8 fc 84 00 44 7c 78 44 1c 18 00 00     .<$.....D|xD....
     6be:	48 5c 54 54 74 24 00 00 00 04 3e 7f 44 24 00 00     H\TTt$....>.D$..
     6ce:	3c 7c 40 40 3c 7c 40 00 1c 3c 60 60 3c 1c 00 00     <|@@<|@..<``<...
     6de:	3c 7c 60 30 60 7c 3c 00 44 6c 38 10 38 6c 44 00     <|`0`|<.Dl8.8lD.
     6ee:	9c bc a0 a0 fc 7c 00 00 4c 64 74 5c 4c 64 00 00     .....|..Ldt\Ld..
     6fe:	08 08 3e 77 41 41 00 00 00 00 00 77 77 00 00 00     ..>wAA.....ww...
     70e:	41 41 77 3e 08 08 00 00 02 03 01 03 02 03 01 00     AAw>............

0000071e <__ctors_end>:
     71e:	11 24       	eor	r1, r1
     720:	1f be       	out	0x3f, r1	; 63
     722:	cf ef       	ldi	r28, 0xFF	; 255
     724:	d4 e0       	ldi	r29, 0x04	; 4
     726:	de bf       	out	0x3e, r29	; 62
     728:	cd bf       	out	0x3d, r28	; 61

0000072a <__do_copy_data>:
     72a:	11 e0       	ldi	r17, 0x01	; 1
     72c:	a0 e0       	ldi	r26, 0x00	; 0
     72e:	b1 e0       	ldi	r27, 0x01	; 1
     730:	ee e4       	ldi	r30, 0x4E	; 78
     732:	f1 e1       	ldi	r31, 0x11	; 17
     734:	02 c0       	rjmp	.+4      	; 0x73a <__do_copy_data+0x10>
     736:	05 90       	lpm	r0, Z+
     738:	0d 92       	st	X+, r0
     73a:	a4 36       	cpi	r26, 0x64	; 100
     73c:	b1 07       	cpc	r27, r17
     73e:	d9 f7       	brne	.-10     	; 0x736 <__do_copy_data+0xc>

00000740 <__do_clear_bss>:
     740:	21 e0       	ldi	r18, 0x01	; 1
     742:	a4 e6       	ldi	r26, 0x64	; 100
     744:	b1 e0       	ldi	r27, 0x01	; 1
     746:	01 c0       	rjmp	.+2      	; 0x74a <.do_clear_bss_start>

00000748 <.do_clear_bss_loop>:
     748:	1d 92       	st	X+, r1

0000074a <.do_clear_bss_start>:
     74a:	ae 36       	cpi	r26, 0x6E	; 110
     74c:	b2 07       	cpc	r27, r18
     74e:	e1 f7       	brne	.-8      	; 0x748 <.do_clear_bss_loop>
     750:	0e 94 8f 05 	call	0xb1e	; 0xb1e <main>
     754:	0c 94 a5 08 	jmp	0x114a	; 0x114a <_exit>

00000758 <__bad_interrupt>:
     758:	0c 94 00 00 	jmp	0	; 0x0 <__vectors>

0000075c <oled_mode>:
	}
	oled_goto_pos(4,0);
	for (int j=0; j<1024; j++){
		ext_oled_data[j] = 0xff;
	}
}
     75c:	e0 91 04 01 	lds	r30, 0x0104	; 0x800104 <ext_oled_command>
     760:	f0 91 05 01 	lds	r31, 0x0105	; 0x800105 <ext_oled_command+0x1>
     764:	90 e2       	ldi	r25, 0x20	; 32
     766:	90 83       	st	Z, r25
     768:	e0 91 04 01 	lds	r30, 0x0104	; 0x800104 <ext_oled_command>
     76c:	f0 91 05 01 	lds	r31, 0x0105	; 0x800105 <ext_oled_command+0x1>
     770:	80 83       	st	Z, r24
     772:	08 95       	ret

00000774 <oled_goto_page>:
     774:	88 30       	cpi	r24, 0x08	; 8
     776:	48 f0       	brcs	.+18     	; 0x78a <oled_goto_page+0x16>
     778:	86 e0       	ldi	r24, 0x06	; 6
     77a:	91 e0       	ldi	r25, 0x01	; 1
     77c:	9f 93       	push	r25
     77e:	8f 93       	push	r24
     780:	0e 94 c7 05 	call	0xb8e	; 0xb8e <printf>
     784:	0f 90       	pop	r0
     786:	0f 90       	pop	r0
     788:	08 95       	ret
     78a:	90 eb       	ldi	r25, 0xB0	; 176
     78c:	98 0f       	add	r25, r24
     78e:	e0 91 04 01 	lds	r30, 0x0104	; 0x800104 <ext_oled_command>
     792:	f0 91 05 01 	lds	r31, 0x0105	; 0x800105 <ext_oled_command+0x1>
     796:	90 83       	st	Z, r25
     798:	90 e0       	ldi	r25, 0x00	; 0
     79a:	90 93 65 01 	sts	0x0165, r25	; 0x800165 <__data_end+0x1>
     79e:	80 93 64 01 	sts	0x0164, r24	; 0x800164 <__data_end>
     7a2:	08 95       	ret

000007a4 <oled_goto_col>:
     7a4:	88 23       	and	r24, r24
     7a6:	4c f4       	brge	.+18     	; 0x7ba <oled_goto_col+0x16>
     7a8:	86 e0       	ldi	r24, 0x06	; 6
     7aa:	91 e0       	ldi	r25, 0x01	; 1
     7ac:	9f 93       	push	r25
     7ae:	8f 93       	push	r24
     7b0:	0e 94 c7 05 	call	0xb8e	; 0xb8e <printf>
     7b4:	0f 90       	pop	r0
     7b6:	0f 90       	pop	r0
     7b8:	08 95       	ret
     7ba:	28 2f       	mov	r18, r24
     7bc:	2f 70       	andi	r18, 0x0F	; 15
     7be:	98 2f       	mov	r25, r24
     7c0:	92 95       	swap	r25
     7c2:	9f 70       	andi	r25, 0x0F	; 15
     7c4:	90 5f       	subi	r25, 0xF0	; 240
     7c6:	e0 91 04 01 	lds	r30, 0x0104	; 0x800104 <ext_oled_command>
     7ca:	f0 91 05 01 	lds	r31, 0x0105	; 0x800105 <ext_oled_command+0x1>
     7ce:	90 83       	st	Z, r25
     7d0:	e0 91 04 01 	lds	r30, 0x0104	; 0x800104 <ext_oled_command>
     7d4:	f0 91 05 01 	lds	r31, 0x0105	; 0x800105 <ext_oled_command+0x1>
     7d8:	20 83       	st	Z, r18
     7da:	90 e0       	ldi	r25, 0x00	; 0
     7dc:	90 93 67 01 	sts	0x0167, r25	; 0x800167 <__data_end+0x3>
     7e0:	80 93 66 01 	sts	0x0166, r24	; 0x800166 <__data_end+0x2>
     7e4:	08 95       	ret

000007e6 <oled_goto_pos>:
     7e6:	cf 93       	push	r28
     7e8:	c6 2f       	mov	r28, r22
     7ea:	0e 94 ba 03 	call	0x774	; 0x774 <oled_goto_page>
     7ee:	8c 2f       	mov	r24, r28
     7f0:	0e 94 d2 03 	call	0x7a4	; 0x7a4 <oled_goto_col>
     7f4:	cf 91       	pop	r28
     7f6:	08 95       	ret

000007f8 <oled_clear_screen>:
     7f8:	60 e0       	ldi	r22, 0x00	; 0
     7fa:	80 e0       	ldi	r24, 0x00	; 0
     7fc:	0e 94 f3 03 	call	0x7e6	; 0x7e6 <oled_goto_pos>
     800:	80 e0       	ldi	r24, 0x00	; 0
     802:	0e 94 ae 03 	call	0x75c	; 0x75c <oled_mode>
     806:	80 e0       	ldi	r24, 0x00	; 0
     808:	90 e0       	ldi	r25, 0x00	; 0
     80a:	e0 91 02 01 	lds	r30, 0x0102	; 0x800102 <ext_oled_data>
     80e:	f0 91 03 01 	lds	r31, 0x0103	; 0x800103 <ext_oled_data+0x1>
     812:	e8 0f       	add	r30, r24
     814:	f9 1f       	adc	r31, r25
     816:	10 82       	st	Z, r1
     818:	01 96       	adiw	r24, 0x01	; 1
     81a:	81 15       	cp	r24, r1
     81c:	24 e0       	ldi	r18, 0x04	; 4
     81e:	92 07       	cpc	r25, r18
     820:	a1 f7       	brne	.-24     	; 0x80a <oled_clear_screen+0x12>
     822:	60 e0       	ldi	r22, 0x00	; 0
     824:	84 e0       	ldi	r24, 0x04	; 4
     826:	0e 94 f3 03 	call	0x7e6	; 0x7e6 <oled_goto_pos>
     82a:	80 e0       	ldi	r24, 0x00	; 0
     82c:	90 e0       	ldi	r25, 0x00	; 0
     82e:	e0 91 02 01 	lds	r30, 0x0102	; 0x800102 <ext_oled_data>
     832:	f0 91 03 01 	lds	r31, 0x0103	; 0x800103 <ext_oled_data+0x1>
     836:	e8 0f       	add	r30, r24
     838:	f9 1f       	adc	r31, r25
     83a:	10 82       	st	Z, r1
     83c:	01 96       	adiw	r24, 0x01	; 1
     83e:	81 15       	cp	r24, r1
     840:	24 e0       	ldi	r18, 0x04	; 4
     842:	92 07       	cpc	r25, r18
     844:	a1 f7       	brne	.-24     	; 0x82e <oled_clear_screen+0x36>
     846:	08 95       	ret

00000848 <oled_write_char>:


void oled_write_char(char c, int fs){
	c=c-32;
     848:	80 52       	subi	r24, 0x20	; 32
	
	switch(fs){
     84a:	66 30       	cpi	r22, 0x06	; 6
     84c:	71 05       	cpc	r23, r1
     84e:	09 f4       	brne	.+2      	; 0x852 <oled_write_char+0xa>
     850:	3b c0       	rjmp	.+118    	; 0x8c8 <oled_write_char+0x80>
     852:	68 30       	cpi	r22, 0x08	; 8
     854:	71 05       	cpc	r23, r1
     856:	29 f0       	breq	.+10     	; 0x862 <oled_write_char+0x1a>
     858:	64 30       	cpi	r22, 0x04	; 4
     85a:	71 05       	cpc	r23, r1
     85c:	09 f0       	breq	.+2      	; 0x860 <oled_write_char+0x18>
     85e:	80 c0       	rjmp	.+256    	; 0x960 <oled_write_char+0x118>
     860:	5b c0       	rjmp	.+182    	; 0x918 <oled_write_char+0xd0>
		case 8 :
			for(int i=0; i<fontsize;i++){
     862:	20 91 00 01 	lds	r18, 0x0100	; 0x800100 <__data_start>
     866:	30 91 01 01 	lds	r19, 0x0101	; 0x800101 <__data_start+0x1>
     86a:	12 16       	cp	r1, r18
     86c:	13 06       	cpc	r1, r19
     86e:	0c f0       	brlt	.+2      	; 0x872 <oled_write_char+0x2a>
     870:	77 c0       	rjmp	.+238    	; 0x960 <oled_write_char+0x118>
     872:	90 e0       	ldi	r25, 0x00	; 0
     874:	88 0f       	add	r24, r24
     876:	99 1f       	adc	r25, r25
     878:	88 0f       	add	r24, r24
     87a:	99 1f       	adc	r25, r25
     87c:	88 0f       	add	r24, r24
     87e:	99 1f       	adc	r25, r25
     880:	20 e0       	ldi	r18, 0x00	; 0
     882:	30 e0       	ldi	r19, 0x00	; 0
				oled_wrd(pgm_read_word(&font8[c][i]));
				oled_position.coloumn++;
     884:	a4 e6       	ldi	r26, 0x64	; 100
     886:	b1 e0       	ldi	r27, 0x01	; 1
	c=c-32;
	
	switch(fs){
		case 8 :
			for(int i=0; i<fontsize;i++){
				oled_wrd(pgm_read_word(&font8[c][i]));
     888:	f9 01       	movw	r30, r18
     88a:	e8 0f       	add	r30, r24
     88c:	f9 1f       	adc	r31, r25
     88e:	ea 5d       	subi	r30, 0xDA	; 218
     890:	fb 4f       	sbci	r31, 0xFB	; 251
     892:	45 91       	lpm	r20, Z+
     894:	54 91       	lpm	r21, Z
void oled_wrc(uint8_t data){
	ext_oled_command[0] = data;
}
//oled write data
void oled_wrd(uint8_t data){
	ext_oled_data[0] = data;
     896:	e0 91 02 01 	lds	r30, 0x0102	; 0x800102 <ext_oled_data>
     89a:	f0 91 03 01 	lds	r31, 0x0103	; 0x800103 <ext_oled_data+0x1>
     89e:	40 83       	st	Z, r20
	
	switch(fs){
		case 8 :
			for(int i=0; i<fontsize;i++){
				oled_wrd(pgm_read_word(&font8[c][i]));
				oled_position.coloumn++;
     8a0:	12 96       	adiw	r26, 0x02	; 2
     8a2:	4d 91       	ld	r20, X+
     8a4:	5c 91       	ld	r21, X
     8a6:	13 97       	sbiw	r26, 0x03	; 3
     8a8:	4f 5f       	subi	r20, 0xFF	; 255
     8aa:	5f 4f       	sbci	r21, 0xFF	; 255
     8ac:	13 96       	adiw	r26, 0x03	; 3
     8ae:	5c 93       	st	X, r21
     8b0:	4e 93       	st	-X, r20
     8b2:	12 97       	sbiw	r26, 0x02	; 2
void oled_write_char(char c, int fs){
	c=c-32;
	
	switch(fs){
		case 8 :
			for(int i=0; i<fontsize;i++){
     8b4:	2f 5f       	subi	r18, 0xFF	; 255
     8b6:	3f 4f       	sbci	r19, 0xFF	; 255
     8b8:	40 91 00 01 	lds	r20, 0x0100	; 0x800100 <__data_start>
     8bc:	50 91 01 01 	lds	r21, 0x0101	; 0x800101 <__data_start+0x1>
     8c0:	24 17       	cp	r18, r20
     8c2:	35 07       	cpc	r19, r21
     8c4:	0c f3       	brlt	.-62     	; 0x888 <oled_write_char+0x40>
     8c6:	08 95       	ret
     8c8:	90 e0       	ldi	r25, 0x00	; 0
     8ca:	9c 01       	movw	r18, r24
     8cc:	22 0f       	add	r18, r18
     8ce:	33 1f       	adc	r19, r19
     8d0:	82 0f       	add	r24, r18
     8d2:	93 1f       	adc	r25, r19
     8d4:	88 0f       	add	r24, r24
     8d6:	99 1f       	adc	r25, r25


void oled_write_char(char c, int fs){
	c=c-32;
	
	switch(fs){
     8d8:	20 e0       	ldi	r18, 0x00	; 0
     8da:	30 e0       	ldi	r19, 0x00	; 0
			}
			break;
		case 6 :
			for(int i=0; i<6;i++){
				oled_wrd(pgm_read_word(&font6[c][i]));
				oled_position.coloumn++;
     8dc:	a4 e6       	ldi	r26, 0x64	; 100
     8de:	b1 e0       	ldi	r27, 0x01	; 1
				oled_position.coloumn++;
			}
			break;
		case 6 :
			for(int i=0; i<6;i++){
				oled_wrd(pgm_read_word(&font6[c][i]));
     8e0:	f9 01       	movw	r30, r18
     8e2:	e8 0f       	add	r30, r24
     8e4:	f9 1f       	adc	r31, r25
     8e6:	e4 51       	subi	r30, 0x14	; 20
     8e8:	fe 4f       	sbci	r31, 0xFE	; 254
     8ea:	45 91       	lpm	r20, Z+
     8ec:	54 91       	lpm	r21, Z
void oled_wrc(uint8_t data){
	ext_oled_command[0] = data;
}
//oled write data
void oled_wrd(uint8_t data){
	ext_oled_data[0] = data;
     8ee:	e0 91 02 01 	lds	r30, 0x0102	; 0x800102 <ext_oled_data>
     8f2:	f0 91 03 01 	lds	r31, 0x0103	; 0x800103 <ext_oled_data+0x1>
     8f6:	40 83       	st	Z, r20
			}
			break;
		case 6 :
			for(int i=0; i<6;i++){
				oled_wrd(pgm_read_word(&font6[c][i]));
				oled_position.coloumn++;
     8f8:	12 96       	adiw	r26, 0x02	; 2
     8fa:	4d 91       	ld	r20, X+
     8fc:	5c 91       	ld	r21, X
     8fe:	13 97       	sbiw	r26, 0x03	; 3
     900:	4f 5f       	subi	r20, 0xFF	; 255
     902:	5f 4f       	sbci	r21, 0xFF	; 255
     904:	13 96       	adiw	r26, 0x03	; 3
     906:	5c 93       	st	X, r21
     908:	4e 93       	st	-X, r20
     90a:	12 97       	sbiw	r26, 0x02	; 2
				oled_wrd(pgm_read_word(&font8[c][i]));
				oled_position.coloumn++;
			}
			break;
		case 6 :
			for(int i=0; i<6;i++){
     90c:	2f 5f       	subi	r18, 0xFF	; 255
     90e:	3f 4f       	sbci	r19, 0xFF	; 255
     910:	26 30       	cpi	r18, 0x06	; 6
     912:	31 05       	cpc	r19, r1
     914:	29 f7       	brne	.-54     	; 0x8e0 <oled_write_char+0x98>
     916:	08 95       	ret
     918:	90 e0       	ldi	r25, 0x00	; 0
     91a:	88 0f       	add	r24, r24
     91c:	99 1f       	adc	r25, r25
     91e:	88 0f       	add	r24, r24
     920:	99 1f       	adc	r25, r25


void oled_write_char(char c, int fs){
	c=c-32;
	
	switch(fs){
     922:	20 e0       	ldi	r18, 0x00	; 0
     924:	30 e0       	ldi	r19, 0x00	; 0
			}
			break;
		case 4 :
			for(int i=0; i<4;i++){
				oled_wrd(pgm_read_word(&font4[c][i]));
				oled_position.coloumn++;
     926:	a4 e6       	ldi	r26, 0x64	; 100
     928:	b1 e0       	ldi	r27, 0x01	; 1
				oled_position.coloumn++;
			}
			break;
		case 4 :
			for(int i=0; i<4;i++){
				oled_wrd(pgm_read_word(&font4[c][i]));
     92a:	f9 01       	movw	r30, r18
     92c:	e8 0f       	add	r30, r24
     92e:	f9 1f       	adc	r31, r25
     930:	e0 59       	subi	r30, 0x90	; 144
     932:	ff 4f       	sbci	r31, 0xFF	; 255
     934:	45 91       	lpm	r20, Z+
     936:	54 91       	lpm	r21, Z
void oled_wrc(uint8_t data){
	ext_oled_command[0] = data;
}
//oled write data
void oled_wrd(uint8_t data){
	ext_oled_data[0] = data;
     938:	e0 91 02 01 	lds	r30, 0x0102	; 0x800102 <ext_oled_data>
     93c:	f0 91 03 01 	lds	r31, 0x0103	; 0x800103 <ext_oled_data+0x1>
     940:	40 83       	st	Z, r20
			}
			break;
		case 4 :
			for(int i=0; i<4;i++){
				oled_wrd(pgm_read_word(&font4[c][i]));
				oled_position.coloumn++;
     942:	12 96       	adiw	r26, 0x02	; 2
     944:	4d 91       	ld	r20, X+
     946:	5c 91       	ld	r21, X
     948:	13 97       	sbiw	r26, 0x03	; 3
     94a:	4f 5f       	subi	r20, 0xFF	; 255
     94c:	5f 4f       	sbci	r21, 0xFF	; 255
     94e:	13 96       	adiw	r26, 0x03	; 3
     950:	5c 93       	st	X, r21
     952:	4e 93       	st	-X, r20
     954:	12 97       	sbiw	r26, 0x02	; 2
				oled_wrd(pgm_read_word(&font6[c][i]));
				oled_position.coloumn++;
			}
			break;
		case 4 :
			for(int i=0; i<4;i++){
     956:	2f 5f       	subi	r18, 0xFF	; 255
     958:	3f 4f       	sbci	r19, 0xFF	; 255
     95a:	24 30       	cpi	r18, 0x04	; 4
     95c:	31 05       	cpc	r19, r1
     95e:	29 f7       	brne	.-54     	; 0x92a <oled_write_char+0xe2>
     960:	08 95       	ret

00000962 <oled_print>:
	
}



void oled_print(char* word, int fs){
     962:	cf 92       	push	r12
     964:	df 92       	push	r13
     966:	ef 92       	push	r14
     968:	ff 92       	push	r15
     96a:	0f 93       	push	r16
     96c:	1f 93       	push	r17
     96e:	cf 93       	push	r28
     970:	df 93       	push	r29
     972:	ec 01       	movw	r28, r24
     974:	7b 01       	movw	r14, r22
     976:	8c 01       	movw	r16, r24
	for( int i = 0; i < strlen(word); i++){
     978:	c1 2c       	mov	r12, r1
     97a:	d1 2c       	mov	r13, r1
     97c:	09 c0       	rjmp	.+18     	; 0x990 <oled_print+0x2e>
		oled_write_char(word[i], fs);
     97e:	b7 01       	movw	r22, r14
     980:	f8 01       	movw	r30, r16
     982:	81 91       	ld	r24, Z+
     984:	8f 01       	movw	r16, r30
     986:	0e 94 24 04 	call	0x848	; 0x848 <oled_write_char>
}



void oled_print(char* word, int fs){
	for( int i = 0; i < strlen(word); i++){
     98a:	ff ef       	ldi	r31, 0xFF	; 255
     98c:	cf 1a       	sub	r12, r31
     98e:	df 0a       	sbc	r13, r31
     990:	fe 01       	movw	r30, r28
     992:	01 90       	ld	r0, Z+
     994:	00 20       	and	r0, r0
     996:	e9 f7       	brne	.-6      	; 0x992 <oled_print+0x30>
     998:	31 97       	sbiw	r30, 0x01	; 1
     99a:	ec 1b       	sub	r30, r28
     99c:	fd 0b       	sbc	r31, r29
     99e:	ce 16       	cp	r12, r30
     9a0:	df 06       	cpc	r13, r31
     9a2:	68 f3       	brcs	.-38     	; 0x97e <oled_print+0x1c>
		oled_write_char(word[i], fs);
	}
}
     9a4:	df 91       	pop	r29
     9a6:	cf 91       	pop	r28
     9a8:	1f 91       	pop	r17
     9aa:	0f 91       	pop	r16
     9ac:	ff 90       	pop	r15
     9ae:	ef 90       	pop	r14
     9b0:	df 90       	pop	r13
     9b2:	cf 90       	pop	r12
     9b4:	08 95       	ret

000009b6 <oled_center_print>:

void oled_center_print(char* word, int fs){
     9b6:	0f 93       	push	r16
     9b8:	1f 93       	push	r17
     9ba:	cf 93       	push	r28
     9bc:	df 93       	push	r29
     9be:	ec 01       	movw	r28, r24
     9c0:	8b 01       	movw	r16, r22
	oled_goto_col(63-(strlen(word)*fs/2));
     9c2:	fc 01       	movw	r30, r24
     9c4:	01 90       	ld	r0, Z+
     9c6:	00 20       	and	r0, r0
     9c8:	e9 f7       	brne	.-6      	; 0x9c4 <oled_center_print+0xe>
     9ca:	31 97       	sbiw	r30, 0x01	; 1
     9cc:	e8 1b       	sub	r30, r24
     9ce:	f9 0b       	sbc	r31, r25
     9d0:	6e 9f       	mul	r22, r30
     9d2:	90 01       	movw	r18, r0
     9d4:	6f 9f       	mul	r22, r31
     9d6:	30 0d       	add	r19, r0
     9d8:	7e 9f       	mul	r23, r30
     9da:	30 0d       	add	r19, r0
     9dc:	11 24       	eor	r1, r1
     9de:	36 95       	lsr	r19
     9e0:	27 95       	ror	r18
     9e2:	8f e3       	ldi	r24, 0x3F	; 63
     9e4:	82 1b       	sub	r24, r18
     9e6:	0e 94 d2 03 	call	0x7a4	; 0x7a4 <oled_goto_col>
	oled_print(word, fs);
     9ea:	b8 01       	movw	r22, r16
     9ec:	ce 01       	movw	r24, r28
     9ee:	0e 94 b1 04 	call	0x962	; 0x962 <oled_print>
}
     9f2:	df 91       	pop	r29
     9f4:	cf 91       	pop	r28
     9f6:	1f 91       	pop	r17
     9f8:	0f 91       	pop	r16
     9fa:	08 95       	ret

000009fc <oled_init>:
volatile int fontsize = 8;


//oled write command
void oled_wrc(uint8_t data){
	ext_oled_command[0] = data;
     9fc:	e0 91 04 01 	lds	r30, 0x0104	; 0x800104 <ext_oled_command>
     a00:	f0 91 05 01 	lds	r31, 0x0105	; 0x800105 <ext_oled_command+0x1>
     a04:	8e ea       	ldi	r24, 0xAE	; 174
     a06:	80 83       	st	Z, r24
     a08:	e0 91 04 01 	lds	r30, 0x0104	; 0x800104 <ext_oled_command>
     a0c:	f0 91 05 01 	lds	r31, 0x0105	; 0x800105 <ext_oled_command+0x1>
     a10:	81 ea       	ldi	r24, 0xA1	; 161
     a12:	80 83       	st	Z, r24
     a14:	e0 91 04 01 	lds	r30, 0x0104	; 0x800104 <ext_oled_command>
     a18:	f0 91 05 01 	lds	r31, 0x0105	; 0x800105 <ext_oled_command+0x1>
     a1c:	8a ed       	ldi	r24, 0xDA	; 218
     a1e:	80 83       	st	Z, r24
     a20:	e0 91 04 01 	lds	r30, 0x0104	; 0x800104 <ext_oled_command>
     a24:	f0 91 05 01 	lds	r31, 0x0105	; 0x800105 <ext_oled_command+0x1>
     a28:	82 e1       	ldi	r24, 0x12	; 18
     a2a:	80 83       	st	Z, r24
     a2c:	e0 91 04 01 	lds	r30, 0x0104	; 0x800104 <ext_oled_command>
     a30:	f0 91 05 01 	lds	r31, 0x0105	; 0x800105 <ext_oled_command+0x1>
     a34:	88 ec       	ldi	r24, 0xC8	; 200
     a36:	80 83       	st	Z, r24
     a38:	e0 91 04 01 	lds	r30, 0x0104	; 0x800104 <ext_oled_command>
     a3c:	f0 91 05 01 	lds	r31, 0x0105	; 0x800105 <ext_oled_command+0x1>
     a40:	88 ea       	ldi	r24, 0xA8	; 168
     a42:	80 83       	st	Z, r24
     a44:	e0 91 04 01 	lds	r30, 0x0104	; 0x800104 <ext_oled_command>
     a48:	f0 91 05 01 	lds	r31, 0x0105	; 0x800105 <ext_oled_command+0x1>
     a4c:	8f e3       	ldi	r24, 0x3F	; 63
     a4e:	80 83       	st	Z, r24
     a50:	e0 91 04 01 	lds	r30, 0x0104	; 0x800104 <ext_oled_command>
     a54:	f0 91 05 01 	lds	r31, 0x0105	; 0x800105 <ext_oled_command+0x1>
     a58:	85 ed       	ldi	r24, 0xD5	; 213
     a5a:	80 83       	st	Z, r24
     a5c:	e0 91 04 01 	lds	r30, 0x0104	; 0x800104 <ext_oled_command>
     a60:	f0 91 05 01 	lds	r31, 0x0105	; 0x800105 <ext_oled_command+0x1>
     a64:	80 e8       	ldi	r24, 0x80	; 128
     a66:	80 83       	st	Z, r24
     a68:	e0 91 04 01 	lds	r30, 0x0104	; 0x800104 <ext_oled_command>
     a6c:	f0 91 05 01 	lds	r31, 0x0105	; 0x800105 <ext_oled_command+0x1>
     a70:	81 e8       	ldi	r24, 0x81	; 129
     a72:	80 83       	st	Z, r24
     a74:	e0 91 04 01 	lds	r30, 0x0104	; 0x800104 <ext_oled_command>
     a78:	f0 91 05 01 	lds	r31, 0x0105	; 0x800105 <ext_oled_command+0x1>
     a7c:	80 e5       	ldi	r24, 0x50	; 80
     a7e:	80 83       	st	Z, r24
     a80:	e0 91 04 01 	lds	r30, 0x0104	; 0x800104 <ext_oled_command>
     a84:	f0 91 05 01 	lds	r31, 0x0105	; 0x800105 <ext_oled_command+0x1>
     a88:	89 ed       	ldi	r24, 0xD9	; 217
     a8a:	80 83       	st	Z, r24
     a8c:	e0 91 04 01 	lds	r30, 0x0104	; 0x800104 <ext_oled_command>
     a90:	f0 91 05 01 	lds	r31, 0x0105	; 0x800105 <ext_oled_command+0x1>
     a94:	81 e2       	ldi	r24, 0x21	; 33
     a96:	80 83       	st	Z, r24
     a98:	e0 91 04 01 	lds	r30, 0x0104	; 0x800104 <ext_oled_command>
     a9c:	f0 91 05 01 	lds	r31, 0x0105	; 0x800105 <ext_oled_command+0x1>
     aa0:	80 e2       	ldi	r24, 0x20	; 32
     aa2:	80 83       	st	Z, r24
     aa4:	e0 91 04 01 	lds	r30, 0x0104	; 0x800104 <ext_oled_command>
     aa8:	f0 91 05 01 	lds	r31, 0x0105	; 0x800105 <ext_oled_command+0x1>
     aac:	82 e0       	ldi	r24, 0x02	; 2
     aae:	80 83       	st	Z, r24
     ab0:	e0 91 04 01 	lds	r30, 0x0104	; 0x800104 <ext_oled_command>
     ab4:	f0 91 05 01 	lds	r31, 0x0105	; 0x800105 <ext_oled_command+0x1>
     ab8:	8b ed       	ldi	r24, 0xDB	; 219
     aba:	80 83       	st	Z, r24
     abc:	e0 91 04 01 	lds	r30, 0x0104	; 0x800104 <ext_oled_command>
     ac0:	f0 91 05 01 	lds	r31, 0x0105	; 0x800105 <ext_oled_command+0x1>
     ac4:	80 e3       	ldi	r24, 0x30	; 48
     ac6:	80 83       	st	Z, r24
     ac8:	e0 91 04 01 	lds	r30, 0x0104	; 0x800104 <ext_oled_command>
     acc:	f0 91 05 01 	lds	r31, 0x0105	; 0x800105 <ext_oled_command+0x1>
     ad0:	8d ea       	ldi	r24, 0xAD	; 173
     ad2:	80 83       	st	Z, r24
     ad4:	e0 91 04 01 	lds	r30, 0x0104	; 0x800104 <ext_oled_command>
     ad8:	f0 91 05 01 	lds	r31, 0x0105	; 0x800105 <ext_oled_command+0x1>
     adc:	10 82       	st	Z, r1
     ade:	e0 91 04 01 	lds	r30, 0x0104	; 0x800104 <ext_oled_command>
     ae2:	f0 91 05 01 	lds	r31, 0x0105	; 0x800105 <ext_oled_command+0x1>
     ae6:	84 ea       	ldi	r24, 0xA4	; 164
     ae8:	80 83       	st	Z, r24
     aea:	e0 91 04 01 	lds	r30, 0x0104	; 0x800104 <ext_oled_command>
     aee:	f0 91 05 01 	lds	r31, 0x0105	; 0x800105 <ext_oled_command+0x1>
     af2:	86 ea       	ldi	r24, 0xA6	; 166
     af4:	80 83       	st	Z, r24
     af6:	e0 91 04 01 	lds	r30, 0x0104	; 0x800104 <ext_oled_command>
     afa:	f0 91 05 01 	lds	r31, 0x0105	; 0x800105 <ext_oled_command+0x1>
     afe:	8f ea       	ldi	r24, 0xAF	; 175
     b00:	80 83       	st	Z, r24
	      oled_wrc(0xad);        //master configuration
	      oled_wrc(0x00);
	      oled_wrc(0xa4);        //out follows RAM content
	      oled_wrc(0xa6);        //set normal display
	      oled_wrc(0xaf);        // display on
		  oled_clear_screen();
     b02:	0e 94 fc 03 	call	0x7f8	; 0x7f8 <oled_clear_screen>
		  oled_goto_pos(0,0);
     b06:	60 e0       	ldi	r22, 0x00	; 0
     b08:	80 e0       	ldi	r24, 0x00	; 0
     b0a:	0e 94 f3 03 	call	0x7e6	; 0x7e6 <oled_goto_pos>
     b0e:	08 95       	ret

00000b10 <xmem_init>:
#include <avr/io.h>
#include "DRIVER_XMEM.h"

//Init function
void xmem_init(void){
	MCUCR |= (1 << SRE); //enable XMEM
     b10:	85 b7       	in	r24, 0x35	; 53
     b12:	80 68       	ori	r24, 0x80	; 128
     b14:	85 bf       	out	0x35, r24	; 53
	SFIOR |= (1 << XMM2); //Mask unused bits/pins, which is PC4-PC7
     b16:	80 b7       	in	r24, 0x30	; 48
     b18:	80 62       	ori	r24, 0x20	; 32
     b1a:	80 bf       	out	0x30, r24	; 48
     b1c:	08 95       	ret

00000b1e <main>:
#include "DRIVER_OLED.h"
#define MYUBRR FOSC/16/BAUD-1 //UART Baud Rate Register

int main(void){
	
	xmem_init();
     b1e:	0e 94 88 05 	call	0xb10	; 0xb10 <xmem_init>
	oled_init();
     b22:	0e 94 fe 04 	call	0x9fc	; 0x9fc <oled_init>
// 		oled_wrc(i);
// 		_delay_ms(10);
// 	}

	
	oled_center_print("PINGPONG",8);
     b26:	68 e0       	ldi	r22, 0x08	; 8
     b28:	70 e0       	ldi	r23, 0x00	; 0
     b2a:	87 e2       	ldi	r24, 0x27	; 39
     b2c:	91 e0       	ldi	r25, 0x01	; 1
     b2e:	0e 94 db 04 	call	0x9b6	; 0x9b6 <oled_center_print>
	oled_goto_page(2);
     b32:	82 e0       	ldi	r24, 0x02	; 2
     b34:	0e 94 ba 03 	call	0x774	; 0x774 <oled_goto_page>
	oled_center_print("NEW GAME",6);
     b38:	66 e0       	ldi	r22, 0x06	; 6
     b3a:	70 e0       	ldi	r23, 0x00	; 0
     b3c:	80 e3       	ldi	r24, 0x30	; 48
     b3e:	91 e0       	ldi	r25, 0x01	; 1
     b40:	0e 94 db 04 	call	0x9b6	; 0x9b6 <oled_center_print>
	oled_goto_page(3);
     b44:	83 e0       	ldi	r24, 0x03	; 3
     b46:	0e 94 ba 03 	call	0x774	; 0x774 <oled_goto_page>
	oled_center_print(">HIGHSCORE<",6);
     b4a:	66 e0       	ldi	r22, 0x06	; 6
     b4c:	70 e0       	ldi	r23, 0x00	; 0
     b4e:	89 e3       	ldi	r24, 0x39	; 57
     b50:	91 e0       	ldi	r25, 0x01	; 1
     b52:	0e 94 db 04 	call	0x9b6	; 0x9b6 <oled_center_print>
	oled_goto_page(4);
     b56:	84 e0       	ldi	r24, 0x04	; 4
     b58:	0e 94 ba 03 	call	0x774	; 0x774 <oled_goto_page>
	oled_center_print("CALIBRATE",6);
     b5c:	66 e0       	ldi	r22, 0x06	; 6
     b5e:	70 e0       	ldi	r23, 0x00	; 0
     b60:	85 e4       	ldi	r24, 0x45	; 69
     b62:	91 e0       	ldi	r25, 0x01	; 1
     b64:	0e 94 db 04 	call	0x9b6	; 0x9b6 <oled_center_print>
	oled_goto_page(5);
     b68:	85 e0       	ldi	r24, 0x05	; 5
     b6a:	0e 94 ba 03 	call	0x774	; 0x774 <oled_goto_page>
	oled_center_print("DIFFICULTY",6);
     b6e:	66 e0       	ldi	r22, 0x06	; 6
     b70:	70 e0       	ldi	r23, 0x00	; 0
     b72:	8f e4       	ldi	r24, 0x4F	; 79
     b74:	91 e0       	ldi	r25, 0x01	; 1
     b76:	0e 94 db 04 	call	0x9b6	; 0x9b6 <oled_center_print>
	oled_goto_page(6);
     b7a:	86 e0       	ldi	r24, 0x06	; 6
     b7c:	0e 94 ba 03 	call	0x774	; 0x774 <oled_goto_page>
	oled_center_print("DEBUGGING",6);
     b80:	66 e0       	ldi	r22, 0x06	; 6
     b82:	70 e0       	ldi	r23, 0x00	; 0
     b84:	8a e5       	ldi	r24, 0x5A	; 90
     b86:	91 e0       	ldi	r25, 0x01	; 1
     b88:	0e 94 db 04 	call	0x9b6	; 0x9b6 <oled_center_print>
     b8c:	ff cf       	rjmp	.-2      	; 0xb8c <main+0x6e>

00000b8e <printf>:
     b8e:	a0 e0       	ldi	r26, 0x00	; 0
     b90:	b0 e0       	ldi	r27, 0x00	; 0
     b92:	ed ec       	ldi	r30, 0xCD	; 205
     b94:	f5 e0       	ldi	r31, 0x05	; 5
     b96:	0c 94 7e 08 	jmp	0x10fc	; 0x10fc <__prologue_saves__+0x20>
     b9a:	ae 01       	movw	r20, r28
     b9c:	4b 5f       	subi	r20, 0xFB	; 251
     b9e:	5f 4f       	sbci	r21, 0xFF	; 255
     ba0:	fa 01       	movw	r30, r20
     ba2:	61 91       	ld	r22, Z+
     ba4:	71 91       	ld	r23, Z+
     ba6:	af 01       	movw	r20, r30
     ba8:	80 91 6a 01 	lds	r24, 0x016A	; 0x80016a <__iob+0x2>
     bac:	90 91 6b 01 	lds	r25, 0x016B	; 0x80016b <__iob+0x3>
     bb0:	0e 94 dd 05 	call	0xbba	; 0xbba <vfprintf>
     bb4:	e2 e0       	ldi	r30, 0x02	; 2
     bb6:	0c 94 9a 08 	jmp	0x1134	; 0x1134 <__epilogue_restores__+0x20>

00000bba <vfprintf>:
     bba:	ab e0       	ldi	r26, 0x0B	; 11
     bbc:	b0 e0       	ldi	r27, 0x00	; 0
     bbe:	e3 ee       	ldi	r30, 0xE3	; 227
     bc0:	f5 e0       	ldi	r31, 0x05	; 5
     bc2:	0c 94 6e 08 	jmp	0x10dc	; 0x10dc <__prologue_saves__>
     bc6:	6c 01       	movw	r12, r24
     bc8:	7b 01       	movw	r14, r22
     bca:	8a 01       	movw	r16, r20
     bcc:	fc 01       	movw	r30, r24
     bce:	17 82       	std	Z+7, r1	; 0x07
     bd0:	16 82       	std	Z+6, r1	; 0x06
     bd2:	83 81       	ldd	r24, Z+3	; 0x03
     bd4:	81 ff       	sbrs	r24, 1
     bd6:	cc c1       	rjmp	.+920    	; 0xf70 <vfprintf+0x3b6>
     bd8:	ce 01       	movw	r24, r28
     bda:	01 96       	adiw	r24, 0x01	; 1
     bdc:	3c 01       	movw	r6, r24
     bde:	f6 01       	movw	r30, r12
     be0:	93 81       	ldd	r25, Z+3	; 0x03
     be2:	f7 01       	movw	r30, r14
     be4:	93 fd       	sbrc	r25, 3
     be6:	85 91       	lpm	r24, Z+
     be8:	93 ff       	sbrs	r25, 3
     bea:	81 91       	ld	r24, Z+
     bec:	7f 01       	movw	r14, r30
     bee:	88 23       	and	r24, r24
     bf0:	09 f4       	brne	.+2      	; 0xbf4 <vfprintf+0x3a>
     bf2:	ba c1       	rjmp	.+884    	; 0xf68 <vfprintf+0x3ae>
     bf4:	85 32       	cpi	r24, 0x25	; 37
     bf6:	39 f4       	brne	.+14     	; 0xc06 <vfprintf+0x4c>
     bf8:	93 fd       	sbrc	r25, 3
     bfa:	85 91       	lpm	r24, Z+
     bfc:	93 ff       	sbrs	r25, 3
     bfe:	81 91       	ld	r24, Z+
     c00:	7f 01       	movw	r14, r30
     c02:	85 32       	cpi	r24, 0x25	; 37
     c04:	29 f4       	brne	.+10     	; 0xc10 <vfprintf+0x56>
     c06:	b6 01       	movw	r22, r12
     c08:	90 e0       	ldi	r25, 0x00	; 0
     c0a:	0e 94 d4 07 	call	0xfa8	; 0xfa8 <fputc>
     c0e:	e7 cf       	rjmp	.-50     	; 0xbde <vfprintf+0x24>
     c10:	91 2c       	mov	r9, r1
     c12:	21 2c       	mov	r2, r1
     c14:	31 2c       	mov	r3, r1
     c16:	ff e1       	ldi	r31, 0x1F	; 31
     c18:	f3 15       	cp	r31, r3
     c1a:	d8 f0       	brcs	.+54     	; 0xc52 <vfprintf+0x98>
     c1c:	8b 32       	cpi	r24, 0x2B	; 43
     c1e:	79 f0       	breq	.+30     	; 0xc3e <vfprintf+0x84>
     c20:	38 f4       	brcc	.+14     	; 0xc30 <vfprintf+0x76>
     c22:	80 32       	cpi	r24, 0x20	; 32
     c24:	79 f0       	breq	.+30     	; 0xc44 <vfprintf+0x8a>
     c26:	83 32       	cpi	r24, 0x23	; 35
     c28:	a1 f4       	brne	.+40     	; 0xc52 <vfprintf+0x98>
     c2a:	23 2d       	mov	r18, r3
     c2c:	20 61       	ori	r18, 0x10	; 16
     c2e:	1d c0       	rjmp	.+58     	; 0xc6a <vfprintf+0xb0>
     c30:	8d 32       	cpi	r24, 0x2D	; 45
     c32:	61 f0       	breq	.+24     	; 0xc4c <vfprintf+0x92>
     c34:	80 33       	cpi	r24, 0x30	; 48
     c36:	69 f4       	brne	.+26     	; 0xc52 <vfprintf+0x98>
     c38:	23 2d       	mov	r18, r3
     c3a:	21 60       	ori	r18, 0x01	; 1
     c3c:	16 c0       	rjmp	.+44     	; 0xc6a <vfprintf+0xb0>
     c3e:	83 2d       	mov	r24, r3
     c40:	82 60       	ori	r24, 0x02	; 2
     c42:	38 2e       	mov	r3, r24
     c44:	e3 2d       	mov	r30, r3
     c46:	e4 60       	ori	r30, 0x04	; 4
     c48:	3e 2e       	mov	r3, r30
     c4a:	2a c0       	rjmp	.+84     	; 0xca0 <vfprintf+0xe6>
     c4c:	f3 2d       	mov	r31, r3
     c4e:	f8 60       	ori	r31, 0x08	; 8
     c50:	1d c0       	rjmp	.+58     	; 0xc8c <vfprintf+0xd2>
     c52:	37 fc       	sbrc	r3, 7
     c54:	2d c0       	rjmp	.+90     	; 0xcb0 <vfprintf+0xf6>
     c56:	20 ed       	ldi	r18, 0xD0	; 208
     c58:	28 0f       	add	r18, r24
     c5a:	2a 30       	cpi	r18, 0x0A	; 10
     c5c:	40 f0       	brcs	.+16     	; 0xc6e <vfprintf+0xb4>
     c5e:	8e 32       	cpi	r24, 0x2E	; 46
     c60:	b9 f4       	brne	.+46     	; 0xc90 <vfprintf+0xd6>
     c62:	36 fc       	sbrc	r3, 6
     c64:	81 c1       	rjmp	.+770    	; 0xf68 <vfprintf+0x3ae>
     c66:	23 2d       	mov	r18, r3
     c68:	20 64       	ori	r18, 0x40	; 64
     c6a:	32 2e       	mov	r3, r18
     c6c:	19 c0       	rjmp	.+50     	; 0xca0 <vfprintf+0xe6>
     c6e:	36 fe       	sbrs	r3, 6
     c70:	06 c0       	rjmp	.+12     	; 0xc7e <vfprintf+0xc4>
     c72:	8a e0       	ldi	r24, 0x0A	; 10
     c74:	98 9e       	mul	r9, r24
     c76:	20 0d       	add	r18, r0
     c78:	11 24       	eor	r1, r1
     c7a:	92 2e       	mov	r9, r18
     c7c:	11 c0       	rjmp	.+34     	; 0xca0 <vfprintf+0xe6>
     c7e:	ea e0       	ldi	r30, 0x0A	; 10
     c80:	2e 9e       	mul	r2, r30
     c82:	20 0d       	add	r18, r0
     c84:	11 24       	eor	r1, r1
     c86:	22 2e       	mov	r2, r18
     c88:	f3 2d       	mov	r31, r3
     c8a:	f0 62       	ori	r31, 0x20	; 32
     c8c:	3f 2e       	mov	r3, r31
     c8e:	08 c0       	rjmp	.+16     	; 0xca0 <vfprintf+0xe6>
     c90:	8c 36       	cpi	r24, 0x6C	; 108
     c92:	21 f4       	brne	.+8      	; 0xc9c <vfprintf+0xe2>
     c94:	83 2d       	mov	r24, r3
     c96:	80 68       	ori	r24, 0x80	; 128
     c98:	38 2e       	mov	r3, r24
     c9a:	02 c0       	rjmp	.+4      	; 0xca0 <vfprintf+0xe6>
     c9c:	88 36       	cpi	r24, 0x68	; 104
     c9e:	41 f4       	brne	.+16     	; 0xcb0 <vfprintf+0xf6>
     ca0:	f7 01       	movw	r30, r14
     ca2:	93 fd       	sbrc	r25, 3
     ca4:	85 91       	lpm	r24, Z+
     ca6:	93 ff       	sbrs	r25, 3
     ca8:	81 91       	ld	r24, Z+
     caa:	7f 01       	movw	r14, r30
     cac:	81 11       	cpse	r24, r1
     cae:	b3 cf       	rjmp	.-154    	; 0xc16 <vfprintf+0x5c>
     cb0:	98 2f       	mov	r25, r24
     cb2:	9f 7d       	andi	r25, 0xDF	; 223
     cb4:	95 54       	subi	r25, 0x45	; 69
     cb6:	93 30       	cpi	r25, 0x03	; 3
     cb8:	28 f4       	brcc	.+10     	; 0xcc4 <vfprintf+0x10a>
     cba:	0c 5f       	subi	r16, 0xFC	; 252
     cbc:	1f 4f       	sbci	r17, 0xFF	; 255
     cbe:	9f e3       	ldi	r25, 0x3F	; 63
     cc0:	99 83       	std	Y+1, r25	; 0x01
     cc2:	0d c0       	rjmp	.+26     	; 0xcde <vfprintf+0x124>
     cc4:	83 36       	cpi	r24, 0x63	; 99
     cc6:	31 f0       	breq	.+12     	; 0xcd4 <vfprintf+0x11a>
     cc8:	83 37       	cpi	r24, 0x73	; 115
     cca:	71 f0       	breq	.+28     	; 0xce8 <vfprintf+0x12e>
     ccc:	83 35       	cpi	r24, 0x53	; 83
     cce:	09 f0       	breq	.+2      	; 0xcd2 <vfprintf+0x118>
     cd0:	59 c0       	rjmp	.+178    	; 0xd84 <vfprintf+0x1ca>
     cd2:	21 c0       	rjmp	.+66     	; 0xd16 <vfprintf+0x15c>
     cd4:	f8 01       	movw	r30, r16
     cd6:	80 81       	ld	r24, Z
     cd8:	89 83       	std	Y+1, r24	; 0x01
     cda:	0e 5f       	subi	r16, 0xFE	; 254
     cdc:	1f 4f       	sbci	r17, 0xFF	; 255
     cde:	88 24       	eor	r8, r8
     ce0:	83 94       	inc	r8
     ce2:	91 2c       	mov	r9, r1
     ce4:	53 01       	movw	r10, r6
     ce6:	13 c0       	rjmp	.+38     	; 0xd0e <vfprintf+0x154>
     ce8:	28 01       	movw	r4, r16
     cea:	f2 e0       	ldi	r31, 0x02	; 2
     cec:	4f 0e       	add	r4, r31
     cee:	51 1c       	adc	r5, r1
     cf0:	f8 01       	movw	r30, r16
     cf2:	a0 80       	ld	r10, Z
     cf4:	b1 80       	ldd	r11, Z+1	; 0x01
     cf6:	36 fe       	sbrs	r3, 6
     cf8:	03 c0       	rjmp	.+6      	; 0xd00 <vfprintf+0x146>
     cfa:	69 2d       	mov	r22, r9
     cfc:	70 e0       	ldi	r23, 0x00	; 0
     cfe:	02 c0       	rjmp	.+4      	; 0xd04 <vfprintf+0x14a>
     d00:	6f ef       	ldi	r22, 0xFF	; 255
     d02:	7f ef       	ldi	r23, 0xFF	; 255
     d04:	c5 01       	movw	r24, r10
     d06:	0e 94 c9 07 	call	0xf92	; 0xf92 <strnlen>
     d0a:	4c 01       	movw	r8, r24
     d0c:	82 01       	movw	r16, r4
     d0e:	f3 2d       	mov	r31, r3
     d10:	ff 77       	andi	r31, 0x7F	; 127
     d12:	3f 2e       	mov	r3, r31
     d14:	16 c0       	rjmp	.+44     	; 0xd42 <vfprintf+0x188>
     d16:	28 01       	movw	r4, r16
     d18:	22 e0       	ldi	r18, 0x02	; 2
     d1a:	42 0e       	add	r4, r18
     d1c:	51 1c       	adc	r5, r1
     d1e:	f8 01       	movw	r30, r16
     d20:	a0 80       	ld	r10, Z
     d22:	b1 80       	ldd	r11, Z+1	; 0x01
     d24:	36 fe       	sbrs	r3, 6
     d26:	03 c0       	rjmp	.+6      	; 0xd2e <vfprintf+0x174>
     d28:	69 2d       	mov	r22, r9
     d2a:	70 e0       	ldi	r23, 0x00	; 0
     d2c:	02 c0       	rjmp	.+4      	; 0xd32 <vfprintf+0x178>
     d2e:	6f ef       	ldi	r22, 0xFF	; 255
     d30:	7f ef       	ldi	r23, 0xFF	; 255
     d32:	c5 01       	movw	r24, r10
     d34:	0e 94 be 07 	call	0xf7c	; 0xf7c <strnlen_P>
     d38:	4c 01       	movw	r8, r24
     d3a:	f3 2d       	mov	r31, r3
     d3c:	f0 68       	ori	r31, 0x80	; 128
     d3e:	3f 2e       	mov	r3, r31
     d40:	82 01       	movw	r16, r4
     d42:	33 fc       	sbrc	r3, 3
     d44:	1b c0       	rjmp	.+54     	; 0xd7c <vfprintf+0x1c2>
     d46:	82 2d       	mov	r24, r2
     d48:	90 e0       	ldi	r25, 0x00	; 0
     d4a:	88 16       	cp	r8, r24
     d4c:	99 06       	cpc	r9, r25
     d4e:	b0 f4       	brcc	.+44     	; 0xd7c <vfprintf+0x1c2>
     d50:	b6 01       	movw	r22, r12
     d52:	80 e2       	ldi	r24, 0x20	; 32
     d54:	90 e0       	ldi	r25, 0x00	; 0
     d56:	0e 94 d4 07 	call	0xfa8	; 0xfa8 <fputc>
     d5a:	2a 94       	dec	r2
     d5c:	f4 cf       	rjmp	.-24     	; 0xd46 <vfprintf+0x18c>
     d5e:	f5 01       	movw	r30, r10
     d60:	37 fc       	sbrc	r3, 7
     d62:	85 91       	lpm	r24, Z+
     d64:	37 fe       	sbrs	r3, 7
     d66:	81 91       	ld	r24, Z+
     d68:	5f 01       	movw	r10, r30
     d6a:	b6 01       	movw	r22, r12
     d6c:	90 e0       	ldi	r25, 0x00	; 0
     d6e:	0e 94 d4 07 	call	0xfa8	; 0xfa8 <fputc>
     d72:	21 10       	cpse	r2, r1
     d74:	2a 94       	dec	r2
     d76:	21 e0       	ldi	r18, 0x01	; 1
     d78:	82 1a       	sub	r8, r18
     d7a:	91 08       	sbc	r9, r1
     d7c:	81 14       	cp	r8, r1
     d7e:	91 04       	cpc	r9, r1
     d80:	71 f7       	brne	.-36     	; 0xd5e <vfprintf+0x1a4>
     d82:	e8 c0       	rjmp	.+464    	; 0xf54 <vfprintf+0x39a>
     d84:	84 36       	cpi	r24, 0x64	; 100
     d86:	11 f0       	breq	.+4      	; 0xd8c <vfprintf+0x1d2>
     d88:	89 36       	cpi	r24, 0x69	; 105
     d8a:	41 f5       	brne	.+80     	; 0xddc <vfprintf+0x222>
     d8c:	f8 01       	movw	r30, r16
     d8e:	37 fe       	sbrs	r3, 7
     d90:	07 c0       	rjmp	.+14     	; 0xda0 <vfprintf+0x1e6>
     d92:	60 81       	ld	r22, Z
     d94:	71 81       	ldd	r23, Z+1	; 0x01
     d96:	82 81       	ldd	r24, Z+2	; 0x02
     d98:	93 81       	ldd	r25, Z+3	; 0x03
     d9a:	0c 5f       	subi	r16, 0xFC	; 252
     d9c:	1f 4f       	sbci	r17, 0xFF	; 255
     d9e:	08 c0       	rjmp	.+16     	; 0xdb0 <vfprintf+0x1f6>
     da0:	60 81       	ld	r22, Z
     da2:	71 81       	ldd	r23, Z+1	; 0x01
     da4:	07 2e       	mov	r0, r23
     da6:	00 0c       	add	r0, r0
     da8:	88 0b       	sbc	r24, r24
     daa:	99 0b       	sbc	r25, r25
     dac:	0e 5f       	subi	r16, 0xFE	; 254
     dae:	1f 4f       	sbci	r17, 0xFF	; 255
     db0:	f3 2d       	mov	r31, r3
     db2:	ff 76       	andi	r31, 0x6F	; 111
     db4:	3f 2e       	mov	r3, r31
     db6:	97 ff       	sbrs	r25, 7
     db8:	09 c0       	rjmp	.+18     	; 0xdcc <vfprintf+0x212>
     dba:	90 95       	com	r25
     dbc:	80 95       	com	r24
     dbe:	70 95       	com	r23
     dc0:	61 95       	neg	r22
     dc2:	7f 4f       	sbci	r23, 0xFF	; 255
     dc4:	8f 4f       	sbci	r24, 0xFF	; 255
     dc6:	9f 4f       	sbci	r25, 0xFF	; 255
     dc8:	f0 68       	ori	r31, 0x80	; 128
     dca:	3f 2e       	mov	r3, r31
     dcc:	2a e0       	ldi	r18, 0x0A	; 10
     dce:	30 e0       	ldi	r19, 0x00	; 0
     dd0:	a3 01       	movw	r20, r6
     dd2:	0e 94 10 08 	call	0x1020	; 0x1020 <__ultoa_invert>
     dd6:	88 2e       	mov	r8, r24
     dd8:	86 18       	sub	r8, r6
     dda:	45 c0       	rjmp	.+138    	; 0xe66 <vfprintf+0x2ac>
     ddc:	85 37       	cpi	r24, 0x75	; 117
     dde:	31 f4       	brne	.+12     	; 0xdec <vfprintf+0x232>
     de0:	23 2d       	mov	r18, r3
     de2:	2f 7e       	andi	r18, 0xEF	; 239
     de4:	b2 2e       	mov	r11, r18
     de6:	2a e0       	ldi	r18, 0x0A	; 10
     de8:	30 e0       	ldi	r19, 0x00	; 0
     dea:	25 c0       	rjmp	.+74     	; 0xe36 <vfprintf+0x27c>
     dec:	93 2d       	mov	r25, r3
     dee:	99 7f       	andi	r25, 0xF9	; 249
     df0:	b9 2e       	mov	r11, r25
     df2:	8f 36       	cpi	r24, 0x6F	; 111
     df4:	c1 f0       	breq	.+48     	; 0xe26 <vfprintf+0x26c>
     df6:	18 f4       	brcc	.+6      	; 0xdfe <vfprintf+0x244>
     df8:	88 35       	cpi	r24, 0x58	; 88
     dfa:	79 f0       	breq	.+30     	; 0xe1a <vfprintf+0x260>
     dfc:	b5 c0       	rjmp	.+362    	; 0xf68 <vfprintf+0x3ae>
     dfe:	80 37       	cpi	r24, 0x70	; 112
     e00:	19 f0       	breq	.+6      	; 0xe08 <vfprintf+0x24e>
     e02:	88 37       	cpi	r24, 0x78	; 120
     e04:	21 f0       	breq	.+8      	; 0xe0e <vfprintf+0x254>
     e06:	b0 c0       	rjmp	.+352    	; 0xf68 <vfprintf+0x3ae>
     e08:	e9 2f       	mov	r30, r25
     e0a:	e0 61       	ori	r30, 0x10	; 16
     e0c:	be 2e       	mov	r11, r30
     e0e:	b4 fe       	sbrs	r11, 4
     e10:	0d c0       	rjmp	.+26     	; 0xe2c <vfprintf+0x272>
     e12:	fb 2d       	mov	r31, r11
     e14:	f4 60       	ori	r31, 0x04	; 4
     e16:	bf 2e       	mov	r11, r31
     e18:	09 c0       	rjmp	.+18     	; 0xe2c <vfprintf+0x272>
     e1a:	34 fe       	sbrs	r3, 4
     e1c:	0a c0       	rjmp	.+20     	; 0xe32 <vfprintf+0x278>
     e1e:	29 2f       	mov	r18, r25
     e20:	26 60       	ori	r18, 0x06	; 6
     e22:	b2 2e       	mov	r11, r18
     e24:	06 c0       	rjmp	.+12     	; 0xe32 <vfprintf+0x278>
     e26:	28 e0       	ldi	r18, 0x08	; 8
     e28:	30 e0       	ldi	r19, 0x00	; 0
     e2a:	05 c0       	rjmp	.+10     	; 0xe36 <vfprintf+0x27c>
     e2c:	20 e1       	ldi	r18, 0x10	; 16
     e2e:	30 e0       	ldi	r19, 0x00	; 0
     e30:	02 c0       	rjmp	.+4      	; 0xe36 <vfprintf+0x27c>
     e32:	20 e1       	ldi	r18, 0x10	; 16
     e34:	32 e0       	ldi	r19, 0x02	; 2
     e36:	f8 01       	movw	r30, r16
     e38:	b7 fe       	sbrs	r11, 7
     e3a:	07 c0       	rjmp	.+14     	; 0xe4a <vfprintf+0x290>
     e3c:	60 81       	ld	r22, Z
     e3e:	71 81       	ldd	r23, Z+1	; 0x01
     e40:	82 81       	ldd	r24, Z+2	; 0x02
     e42:	93 81       	ldd	r25, Z+3	; 0x03
     e44:	0c 5f       	subi	r16, 0xFC	; 252
     e46:	1f 4f       	sbci	r17, 0xFF	; 255
     e48:	06 c0       	rjmp	.+12     	; 0xe56 <vfprintf+0x29c>
     e4a:	60 81       	ld	r22, Z
     e4c:	71 81       	ldd	r23, Z+1	; 0x01
     e4e:	80 e0       	ldi	r24, 0x00	; 0
     e50:	90 e0       	ldi	r25, 0x00	; 0
     e52:	0e 5f       	subi	r16, 0xFE	; 254
     e54:	1f 4f       	sbci	r17, 0xFF	; 255
     e56:	a3 01       	movw	r20, r6
     e58:	0e 94 10 08 	call	0x1020	; 0x1020 <__ultoa_invert>
     e5c:	88 2e       	mov	r8, r24
     e5e:	86 18       	sub	r8, r6
     e60:	fb 2d       	mov	r31, r11
     e62:	ff 77       	andi	r31, 0x7F	; 127
     e64:	3f 2e       	mov	r3, r31
     e66:	36 fe       	sbrs	r3, 6
     e68:	0d c0       	rjmp	.+26     	; 0xe84 <vfprintf+0x2ca>
     e6a:	23 2d       	mov	r18, r3
     e6c:	2e 7f       	andi	r18, 0xFE	; 254
     e6e:	a2 2e       	mov	r10, r18
     e70:	89 14       	cp	r8, r9
     e72:	58 f4       	brcc	.+22     	; 0xe8a <vfprintf+0x2d0>
     e74:	34 fe       	sbrs	r3, 4
     e76:	0b c0       	rjmp	.+22     	; 0xe8e <vfprintf+0x2d4>
     e78:	32 fc       	sbrc	r3, 2
     e7a:	09 c0       	rjmp	.+18     	; 0xe8e <vfprintf+0x2d4>
     e7c:	83 2d       	mov	r24, r3
     e7e:	8e 7e       	andi	r24, 0xEE	; 238
     e80:	a8 2e       	mov	r10, r24
     e82:	05 c0       	rjmp	.+10     	; 0xe8e <vfprintf+0x2d4>
     e84:	b8 2c       	mov	r11, r8
     e86:	a3 2c       	mov	r10, r3
     e88:	03 c0       	rjmp	.+6      	; 0xe90 <vfprintf+0x2d6>
     e8a:	b8 2c       	mov	r11, r8
     e8c:	01 c0       	rjmp	.+2      	; 0xe90 <vfprintf+0x2d6>
     e8e:	b9 2c       	mov	r11, r9
     e90:	a4 fe       	sbrs	r10, 4
     e92:	0f c0       	rjmp	.+30     	; 0xeb2 <vfprintf+0x2f8>
     e94:	fe 01       	movw	r30, r28
     e96:	e8 0d       	add	r30, r8
     e98:	f1 1d       	adc	r31, r1
     e9a:	80 81       	ld	r24, Z
     e9c:	80 33       	cpi	r24, 0x30	; 48
     e9e:	21 f4       	brne	.+8      	; 0xea8 <vfprintf+0x2ee>
     ea0:	9a 2d       	mov	r25, r10
     ea2:	99 7e       	andi	r25, 0xE9	; 233
     ea4:	a9 2e       	mov	r10, r25
     ea6:	09 c0       	rjmp	.+18     	; 0xeba <vfprintf+0x300>
     ea8:	a2 fe       	sbrs	r10, 2
     eaa:	06 c0       	rjmp	.+12     	; 0xeb8 <vfprintf+0x2fe>
     eac:	b3 94       	inc	r11
     eae:	b3 94       	inc	r11
     eb0:	04 c0       	rjmp	.+8      	; 0xeba <vfprintf+0x300>
     eb2:	8a 2d       	mov	r24, r10
     eb4:	86 78       	andi	r24, 0x86	; 134
     eb6:	09 f0       	breq	.+2      	; 0xeba <vfprintf+0x300>
     eb8:	b3 94       	inc	r11
     eba:	a3 fc       	sbrc	r10, 3
     ebc:	11 c0       	rjmp	.+34     	; 0xee0 <vfprintf+0x326>
     ebe:	a0 fe       	sbrs	r10, 0
     ec0:	06 c0       	rjmp	.+12     	; 0xece <vfprintf+0x314>
     ec2:	b2 14       	cp	r11, r2
     ec4:	88 f4       	brcc	.+34     	; 0xee8 <vfprintf+0x32e>
     ec6:	28 0c       	add	r2, r8
     ec8:	92 2c       	mov	r9, r2
     eca:	9b 18       	sub	r9, r11
     ecc:	0e c0       	rjmp	.+28     	; 0xeea <vfprintf+0x330>
     ece:	b2 14       	cp	r11, r2
     ed0:	60 f4       	brcc	.+24     	; 0xeea <vfprintf+0x330>
     ed2:	b6 01       	movw	r22, r12
     ed4:	80 e2       	ldi	r24, 0x20	; 32
     ed6:	90 e0       	ldi	r25, 0x00	; 0
     ed8:	0e 94 d4 07 	call	0xfa8	; 0xfa8 <fputc>
     edc:	b3 94       	inc	r11
     ede:	f7 cf       	rjmp	.-18     	; 0xece <vfprintf+0x314>
     ee0:	b2 14       	cp	r11, r2
     ee2:	18 f4       	brcc	.+6      	; 0xeea <vfprintf+0x330>
     ee4:	2b 18       	sub	r2, r11
     ee6:	02 c0       	rjmp	.+4      	; 0xeec <vfprintf+0x332>
     ee8:	98 2c       	mov	r9, r8
     eea:	21 2c       	mov	r2, r1
     eec:	a4 fe       	sbrs	r10, 4
     eee:	10 c0       	rjmp	.+32     	; 0xf10 <vfprintf+0x356>
     ef0:	b6 01       	movw	r22, r12
     ef2:	80 e3       	ldi	r24, 0x30	; 48
     ef4:	90 e0       	ldi	r25, 0x00	; 0
     ef6:	0e 94 d4 07 	call	0xfa8	; 0xfa8 <fputc>
     efa:	a2 fe       	sbrs	r10, 2
     efc:	17 c0       	rjmp	.+46     	; 0xf2c <vfprintf+0x372>
     efe:	a1 fc       	sbrc	r10, 1
     f00:	03 c0       	rjmp	.+6      	; 0xf08 <vfprintf+0x34e>
     f02:	88 e7       	ldi	r24, 0x78	; 120
     f04:	90 e0       	ldi	r25, 0x00	; 0
     f06:	02 c0       	rjmp	.+4      	; 0xf0c <vfprintf+0x352>
     f08:	88 e5       	ldi	r24, 0x58	; 88
     f0a:	90 e0       	ldi	r25, 0x00	; 0
     f0c:	b6 01       	movw	r22, r12
     f0e:	0c c0       	rjmp	.+24     	; 0xf28 <vfprintf+0x36e>
     f10:	8a 2d       	mov	r24, r10
     f12:	86 78       	andi	r24, 0x86	; 134
     f14:	59 f0       	breq	.+22     	; 0xf2c <vfprintf+0x372>
     f16:	a1 fe       	sbrs	r10, 1
     f18:	02 c0       	rjmp	.+4      	; 0xf1e <vfprintf+0x364>
     f1a:	8b e2       	ldi	r24, 0x2B	; 43
     f1c:	01 c0       	rjmp	.+2      	; 0xf20 <vfprintf+0x366>
     f1e:	80 e2       	ldi	r24, 0x20	; 32
     f20:	a7 fc       	sbrc	r10, 7
     f22:	8d e2       	ldi	r24, 0x2D	; 45
     f24:	b6 01       	movw	r22, r12
     f26:	90 e0       	ldi	r25, 0x00	; 0
     f28:	0e 94 d4 07 	call	0xfa8	; 0xfa8 <fputc>
     f2c:	89 14       	cp	r8, r9
     f2e:	38 f4       	brcc	.+14     	; 0xf3e <vfprintf+0x384>
     f30:	b6 01       	movw	r22, r12
     f32:	80 e3       	ldi	r24, 0x30	; 48
     f34:	90 e0       	ldi	r25, 0x00	; 0
     f36:	0e 94 d4 07 	call	0xfa8	; 0xfa8 <fputc>
     f3a:	9a 94       	dec	r9
     f3c:	f7 cf       	rjmp	.-18     	; 0xf2c <vfprintf+0x372>
     f3e:	8a 94       	dec	r8
     f40:	f3 01       	movw	r30, r6
     f42:	e8 0d       	add	r30, r8
     f44:	f1 1d       	adc	r31, r1
     f46:	80 81       	ld	r24, Z
     f48:	b6 01       	movw	r22, r12
     f4a:	90 e0       	ldi	r25, 0x00	; 0
     f4c:	0e 94 d4 07 	call	0xfa8	; 0xfa8 <fputc>
     f50:	81 10       	cpse	r8, r1
     f52:	f5 cf       	rjmp	.-22     	; 0xf3e <vfprintf+0x384>
     f54:	22 20       	and	r2, r2
     f56:	09 f4       	brne	.+2      	; 0xf5a <vfprintf+0x3a0>
     f58:	42 ce       	rjmp	.-892    	; 0xbde <vfprintf+0x24>
     f5a:	b6 01       	movw	r22, r12
     f5c:	80 e2       	ldi	r24, 0x20	; 32
     f5e:	90 e0       	ldi	r25, 0x00	; 0
     f60:	0e 94 d4 07 	call	0xfa8	; 0xfa8 <fputc>
     f64:	2a 94       	dec	r2
     f66:	f6 cf       	rjmp	.-20     	; 0xf54 <vfprintf+0x39a>
     f68:	f6 01       	movw	r30, r12
     f6a:	86 81       	ldd	r24, Z+6	; 0x06
     f6c:	97 81       	ldd	r25, Z+7	; 0x07
     f6e:	02 c0       	rjmp	.+4      	; 0xf74 <vfprintf+0x3ba>
     f70:	8f ef       	ldi	r24, 0xFF	; 255
     f72:	9f ef       	ldi	r25, 0xFF	; 255
     f74:	2b 96       	adiw	r28, 0x0b	; 11
     f76:	e2 e1       	ldi	r30, 0x12	; 18
     f78:	0c 94 8a 08 	jmp	0x1114	; 0x1114 <__epilogue_restores__>

00000f7c <strnlen_P>:
     f7c:	fc 01       	movw	r30, r24
     f7e:	05 90       	lpm	r0, Z+
     f80:	61 50       	subi	r22, 0x01	; 1
     f82:	70 40       	sbci	r23, 0x00	; 0
     f84:	01 10       	cpse	r0, r1
     f86:	d8 f7       	brcc	.-10     	; 0xf7e <strnlen_P+0x2>
     f88:	80 95       	com	r24
     f8a:	90 95       	com	r25
     f8c:	8e 0f       	add	r24, r30
     f8e:	9f 1f       	adc	r25, r31
     f90:	08 95       	ret

00000f92 <strnlen>:
     f92:	fc 01       	movw	r30, r24
     f94:	61 50       	subi	r22, 0x01	; 1
     f96:	70 40       	sbci	r23, 0x00	; 0
     f98:	01 90       	ld	r0, Z+
     f9a:	01 10       	cpse	r0, r1
     f9c:	d8 f7       	brcc	.-10     	; 0xf94 <strnlen+0x2>
     f9e:	80 95       	com	r24
     fa0:	90 95       	com	r25
     fa2:	8e 0f       	add	r24, r30
     fa4:	9f 1f       	adc	r25, r31
     fa6:	08 95       	ret

00000fa8 <fputc>:
     fa8:	0f 93       	push	r16
     faa:	1f 93       	push	r17
     fac:	cf 93       	push	r28
     fae:	df 93       	push	r29
     fb0:	fb 01       	movw	r30, r22
     fb2:	23 81       	ldd	r18, Z+3	; 0x03
     fb4:	21 fd       	sbrc	r18, 1
     fb6:	03 c0       	rjmp	.+6      	; 0xfbe <fputc+0x16>
     fb8:	8f ef       	ldi	r24, 0xFF	; 255
     fba:	9f ef       	ldi	r25, 0xFF	; 255
     fbc:	2c c0       	rjmp	.+88     	; 0x1016 <fputc+0x6e>
     fbe:	22 ff       	sbrs	r18, 2
     fc0:	16 c0       	rjmp	.+44     	; 0xfee <fputc+0x46>
     fc2:	46 81       	ldd	r20, Z+6	; 0x06
     fc4:	57 81       	ldd	r21, Z+7	; 0x07
     fc6:	24 81       	ldd	r18, Z+4	; 0x04
     fc8:	35 81       	ldd	r19, Z+5	; 0x05
     fca:	42 17       	cp	r20, r18
     fcc:	53 07       	cpc	r21, r19
     fce:	44 f4       	brge	.+16     	; 0xfe0 <fputc+0x38>
     fd0:	a0 81       	ld	r26, Z
     fd2:	b1 81       	ldd	r27, Z+1	; 0x01
     fd4:	9d 01       	movw	r18, r26
     fd6:	2f 5f       	subi	r18, 0xFF	; 255
     fd8:	3f 4f       	sbci	r19, 0xFF	; 255
     fda:	31 83       	std	Z+1, r19	; 0x01
     fdc:	20 83       	st	Z, r18
     fde:	8c 93       	st	X, r24
     fe0:	26 81       	ldd	r18, Z+6	; 0x06
     fe2:	37 81       	ldd	r19, Z+7	; 0x07
     fe4:	2f 5f       	subi	r18, 0xFF	; 255
     fe6:	3f 4f       	sbci	r19, 0xFF	; 255
     fe8:	37 83       	std	Z+7, r19	; 0x07
     fea:	26 83       	std	Z+6, r18	; 0x06
     fec:	14 c0       	rjmp	.+40     	; 0x1016 <fputc+0x6e>
     fee:	8b 01       	movw	r16, r22
     ff0:	ec 01       	movw	r28, r24
     ff2:	fb 01       	movw	r30, r22
     ff4:	00 84       	ldd	r0, Z+8	; 0x08
     ff6:	f1 85       	ldd	r31, Z+9	; 0x09
     ff8:	e0 2d       	mov	r30, r0
     ffa:	09 95       	icall
     ffc:	89 2b       	or	r24, r25
     ffe:	e1 f6       	brne	.-72     	; 0xfb8 <fputc+0x10>
    1000:	d8 01       	movw	r26, r16
    1002:	16 96       	adiw	r26, 0x06	; 6
    1004:	8d 91       	ld	r24, X+
    1006:	9c 91       	ld	r25, X
    1008:	17 97       	sbiw	r26, 0x07	; 7
    100a:	01 96       	adiw	r24, 0x01	; 1
    100c:	17 96       	adiw	r26, 0x07	; 7
    100e:	9c 93       	st	X, r25
    1010:	8e 93       	st	-X, r24
    1012:	16 97       	sbiw	r26, 0x06	; 6
    1014:	ce 01       	movw	r24, r28
    1016:	df 91       	pop	r29
    1018:	cf 91       	pop	r28
    101a:	1f 91       	pop	r17
    101c:	0f 91       	pop	r16
    101e:	08 95       	ret

00001020 <__ultoa_invert>:
    1020:	fa 01       	movw	r30, r20
    1022:	aa 27       	eor	r26, r26
    1024:	28 30       	cpi	r18, 0x08	; 8
    1026:	51 f1       	breq	.+84     	; 0x107c <__ultoa_invert+0x5c>
    1028:	20 31       	cpi	r18, 0x10	; 16
    102a:	81 f1       	breq	.+96     	; 0x108c <__ultoa_invert+0x6c>
    102c:	e8 94       	clt
    102e:	6f 93       	push	r22
    1030:	6e 7f       	andi	r22, 0xFE	; 254
    1032:	6e 5f       	subi	r22, 0xFE	; 254
    1034:	7f 4f       	sbci	r23, 0xFF	; 255
    1036:	8f 4f       	sbci	r24, 0xFF	; 255
    1038:	9f 4f       	sbci	r25, 0xFF	; 255
    103a:	af 4f       	sbci	r26, 0xFF	; 255
    103c:	b1 e0       	ldi	r27, 0x01	; 1
    103e:	3e d0       	rcall	.+124    	; 0x10bc <__ultoa_invert+0x9c>
    1040:	b4 e0       	ldi	r27, 0x04	; 4
    1042:	3c d0       	rcall	.+120    	; 0x10bc <__ultoa_invert+0x9c>
    1044:	67 0f       	add	r22, r23
    1046:	78 1f       	adc	r23, r24
    1048:	89 1f       	adc	r24, r25
    104a:	9a 1f       	adc	r25, r26
    104c:	a1 1d       	adc	r26, r1
    104e:	68 0f       	add	r22, r24
    1050:	79 1f       	adc	r23, r25
    1052:	8a 1f       	adc	r24, r26
    1054:	91 1d       	adc	r25, r1
    1056:	a1 1d       	adc	r26, r1
    1058:	6a 0f       	add	r22, r26
    105a:	71 1d       	adc	r23, r1
    105c:	81 1d       	adc	r24, r1
    105e:	91 1d       	adc	r25, r1
    1060:	a1 1d       	adc	r26, r1
    1062:	20 d0       	rcall	.+64     	; 0x10a4 <__ultoa_invert+0x84>
    1064:	09 f4       	brne	.+2      	; 0x1068 <__ultoa_invert+0x48>
    1066:	68 94       	set
    1068:	3f 91       	pop	r19
    106a:	2a e0       	ldi	r18, 0x0A	; 10
    106c:	26 9f       	mul	r18, r22
    106e:	11 24       	eor	r1, r1
    1070:	30 19       	sub	r19, r0
    1072:	30 5d       	subi	r19, 0xD0	; 208
    1074:	31 93       	st	Z+, r19
    1076:	de f6       	brtc	.-74     	; 0x102e <__ultoa_invert+0xe>
    1078:	cf 01       	movw	r24, r30
    107a:	08 95       	ret
    107c:	46 2f       	mov	r20, r22
    107e:	47 70       	andi	r20, 0x07	; 7
    1080:	40 5d       	subi	r20, 0xD0	; 208
    1082:	41 93       	st	Z+, r20
    1084:	b3 e0       	ldi	r27, 0x03	; 3
    1086:	0f d0       	rcall	.+30     	; 0x10a6 <__ultoa_invert+0x86>
    1088:	c9 f7       	brne	.-14     	; 0x107c <__ultoa_invert+0x5c>
    108a:	f6 cf       	rjmp	.-20     	; 0x1078 <__ultoa_invert+0x58>
    108c:	46 2f       	mov	r20, r22
    108e:	4f 70       	andi	r20, 0x0F	; 15
    1090:	40 5d       	subi	r20, 0xD0	; 208
    1092:	4a 33       	cpi	r20, 0x3A	; 58
    1094:	18 f0       	brcs	.+6      	; 0x109c <__ultoa_invert+0x7c>
    1096:	49 5d       	subi	r20, 0xD9	; 217
    1098:	31 fd       	sbrc	r19, 1
    109a:	40 52       	subi	r20, 0x20	; 32
    109c:	41 93       	st	Z+, r20
    109e:	02 d0       	rcall	.+4      	; 0x10a4 <__ultoa_invert+0x84>
    10a0:	a9 f7       	brne	.-22     	; 0x108c <__ultoa_invert+0x6c>
    10a2:	ea cf       	rjmp	.-44     	; 0x1078 <__ultoa_invert+0x58>
    10a4:	b4 e0       	ldi	r27, 0x04	; 4
    10a6:	a6 95       	lsr	r26
    10a8:	97 95       	ror	r25
    10aa:	87 95       	ror	r24
    10ac:	77 95       	ror	r23
    10ae:	67 95       	ror	r22
    10b0:	ba 95       	dec	r27
    10b2:	c9 f7       	brne	.-14     	; 0x10a6 <__ultoa_invert+0x86>
    10b4:	00 97       	sbiw	r24, 0x00	; 0
    10b6:	61 05       	cpc	r22, r1
    10b8:	71 05       	cpc	r23, r1
    10ba:	08 95       	ret
    10bc:	9b 01       	movw	r18, r22
    10be:	ac 01       	movw	r20, r24
    10c0:	0a 2e       	mov	r0, r26
    10c2:	06 94       	lsr	r0
    10c4:	57 95       	ror	r21
    10c6:	47 95       	ror	r20
    10c8:	37 95       	ror	r19
    10ca:	27 95       	ror	r18
    10cc:	ba 95       	dec	r27
    10ce:	c9 f7       	brne	.-14     	; 0x10c2 <__ultoa_invert+0xa2>
    10d0:	62 0f       	add	r22, r18
    10d2:	73 1f       	adc	r23, r19
    10d4:	84 1f       	adc	r24, r20
    10d6:	95 1f       	adc	r25, r21
    10d8:	a0 1d       	adc	r26, r0
    10da:	08 95       	ret

000010dc <__prologue_saves__>:
    10dc:	2f 92       	push	r2
    10de:	3f 92       	push	r3
    10e0:	4f 92       	push	r4
    10e2:	5f 92       	push	r5
    10e4:	6f 92       	push	r6
    10e6:	7f 92       	push	r7
    10e8:	8f 92       	push	r8
    10ea:	9f 92       	push	r9
    10ec:	af 92       	push	r10
    10ee:	bf 92       	push	r11
    10f0:	cf 92       	push	r12
    10f2:	df 92       	push	r13
    10f4:	ef 92       	push	r14
    10f6:	ff 92       	push	r15
    10f8:	0f 93       	push	r16
    10fa:	1f 93       	push	r17
    10fc:	cf 93       	push	r28
    10fe:	df 93       	push	r29
    1100:	cd b7       	in	r28, 0x3d	; 61
    1102:	de b7       	in	r29, 0x3e	; 62
    1104:	ca 1b       	sub	r28, r26
    1106:	db 0b       	sbc	r29, r27
    1108:	0f b6       	in	r0, 0x3f	; 63
    110a:	f8 94       	cli
    110c:	de bf       	out	0x3e, r29	; 62
    110e:	0f be       	out	0x3f, r0	; 63
    1110:	cd bf       	out	0x3d, r28	; 61
    1112:	09 94       	ijmp

00001114 <__epilogue_restores__>:
    1114:	2a 88       	ldd	r2, Y+18	; 0x12
    1116:	39 88       	ldd	r3, Y+17	; 0x11
    1118:	48 88       	ldd	r4, Y+16	; 0x10
    111a:	5f 84       	ldd	r5, Y+15	; 0x0f
    111c:	6e 84       	ldd	r6, Y+14	; 0x0e
    111e:	7d 84       	ldd	r7, Y+13	; 0x0d
    1120:	8c 84       	ldd	r8, Y+12	; 0x0c
    1122:	9b 84       	ldd	r9, Y+11	; 0x0b
    1124:	aa 84       	ldd	r10, Y+10	; 0x0a
    1126:	b9 84       	ldd	r11, Y+9	; 0x09
    1128:	c8 84       	ldd	r12, Y+8	; 0x08
    112a:	df 80       	ldd	r13, Y+7	; 0x07
    112c:	ee 80       	ldd	r14, Y+6	; 0x06
    112e:	fd 80       	ldd	r15, Y+5	; 0x05
    1130:	0c 81       	ldd	r16, Y+4	; 0x04
    1132:	1b 81       	ldd	r17, Y+3	; 0x03
    1134:	aa 81       	ldd	r26, Y+2	; 0x02
    1136:	b9 81       	ldd	r27, Y+1	; 0x01
    1138:	ce 0f       	add	r28, r30
    113a:	d1 1d       	adc	r29, r1
    113c:	0f b6       	in	r0, 0x3f	; 63
    113e:	f8 94       	cli
    1140:	de bf       	out	0x3e, r29	; 62
    1142:	0f be       	out	0x3f, r0	; 63
    1144:	cd bf       	out	0x3d, r28	; 61
    1146:	ed 01       	movw	r28, r26
    1148:	08 95       	ret

0000114a <_exit>:
    114a:	f8 94       	cli

0000114c <__stop_program>:
    114c:	ff cf       	rjmp	.-2      	; 0x114c <__stop_program>
